
protobuffer.elf:     file format elf32-littlearm

Sections:
Idx Name          Size      VMA       LMA       File off  Algn
  0 .isr_vector   000002ac  08000000  08000000  00001000  2**0
                  CONTENTS, ALLOC, LOAD, READONLY, DATA
  1 .text         000059d0  080002b0  080002b0  000012b0  2**4
                  CONTENTS, ALLOC, LOAD, READONLY, CODE
  2 .rodata       00000250  08005c80  08005c80  00006c80  2**2
                  CONTENTS, ALLOC, LOAD, READONLY, DATA
  3 .ARM          00000008  08005ed0  08005ed0  00006ed0  2**2
                  CONTENTS, ALLOC, LOAD, READONLY, DATA
  4 .init_array   00000004  08005ed8  08005ed8  00006ed8  2**2
                  CONTENTS, ALLOC, LOAD, READONLY, DATA
  5 .fini_array   00000004  08005edc  08005edc  00006edc  2**2
                  CONTENTS, ALLOC, LOAD, READONLY, DATA
  6 .data         0000006c  24000000  08005ee0  00007000  2**2
                  CONTENTS, ALLOC, LOAD, DATA
  7 .bss          00000620  2400006c  08005f4c  0000706c  2**2
                  ALLOC
  8 ._user_heap_stack 00000604  2400068c  08005f4c  0000768c  2**0
                  ALLOC
  9 .ARM.attributes 0000002e  00000000  00000000  0000706c  2**0
                  CONTENTS, READONLY
 10 .comment      00000043  00000000  00000000  0000709a  2**0
                  CONTENTS, READONLY
 11 .debug_frame  00000898  00000000  00000000  000070e0  2**2
                  CONTENTS, READONLY, DEBUGGING, OCTETS

Disassembly of section .text:

080002b0 <__do_global_dtors_aux>:
 80002b0:	b510      	push	{r4, lr}
 80002b2:	4c05      	ldr	r4, [pc, #20]	@ (80002c8 <__do_global_dtors_aux+0x18>)
 80002b4:	7823      	ldrb	r3, [r4, #0]
 80002b6:	b933      	cbnz	r3, 80002c6 <__do_global_dtors_aux+0x16>
 80002b8:	4b04      	ldr	r3, [pc, #16]	@ (80002cc <__do_global_dtors_aux+0x1c>)
 80002ba:	b113      	cbz	r3, 80002c2 <__do_global_dtors_aux+0x12>
 80002bc:	4804      	ldr	r0, [pc, #16]	@ (80002d0 <__do_global_dtors_aux+0x20>)
 80002be:	f3af 8000 	nop.w
 80002c2:	2301      	movs	r3, #1
 80002c4:	7023      	strb	r3, [r4, #0]
 80002c6:	bd10      	pop	{r4, pc}
 80002c8:	2400006c 	.word	0x2400006c
 80002cc:	00000000 	.word	0x00000000
 80002d0:	08005c68 	.word	0x08005c68

080002d4 <frame_dummy>:
 80002d4:	b508      	push	{r3, lr}
 80002d6:	4b03      	ldr	r3, [pc, #12]	@ (80002e4 <frame_dummy+0x10>)
 80002d8:	b11b      	cbz	r3, 80002e2 <frame_dummy+0xe>
 80002da:	4903      	ldr	r1, [pc, #12]	@ (80002e8 <frame_dummy+0x14>)
 80002dc:	4803      	ldr	r0, [pc, #12]	@ (80002ec <frame_dummy+0x18>)
 80002de:	f3af 8000 	nop.w
 80002e2:	bd08      	pop	{r3, pc}
 80002e4:	00000000 	.word	0x00000000
 80002e8:	24000070 	.word	0x24000070
 80002ec:	08005c68 	.word	0x08005c68

080002f0 <memchr>:
 80002f0:	f001 01ff 	and.w	r1, r1, #255	@ 0xff
 80002f4:	2a10      	cmp	r2, #16
 80002f6:	db2b      	blt.n	8000350 <memchr+0x60>
 80002f8:	f010 0f07 	tst.w	r0, #7
 80002fc:	d008      	beq.n	8000310 <memchr+0x20>
 80002fe:	f810 3b01 	ldrb.w	r3, [r0], #1
 8000302:	3a01      	subs	r2, #1
 8000304:	428b      	cmp	r3, r1
 8000306:	d02d      	beq.n	8000364 <memchr+0x74>
 8000308:	f010 0f07 	tst.w	r0, #7
 800030c:	b342      	cbz	r2, 8000360 <memchr+0x70>
 800030e:	d1f6      	bne.n	80002fe <memchr+0xe>
 8000310:	b4f0      	push	{r4, r5, r6, r7}
 8000312:	ea41 2101 	orr.w	r1, r1, r1, lsl #8
 8000316:	ea41 4101 	orr.w	r1, r1, r1, lsl #16
 800031a:	f022 0407 	bic.w	r4, r2, #7
 800031e:	f07f 0700 	mvns.w	r7, #0
 8000322:	2300      	movs	r3, #0
 8000324:	e8f0 5602 	ldrd	r5, r6, [r0], #8
 8000328:	3c08      	subs	r4, #8
 800032a:	ea85 0501 	eor.w	r5, r5, r1
 800032e:	ea86 0601 	eor.w	r6, r6, r1
 8000332:	fa85 f547 	uadd8	r5, r5, r7
 8000336:	faa3 f587 	sel	r5, r3, r7
 800033a:	fa86 f647 	uadd8	r6, r6, r7
 800033e:	faa5 f687 	sel	r6, r5, r7
 8000342:	b98e      	cbnz	r6, 8000368 <memchr+0x78>
 8000344:	d1ee      	bne.n	8000324 <memchr+0x34>
 8000346:	bcf0      	pop	{r4, r5, r6, r7}
 8000348:	f001 01ff 	and.w	r1, r1, #255	@ 0xff
 800034c:	f002 0207 	and.w	r2, r2, #7
 8000350:	b132      	cbz	r2, 8000360 <memchr+0x70>
 8000352:	f810 3b01 	ldrb.w	r3, [r0], #1
 8000356:	3a01      	subs	r2, #1
 8000358:	ea83 0301 	eor.w	r3, r3, r1
 800035c:	b113      	cbz	r3, 8000364 <memchr+0x74>
 800035e:	d1f8      	bne.n	8000352 <memchr+0x62>
 8000360:	2000      	movs	r0, #0
 8000362:	4770      	bx	lr
 8000364:	3801      	subs	r0, #1
 8000366:	4770      	bx	lr
 8000368:	2d00      	cmp	r5, #0
 800036a:	bf06      	itte	eq
 800036c:	4635      	moveq	r5, r6
 800036e:	3803      	subeq	r0, #3
 8000370:	3807      	subne	r0, #7
 8000372:	f015 0f01 	tst.w	r5, #1
 8000376:	d107      	bne.n	8000388 <memchr+0x98>
 8000378:	3001      	adds	r0, #1
 800037a:	f415 7f80 	tst.w	r5, #256	@ 0x100
 800037e:	bf02      	ittt	eq
 8000380:	3001      	addeq	r0, #1
 8000382:	f415 3fc0 	tsteq.w	r5, #98304	@ 0x18000
 8000386:	3001      	addeq	r0, #1
 8000388:	bcf0      	pop	{r4, r5, r6, r7}
 800038a:	3801      	subs	r0, #1
 800038c:	4770      	bx	lr
 800038e:	bf00      	nop

08000390 <__aeabi_uldivmod>:
 8000390:	b953      	cbnz	r3, 80003a8 <__aeabi_uldivmod+0x18>
 8000392:	b94a      	cbnz	r2, 80003a8 <__aeabi_uldivmod+0x18>
 8000394:	2900      	cmp	r1, #0
 8000396:	bf08      	it	eq
 8000398:	2800      	cmpeq	r0, #0
 800039a:	bf1c      	itt	ne
 800039c:	f04f 31ff 	movne.w	r1, #4294967295
 80003a0:	f04f 30ff 	movne.w	r0, #4294967295
 80003a4:	f000 b96a 	b.w	800067c <__aeabi_idiv0>
 80003a8:	f1ad 0c08 	sub.w	ip, sp, #8
 80003ac:	e96d ce04 	strd	ip, lr, [sp, #-16]!
 80003b0:	f000 f806 	bl	80003c0 <__udivmoddi4>
 80003b4:	f8dd e004 	ldr.w	lr, [sp, #4]
 80003b8:	e9dd 2302 	ldrd	r2, r3, [sp, #8]
 80003bc:	b004      	add	sp, #16
 80003be:	4770      	bx	lr

080003c0 <__udivmoddi4>:
 80003c0:	e92d 47f0 	stmdb	sp!, {r4, r5, r6, r7, r8, r9, sl, lr}
 80003c4:	9d08      	ldr	r5, [sp, #32]
 80003c6:	460c      	mov	r4, r1
 80003c8:	2b00      	cmp	r3, #0
 80003ca:	d14e      	bne.n	800046a <__udivmoddi4+0xaa>
 80003cc:	4694      	mov	ip, r2
 80003ce:	458c      	cmp	ip, r1
 80003d0:	4686      	mov	lr, r0
 80003d2:	fab2 f282 	clz	r2, r2
 80003d6:	d962      	bls.n	800049e <__udivmoddi4+0xde>
 80003d8:	b14a      	cbz	r2, 80003ee <__udivmoddi4+0x2e>
 80003da:	f1c2 0320 	rsb	r3, r2, #32
 80003de:	4091      	lsls	r1, r2
 80003e0:	fa20 f303 	lsr.w	r3, r0, r3
 80003e4:	fa0c fc02 	lsl.w	ip, ip, r2
 80003e8:	4319      	orrs	r1, r3
 80003ea:	fa00 fe02 	lsl.w	lr, r0, r2
 80003ee:	ea4f 471c 	mov.w	r7, ip, lsr #16
 80003f2:	fa1f f68c 	uxth.w	r6, ip
 80003f6:	fbb1 f4f7 	udiv	r4, r1, r7
 80003fa:	ea4f 431e 	mov.w	r3, lr, lsr #16
 80003fe:	fb07 1114 	mls	r1, r7, r4, r1
 8000402:	ea43 4301 	orr.w	r3, r3, r1, lsl #16
 8000406:	fb04 f106 	mul.w	r1, r4, r6
 800040a:	4299      	cmp	r1, r3
 800040c:	d90a      	bls.n	8000424 <__udivmoddi4+0x64>
 800040e:	eb1c 0303 	adds.w	r3, ip, r3
 8000412:	f104 30ff 	add.w	r0, r4, #4294967295
 8000416:	f080 8112 	bcs.w	800063e <__udivmoddi4+0x27e>
 800041a:	4299      	cmp	r1, r3
 800041c:	f240 810f 	bls.w	800063e <__udivmoddi4+0x27e>
 8000420:	3c02      	subs	r4, #2
 8000422:	4463      	add	r3, ip
 8000424:	1a59      	subs	r1, r3, r1
 8000426:	fa1f f38e 	uxth.w	r3, lr
 800042a:	fbb1 f0f7 	udiv	r0, r1, r7
 800042e:	fb07 1110 	mls	r1, r7, r0, r1
 8000432:	ea43 4301 	orr.w	r3, r3, r1, lsl #16
 8000436:	fb00 f606 	mul.w	r6, r0, r6
 800043a:	429e      	cmp	r6, r3
 800043c:	d90a      	bls.n	8000454 <__udivmoddi4+0x94>
 800043e:	eb1c 0303 	adds.w	r3, ip, r3
 8000442:	f100 31ff 	add.w	r1, r0, #4294967295
 8000446:	f080 80fc 	bcs.w	8000642 <__udivmoddi4+0x282>
 800044a:	429e      	cmp	r6, r3
 800044c:	f240 80f9 	bls.w	8000642 <__udivmoddi4+0x282>
 8000450:	4463      	add	r3, ip
 8000452:	3802      	subs	r0, #2
 8000454:	1b9b      	subs	r3, r3, r6
 8000456:	ea40 4004 	orr.w	r0, r0, r4, lsl #16
 800045a:	2100      	movs	r1, #0
 800045c:	b11d      	cbz	r5, 8000466 <__udivmoddi4+0xa6>
 800045e:	40d3      	lsrs	r3, r2
 8000460:	2200      	movs	r2, #0
 8000462:	e9c5 3200 	strd	r3, r2, [r5]
 8000466:	e8bd 87f0 	ldmia.w	sp!, {r4, r5, r6, r7, r8, r9, sl, pc}
 800046a:	428b      	cmp	r3, r1
 800046c:	d905      	bls.n	800047a <__udivmoddi4+0xba>
 800046e:	b10d      	cbz	r5, 8000474 <__udivmoddi4+0xb4>
 8000470:	e9c5 0100 	strd	r0, r1, [r5]
 8000474:	2100      	movs	r1, #0
 8000476:	4608      	mov	r0, r1
 8000478:	e7f5      	b.n	8000466 <__udivmoddi4+0xa6>
 800047a:	fab3 f183 	clz	r1, r3
 800047e:	2900      	cmp	r1, #0
 8000480:	d146      	bne.n	8000510 <__udivmoddi4+0x150>
 8000482:	42a3      	cmp	r3, r4
 8000484:	d302      	bcc.n	800048c <__udivmoddi4+0xcc>
 8000486:	4290      	cmp	r0, r2
 8000488:	f0c0 80f0 	bcc.w	800066c <__udivmoddi4+0x2ac>
 800048c:	1a86      	subs	r6, r0, r2
 800048e:	eb64 0303 	sbc.w	r3, r4, r3
 8000492:	2001      	movs	r0, #1
 8000494:	2d00      	cmp	r5, #0
 8000496:	d0e6      	beq.n	8000466 <__udivmoddi4+0xa6>
 8000498:	e9c5 6300 	strd	r6, r3, [r5]
 800049c:	e7e3      	b.n	8000466 <__udivmoddi4+0xa6>
 800049e:	2a00      	cmp	r2, #0
 80004a0:	f040 8090 	bne.w	80005c4 <__udivmoddi4+0x204>
 80004a4:	eba1 040c 	sub.w	r4, r1, ip
 80004a8:	ea4f 481c 	mov.w	r8, ip, lsr #16
 80004ac:	fa1f f78c 	uxth.w	r7, ip
 80004b0:	2101      	movs	r1, #1
 80004b2:	fbb4 f6f8 	udiv	r6, r4, r8
 80004b6:	ea4f 431e 	mov.w	r3, lr, lsr #16
 80004ba:	fb08 4416 	mls	r4, r8, r6, r4
 80004be:	ea43 4304 	orr.w	r3, r3, r4, lsl #16
 80004c2:	fb07 f006 	mul.w	r0, r7, r6
 80004c6:	4298      	cmp	r0, r3
 80004c8:	d908      	bls.n	80004dc <__udivmoddi4+0x11c>
 80004ca:	eb1c 0303 	adds.w	r3, ip, r3
 80004ce:	f106 34ff 	add.w	r4, r6, #4294967295
 80004d2:	d202      	bcs.n	80004da <__udivmoddi4+0x11a>
 80004d4:	4298      	cmp	r0, r3
 80004d6:	f200 80cd 	bhi.w	8000674 <__udivmoddi4+0x2b4>
 80004da:	4626      	mov	r6, r4
 80004dc:	1a1c      	subs	r4, r3, r0
 80004de:	fa1f f38e 	uxth.w	r3, lr
 80004e2:	fbb4 f0f8 	udiv	r0, r4, r8
 80004e6:	fb08 4410 	mls	r4, r8, r0, r4
 80004ea:	ea43 4304 	orr.w	r3, r3, r4, lsl #16
 80004ee:	fb00 f707 	mul.w	r7, r0, r7
 80004f2:	429f      	cmp	r7, r3
 80004f4:	d908      	bls.n	8000508 <__udivmoddi4+0x148>
 80004f6:	eb1c 0303 	adds.w	r3, ip, r3
 80004fa:	f100 34ff 	add.w	r4, r0, #4294967295
 80004fe:	d202      	bcs.n	8000506 <__udivmoddi4+0x146>
 8000500:	429f      	cmp	r7, r3
 8000502:	f200 80b0 	bhi.w	8000666 <__udivmoddi4+0x2a6>
 8000506:	4620      	mov	r0, r4
 8000508:	1bdb      	subs	r3, r3, r7
 800050a:	ea40 4006 	orr.w	r0, r0, r6, lsl #16
 800050e:	e7a5      	b.n	800045c <__udivmoddi4+0x9c>
 8000510:	f1c1 0620 	rsb	r6, r1, #32
 8000514:	408b      	lsls	r3, r1
 8000516:	fa22 f706 	lsr.w	r7, r2, r6
 800051a:	431f      	orrs	r7, r3
 800051c:	fa20 fc06 	lsr.w	ip, r0, r6
 8000520:	fa04 f301 	lsl.w	r3, r4, r1
 8000524:	ea43 030c 	orr.w	r3, r3, ip
 8000528:	40f4      	lsrs	r4, r6
 800052a:	fa00 f801 	lsl.w	r8, r0, r1
 800052e:	0c38      	lsrs	r0, r7, #16
 8000530:	ea4f 4913 	mov.w	r9, r3, lsr #16
 8000534:	fbb4 fef0 	udiv	lr, r4, r0
 8000538:	fa1f fc87 	uxth.w	ip, r7
 800053c:	fb00 441e 	mls	r4, r0, lr, r4
 8000540:	ea49 4404 	orr.w	r4, r9, r4, lsl #16
 8000544:	fb0e f90c 	mul.w	r9, lr, ip
 8000548:	45a1      	cmp	r9, r4
 800054a:	fa02 f201 	lsl.w	r2, r2, r1
 800054e:	d90a      	bls.n	8000566 <__udivmoddi4+0x1a6>
 8000550:	193c      	adds	r4, r7, r4
 8000552:	f10e 3aff 	add.w	sl, lr, #4294967295
 8000556:	f080 8084 	bcs.w	8000662 <__udivmoddi4+0x2a2>
 800055a:	45a1      	cmp	r9, r4
 800055c:	f240 8081 	bls.w	8000662 <__udivmoddi4+0x2a2>
 8000560:	f1ae 0e02 	sub.w	lr, lr, #2
 8000564:	443c      	add	r4, r7
 8000566:	eba4 0409 	sub.w	r4, r4, r9
 800056a:	fa1f f983 	uxth.w	r9, r3
 800056e:	fbb4 f3f0 	udiv	r3, r4, r0
 8000572:	fb00 4413 	mls	r4, r0, r3, r4
 8000576:	ea49 4404 	orr.w	r4, r9, r4, lsl #16
 800057a:	fb03 fc0c 	mul.w	ip, r3, ip
 800057e:	45a4      	cmp	ip, r4
 8000580:	d907      	bls.n	8000592 <__udivmoddi4+0x1d2>
 8000582:	193c      	adds	r4, r7, r4
 8000584:	f103 30ff 	add.w	r0, r3, #4294967295
 8000588:	d267      	bcs.n	800065a <__udivmoddi4+0x29a>
 800058a:	45a4      	cmp	ip, r4
 800058c:	d965      	bls.n	800065a <__udivmoddi4+0x29a>
 800058e:	3b02      	subs	r3, #2
 8000590:	443c      	add	r4, r7
 8000592:	ea43 400e 	orr.w	r0, r3, lr, lsl #16
 8000596:	fba0 9302 	umull	r9, r3, r0, r2
 800059a:	eba4 040c 	sub.w	r4, r4, ip
 800059e:	429c      	cmp	r4, r3
 80005a0:	46ce      	mov	lr, r9
 80005a2:	469c      	mov	ip, r3
 80005a4:	d351      	bcc.n	800064a <__udivmoddi4+0x28a>
 80005a6:	d04e      	beq.n	8000646 <__udivmoddi4+0x286>
 80005a8:	b155      	cbz	r5, 80005c0 <__udivmoddi4+0x200>
 80005aa:	ebb8 030e 	subs.w	r3, r8, lr
 80005ae:	eb64 040c 	sbc.w	r4, r4, ip
 80005b2:	fa04 f606 	lsl.w	r6, r4, r6
 80005b6:	40cb      	lsrs	r3, r1
 80005b8:	431e      	orrs	r6, r3
 80005ba:	40cc      	lsrs	r4, r1
 80005bc:	e9c5 6400 	strd	r6, r4, [r5]
 80005c0:	2100      	movs	r1, #0
 80005c2:	e750      	b.n	8000466 <__udivmoddi4+0xa6>
 80005c4:	f1c2 0320 	rsb	r3, r2, #32
 80005c8:	fa20 f103 	lsr.w	r1, r0, r3
 80005cc:	fa0c fc02 	lsl.w	ip, ip, r2
 80005d0:	fa24 f303 	lsr.w	r3, r4, r3
 80005d4:	4094      	lsls	r4, r2
 80005d6:	430c      	orrs	r4, r1
 80005d8:	ea4f 481c 	mov.w	r8, ip, lsr #16
 80005dc:	fa00 fe02 	lsl.w	lr, r0, r2
 80005e0:	fa1f f78c 	uxth.w	r7, ip
 80005e4:	fbb3 f0f8 	udiv	r0, r3, r8
 80005e8:	fb08 3110 	mls	r1, r8, r0, r3
 80005ec:	0c23      	lsrs	r3, r4, #16
 80005ee:	ea43 4301 	orr.w	r3, r3, r1, lsl #16
 80005f2:	fb00 f107 	mul.w	r1, r0, r7
 80005f6:	4299      	cmp	r1, r3
 80005f8:	d908      	bls.n	800060c <__udivmoddi4+0x24c>
 80005fa:	eb1c 0303 	adds.w	r3, ip, r3
 80005fe:	f100 36ff 	add.w	r6, r0, #4294967295
 8000602:	d22c      	bcs.n	800065e <__udivmoddi4+0x29e>
 8000604:	4299      	cmp	r1, r3
 8000606:	d92a      	bls.n	800065e <__udivmoddi4+0x29e>
 8000608:	3802      	subs	r0, #2
 800060a:	4463      	add	r3, ip
 800060c:	1a5b      	subs	r3, r3, r1
 800060e:	b2a4      	uxth	r4, r4
 8000610:	fbb3 f1f8 	udiv	r1, r3, r8
 8000614:	fb08 3311 	mls	r3, r8, r1, r3
 8000618:	ea44 4403 	orr.w	r4, r4, r3, lsl #16
 800061c:	fb01 f307 	mul.w	r3, r1, r7
 8000620:	42a3      	cmp	r3, r4
 8000622:	d908      	bls.n	8000636 <__udivmoddi4+0x276>
 8000624:	eb1c 0404 	adds.w	r4, ip, r4
 8000628:	f101 36ff 	add.w	r6, r1, #4294967295
 800062c:	d213      	bcs.n	8000656 <__udivmoddi4+0x296>
 800062e:	42a3      	cmp	r3, r4
 8000630:	d911      	bls.n	8000656 <__udivmoddi4+0x296>
 8000632:	3902      	subs	r1, #2
 8000634:	4464      	add	r4, ip
 8000636:	1ae4      	subs	r4, r4, r3
 8000638:	ea41 4100 	orr.w	r1, r1, r0, lsl #16
 800063c:	e739      	b.n	80004b2 <__udivmoddi4+0xf2>
 800063e:	4604      	mov	r4, r0
 8000640:	e6f0      	b.n	8000424 <__udivmoddi4+0x64>
 8000642:	4608      	mov	r0, r1
 8000644:	e706      	b.n	8000454 <__udivmoddi4+0x94>
 8000646:	45c8      	cmp	r8, r9
 8000648:	d2ae      	bcs.n	80005a8 <__udivmoddi4+0x1e8>
 800064a:	ebb9 0e02 	subs.w	lr, r9, r2
 800064e:	eb63 0c07 	sbc.w	ip, r3, r7
 8000652:	3801      	subs	r0, #1
 8000654:	e7a8      	b.n	80005a8 <__udivmoddi4+0x1e8>
 8000656:	4631      	mov	r1, r6
 8000658:	e7ed      	b.n	8000636 <__udivmoddi4+0x276>
 800065a:	4603      	mov	r3, r0
 800065c:	e799      	b.n	8000592 <__udivmoddi4+0x1d2>
 800065e:	4630      	mov	r0, r6
 8000660:	e7d4      	b.n	800060c <__udivmoddi4+0x24c>
 8000662:	46d6      	mov	lr, sl
 8000664:	e77f      	b.n	8000566 <__udivmoddi4+0x1a6>
 8000666:	4463      	add	r3, ip
 8000668:	3802      	subs	r0, #2
 800066a:	e74d      	b.n	8000508 <__udivmoddi4+0x148>
 800066c:	4606      	mov	r6, r0
 800066e:	4623      	mov	r3, r4
 8000670:	4608      	mov	r0, r1
 8000672:	e70f      	b.n	8000494 <__udivmoddi4+0xd4>
 8000674:	3e02      	subs	r6, #2
 8000676:	4463      	add	r3, ip
 8000678:	e730      	b.n	80004dc <__udivmoddi4+0x11c>
 800067a:	bf00      	nop

0800067c <__aeabi_idiv0>:
 800067c:	4770      	bx	lr
 800067e:	bf00      	nop

08000680 <getdata_frombuffer>:
 8000680:	e92d 43f8 	stmdb	sp!, {r3, r4, r5, r6, r7, r8, r9, lr}
 8000684:	4c18      	ldr	r4, [pc, #96]	@ (80006e8 <getdata_frombuffer+0x68>)
 8000686:	460d      	mov	r5, r1
 8000688:	4b18      	ldr	r3, [pc, #96]	@ (80006ec <getdata_frombuffer+0x6c>)
 800068a:	4680      	mov	r8, r0
 800068c:	6821      	ldr	r1, [r4, #0]
 800068e:	681a      	ldr	r2, [r3, #0]
 8000690:	4291      	cmp	r1, r2
 8000692:	d20a      	bcs.n	80006aa <getdata_frombuffer+0x2a>
 8000694:	6823      	ldr	r3, [r4, #0]
 8000696:	462a      	mov	r2, r5
 8000698:	4915      	ldr	r1, [pc, #84]	@ (80006f0 <getdata_frombuffer+0x70>)
 800069a:	4419      	add	r1, r3
 800069c:	f004 fdcd 	bl	800523a <memcpy>
 80006a0:	6823      	ldr	r3, [r4, #0]
 80006a2:	442b      	add	r3, r5
 80006a4:	6023      	str	r3, [r4, #0]
 80006a6:	e8bd 83f8 	ldmia.w	sp!, {r3, r4, r5, r6, r7, r8, r9, pc}
 80006aa:	6822      	ldr	r2, [r4, #0]
 80006ac:	681b      	ldr	r3, [r3, #0]
 80006ae:	429a      	cmp	r2, r3
 80006b0:	d9f9      	bls.n	80006a6 <getdata_frombuffer+0x26>
 80006b2:	6826      	ldr	r6, [r4, #0]
 80006b4:	f8df 9038 	ldr.w	r9, [pc, #56]	@ 80006f0 <getdata_frombuffer+0x70>
 80006b8:	f5c6 777a 	rsb	r7, r6, #1000	@ 0x3e8
 80006bc:	6821      	ldr	r1, [r4, #0]
 80006be:	42bd      	cmp	r5, r7
 80006c0:	d802      	bhi.n	80006c8 <getdata_frombuffer+0x48>
 80006c2:	462a      	mov	r2, r5
 80006c4:	4449      	add	r1, r9
 80006c6:	e7e9      	b.n	800069c <getdata_frombuffer+0x1c>
 80006c8:	f5a6 767a 	sub.w	r6, r6, #1000	@ 0x3e8
 80006cc:	463a      	mov	r2, r7
 80006ce:	4449      	add	r1, r9
 80006d0:	442e      	add	r6, r5
 80006d2:	f004 fdb2 	bl	800523a <memcpy>
 80006d6:	4649      	mov	r1, r9
 80006d8:	eb08 0007 	add.w	r0, r8, r7
 80006dc:	4632      	mov	r2, r6
 80006de:	f004 fdac 	bl	800523a <memcpy>
 80006e2:	6026      	str	r6, [r4, #0]
 80006e4:	e7df      	b.n	80006a6 <getdata_frombuffer+0x26>
 80006e6:	bf00      	nop
 80006e8:	24000088 	.word	0x24000088
 80006ec:	2400008c 	.word	0x2400008c
 80006f0:	240000ba 	.word	0x240000ba

080006f4 <writedata_tobuffer>:
 80006f4:	e92d 41f0 	stmdb	sp!, {r4, r5, r6, r7, r8, lr}
 80006f8:	4c1a      	ldr	r4, [pc, #104]	@ (8000764 <writedata_tobuffer+0x70>)
 80006fa:	4607      	mov	r7, r0
 80006fc:	460d      	mov	r5, r1
 80006fe:	4a1a      	ldr	r2, [pc, #104]	@ (8000768 <writedata_tobuffer+0x74>)
 8000700:	6823      	ldr	r3, [r4, #0]
 8000702:	440b      	add	r3, r1
 8000704:	f5b3 7f7a 	cmp.w	r3, #1000	@ 0x3e8
 8000708:	d211      	bcs.n	800072e <writedata_tobuffer+0x3a>
 800070a:	6823      	ldr	r3, [r4, #0]
 800070c:	6812      	ldr	r2, [r2, #0]
 800070e:	440b      	add	r3, r1
 8000710:	4293      	cmp	r3, r2
 8000712:	d024      	beq.n	800075e <writedata_tobuffer+0x6a>
 8000714:	6823      	ldr	r3, [r4, #0]
 8000716:	460a      	mov	r2, r1
 8000718:	4601      	mov	r1, r0
 800071a:	4814      	ldr	r0, [pc, #80]	@ (800076c <writedata_tobuffer+0x78>)
 800071c:	4418      	add	r0, r3
 800071e:	f004 fd8c 	bl	800523a <memcpy>
 8000722:	6823      	ldr	r3, [r4, #0]
 8000724:	442b      	add	r3, r5
 8000726:	6023      	str	r3, [r4, #0]
 8000728:	2001      	movs	r0, #1
 800072a:	e8bd 81f0 	ldmia.w	sp!, {r4, r5, r6, r7, r8, pc}
 800072e:	6826      	ldr	r6, [r4, #0]
 8000730:	f5a6 737a 	sub.w	r3, r6, #1000	@ 0x3e8
 8000734:	441d      	add	r5, r3
 8000736:	6813      	ldr	r3, [r2, #0]
 8000738:	429d      	cmp	r5, r3
 800073a:	d210      	bcs.n	800075e <writedata_tobuffer+0x6a>
 800073c:	f5c6 767a 	rsb	r6, r6, #1000	@ 0x3e8
 8000740:	6820      	ldr	r0, [r4, #0]
 8000742:	f8df 8028 	ldr.w	r8, [pc, #40]	@ 800076c <writedata_tobuffer+0x78>
 8000746:	4639      	mov	r1, r7
 8000748:	4632      	mov	r2, r6
 800074a:	4440      	add	r0, r8
 800074c:	f004 fd75 	bl	800523a <memcpy>
 8000750:	462a      	mov	r2, r5
 8000752:	19b9      	adds	r1, r7, r6
 8000754:	4640      	mov	r0, r8
 8000756:	f004 fd70 	bl	800523a <memcpy>
 800075a:	6025      	str	r5, [r4, #0]
 800075c:	e7e4      	b.n	8000728 <writedata_tobuffer+0x34>
 800075e:	2000      	movs	r0, #0
 8000760:	e7e3      	b.n	800072a <writedata_tobuffer+0x36>
 8000762:	bf00      	nop
 8000764:	2400008c 	.word	0x2400008c
 8000768:	24000088 	.word	0x24000088
 800076c:	240000ba 	.word	0x240000ba

08000770 <MX_GPIO_Init>:
 8000770:	b510      	push	{r4, lr}
 8000772:	2214      	movs	r2, #20
 8000774:	b08a      	sub	sp, #40	@ 0x28
 8000776:	2100      	movs	r1, #0
 8000778:	4c23      	ldr	r4, [pc, #140]	@ (8000808 <MX_GPIO_Init+0x98>)
 800077a:	eb0d 0002 	add.w	r0, sp, r2
 800077e:	f004 fce1 	bl	8005144 <memset>
 8000782:	4b22      	ldr	r3, [pc, #136]	@ (800080c <MX_GPIO_Init+0x9c>)
 8000784:	4620      	mov	r0, r4
 8000786:	2101      	movs	r1, #1
 8000788:	f8d3 2140 	ldr.w	r2, [r3, #320]	@ 0x140
 800078c:	f042 0204 	orr.w	r2, r2, #4
 8000790:	f8c3 2140 	str.w	r2, [r3, #320]	@ 0x140
 8000794:	f8d3 2140 	ldr.w	r2, [r3, #320]	@ 0x140
 8000798:	f002 0204 	and.w	r2, r2, #4
 800079c:	9201      	str	r2, [sp, #4]
 800079e:	9a01      	ldr	r2, [sp, #4]
 80007a0:	f8d3 2140 	ldr.w	r2, [r3, #320]	@ 0x140
 80007a4:	f042 0280 	orr.w	r2, r2, #128	@ 0x80
 80007a8:	f8c3 2140 	str.w	r2, [r3, #320]	@ 0x140
 80007ac:	f8d3 2140 	ldr.w	r2, [r3, #320]	@ 0x140
 80007b0:	f002 0280 	and.w	r2, r2, #128	@ 0x80
 80007b4:	9202      	str	r2, [sp, #8]
 80007b6:	9a02      	ldr	r2, [sp, #8]
 80007b8:	f8d3 2140 	ldr.w	r2, [r3, #320]	@ 0x140
 80007bc:	f042 0202 	orr.w	r2, r2, #2
 80007c0:	f8c3 2140 	str.w	r2, [r3, #320]	@ 0x140
 80007c4:	f8d3 2140 	ldr.w	r2, [r3, #320]	@ 0x140
 80007c8:	f002 0202 	and.w	r2, r2, #2
 80007cc:	9203      	str	r2, [sp, #12]
 80007ce:	9a03      	ldr	r2, [sp, #12]
 80007d0:	f8d3 2140 	ldr.w	r2, [r3, #320]	@ 0x140
 80007d4:	f042 0208 	orr.w	r2, r2, #8
 80007d8:	f8c3 2140 	str.w	r2, [r3, #320]	@ 0x140
 80007dc:	2200      	movs	r2, #0
 80007de:	f8d3 3140 	ldr.w	r3, [r3, #320]	@ 0x140
 80007e2:	f003 0308 	and.w	r3, r3, #8
 80007e6:	9304      	str	r3, [sp, #16]
 80007e8:	9b04      	ldr	r3, [sp, #16]
 80007ea:	f001 fe09 	bl	8002400 <HAL_GPIO_WritePin>
 80007ee:	2301      	movs	r3, #1
 80007f0:	a905      	add	r1, sp, #20
 80007f2:	4620      	mov	r0, r4
 80007f4:	e9cd 3305 	strd	r3, r3, [sp, #20]
 80007f8:	2300      	movs	r3, #0
 80007fa:	e9cd 3307 	strd	r3, r3, [sp, #28]
 80007fe:	f001 fd17 	bl	8002230 <HAL_GPIO_Init>
 8000802:	b00a      	add	sp, #40	@ 0x28
 8000804:	bd10      	pop	{r4, pc}
 8000806:	bf00      	nop
 8000808:	58020400 	.word	0x58020400
 800080c:	58024400 	.word	0x58024400

08000810 <__io_putchar>:
 8000810:	b507      	push	{r0, r1, r2, lr}
 8000812:	f64f 73ff 	movw	r3, #65535	@ 0xffff
 8000816:	9001      	str	r0, [sp, #4]
 8000818:	2201      	movs	r2, #1
 800081a:	a901      	add	r1, sp, #4
 800081c:	4803      	ldr	r0, [pc, #12]	@ (800082c <__io_putchar+0x1c>)
 800081e:	f004 f880 	bl	8004922 <HAL_UART_Transmit>
 8000822:	9801      	ldr	r0, [sp, #4]
 8000824:	b003      	add	sp, #12
 8000826:	f85d fb04 	ldr.w	pc, [sp], #4
 800082a:	bf00      	nop
 800082c:	240004a8 	.word	0x240004a8

08000830 <decode>:
 8000830:	b510      	push	{r4, lr}
 8000832:	4c0d      	ldr	r4, [pc, #52]	@ (8000868 <decode+0x38>)
 8000834:	b086      	sub	sp, #24
 8000836:	2102      	movs	r1, #2
 8000838:	4620      	mov	r0, r4
 800083a:	f7ff ff21 	bl	8000680 <getdata_frombuffer>
 800083e:	2300      	movs	r3, #0
 8000840:	4621      	mov	r1, r4
 8000842:	a802      	add	r0, sp, #8
 8000844:	2202      	movs	r2, #2
 8000846:	9301      	str	r3, [sp, #4]
 8000848:	f000 faf8 	bl	8000e3c <pb_istream_from_buffer>
 800084c:	aa01      	add	r2, sp, #4
 800084e:	4907      	ldr	r1, [pc, #28]	@ (800086c <decode+0x3c>)
 8000850:	a802      	add	r0, sp, #8
 8000852:	f001 f803 	bl	800185c <pb_decode>
 8000856:	4a06      	ldr	r2, [pc, #24]	@ (8000870 <decode+0x40>)
 8000858:	4b06      	ldr	r3, [pc, #24]	@ (8000874 <decode+0x44>)
 800085a:	7018      	strb	r0, [r3, #0]
 800085c:	6813      	ldr	r3, [r2, #0]
 800085e:	9801      	ldr	r0, [sp, #4]
 8000860:	3b01      	subs	r3, #1
 8000862:	6013      	str	r3, [r2, #0]
 8000864:	b006      	add	sp, #24
 8000866:	bd10      	pop	{r4, pc}
 8000868:	2400009a 	.word	0x2400009a
 800086c:	08005c80 	.word	0x08005c80
 8000870:	24000094 	.word	0x24000094
 8000874:	24000098 	.word	0x24000098

08000878 <execute>:
 8000878:	4b06      	ldr	r3, [pc, #24]	@ (8000894 <execute+0x1c>)
 800087a:	4602      	mov	r2, r0
 800087c:	781b      	ldrb	r3, [r3, #0]
 800087e:	b13b      	cbz	r3, 8000890 <execute+0x18>
 8000880:	2801      	cmp	r0, #1
 8000882:	d103      	bne.n	800088c <execute+0x14>
 8000884:	2101      	movs	r1, #1
 8000886:	4804      	ldr	r0, [pc, #16]	@ (8000898 <execute+0x20>)
 8000888:	f001 bdba 	b.w	8002400 <HAL_GPIO_WritePin>
 800088c:	2800      	cmp	r0, #0
 800088e:	d0f9      	beq.n	8000884 <execute+0xc>
 8000890:	4770      	bx	lr
 8000892:	bf00      	nop
 8000894:	24000098 	.word	0x24000098
 8000898:	58020400 	.word	0x58020400

0800089c <HAL_UART_RxCpltCallback>:
 800089c:	6802      	ldr	r2, [r0, #0]
 800089e:	b538      	push	{r3, r4, r5, lr}
 80008a0:	4b22      	ldr	r3, [pc, #136]	@ (800092c <HAL_UART_RxCpltCallback+0x90>)
 80008a2:	429a      	cmp	r2, r3
 80008a4:	d141      	bne.n	800092a <HAL_UART_RxCpltCallback+0x8e>
 80008a6:	4a22      	ldr	r2, [pc, #136]	@ (8000930 <HAL_UART_RxCpltCallback+0x94>)
 80008a8:	7813      	ldrb	r3, [r2, #0]
 80008aa:	2bff      	cmp	r3, #255	@ 0xff
 80008ac:	4b21      	ldr	r3, [pc, #132]	@ (8000934 <HAL_UART_RxCpltCallback+0x98>)
 80008ae:	d108      	bne.n	80008c2 <HAL_UART_RxCpltCallback+0x26>
 80008b0:	2201      	movs	r2, #1
 80008b2:	701a      	strb	r2, [r3, #0]
 80008b4:	2201      	movs	r2, #1
 80008b6:	491e      	ldr	r1, [pc, #120]	@ (8000930 <HAL_UART_RxCpltCallback+0x94>)
 80008b8:	481f      	ldr	r0, [pc, #124]	@ (8000938 <HAL_UART_RxCpltCallback+0x9c>)
 80008ba:	e8bd 4038 	ldmia.w	sp!, {r3, r4, r5, lr}
 80008be:	f004 b995 	b.w	8004bec <HAL_UART_Receive_IT>
 80008c2:	7819      	ldrb	r1, [r3, #0]
 80008c4:	2901      	cmp	r1, #1
 80008c6:	d10a      	bne.n	80008de <HAL_UART_RxCpltCallback+0x42>
 80008c8:	7811      	ldrb	r1, [r2, #0]
 80008ca:	2908      	cmp	r1, #8
 80008cc:	d107      	bne.n	80008de <HAL_UART_RxCpltCallback+0x42>
 80008ce:	7819      	ldrb	r1, [r3, #0]
 80008d0:	7812      	ldrb	r2, [r2, #0]
 80008d2:	3901      	subs	r1, #1
 80008d4:	4819      	ldr	r0, [pc, #100]	@ (800093c <HAL_UART_RxCpltCallback+0xa0>)
 80008d6:	b2d2      	uxtb	r2, r2
 80008d8:	5442      	strb	r2, [r0, r1]
 80008da:	2202      	movs	r2, #2
 80008dc:	e7e9      	b.n	80008b2 <HAL_UART_RxCpltCallback+0x16>
 80008de:	7819      	ldrb	r1, [r3, #0]
 80008e0:	2901      	cmp	r1, #1
 80008e2:	d9e7      	bls.n	80008b4 <HAL_UART_RxCpltCallback+0x18>
 80008e4:	7819      	ldrb	r1, [r3, #0]
 80008e6:	4c15      	ldr	r4, [pc, #84]	@ (800093c <HAL_UART_RxCpltCallback+0xa0>)
 80008e8:	2902      	cmp	r1, #2
 80008ea:	7819      	ldrb	r1, [r3, #0]
 80008ec:	7812      	ldrb	r2, [r2, #0]
 80008ee:	f101 31ff 	add.w	r1, r1, #4294967295
 80008f2:	b2d2      	uxtb	r2, r2
 80008f4:	5462      	strb	r2, [r4, r1]
 80008f6:	d003      	beq.n	8000900 <HAL_UART_RxCpltCallback+0x64>
 80008f8:	781a      	ldrb	r2, [r3, #0]
 80008fa:	3201      	adds	r2, #1
 80008fc:	b2d2      	uxtb	r2, r2
 80008fe:	e7d8      	b.n	80008b2 <HAL_UART_RxCpltCallback+0x16>
 8000900:	2200      	movs	r2, #0
 8000902:	4d0f      	ldr	r5, [pc, #60]	@ (8000940 <HAL_UART_RxCpltCallback+0xa4>)
 8000904:	701a      	strb	r2, [r3, #0]
 8000906:	2102      	movs	r1, #2
 8000908:	4620      	mov	r0, r4
 800090a:	f7ff fef3 	bl	80006f4 <writedata_tobuffer>
 800090e:	b120      	cbz	r0, 800091a <HAL_UART_RxCpltCallback+0x7e>
 8000910:	4a0c      	ldr	r2, [pc, #48]	@ (8000944 <HAL_UART_RxCpltCallback+0xa8>)
 8000912:	6813      	ldr	r3, [r2, #0]
 8000914:	3301      	adds	r3, #1
 8000916:	6013      	str	r3, [r2, #0]
 8000918:	e7cc      	b.n	80008b4 <HAL_UART_RxCpltCallback+0x18>
 800091a:	f7ff ff89 	bl	8000830 <decode>
 800091e:	f7ff ffab 	bl	8000878 <execute>
 8000922:	4628      	mov	r0, r5
 8000924:	f004 fb2e 	bl	8004f84 <puts>
 8000928:	e7ed      	b.n	8000906 <HAL_UART_RxCpltCallback+0x6a>
 800092a:	bd38      	pop	{r3, r4, r5, pc}
 800092c:	40004800 	.word	0x40004800
 8000930:	24000099 	.word	0x24000099
 8000934:	24000090 	.word	0x24000090
 8000938:	240004a8 	.word	0x240004a8
 800093c:	2400009a 	.word	0x2400009a
 8000940:	08005ca4 	.word	0x08005ca4
 8000944:	24000094 	.word	0x24000094

08000948 <SystemClock_Config>:
 8000948:	b510      	push	{r4, lr}
 800094a:	b09c      	sub	sp, #112	@ 0x70
 800094c:	224c      	movs	r2, #76	@ 0x4c
 800094e:	2100      	movs	r1, #0
 8000950:	a809      	add	r0, sp, #36	@ 0x24
 8000952:	f004 fbf7 	bl	8005144 <memset>
 8000956:	2220      	movs	r2, #32
 8000958:	2100      	movs	r1, #0
 800095a:	a801      	add	r0, sp, #4
 800095c:	f004 fbf2 	bl	8005144 <memset>
 8000960:	4b21      	ldr	r3, [pc, #132]	@ (80009e8 <SystemClock_Config+0xa0>)
 8000962:	f04f 32ff 	mov.w	r2, #4294967295
 8000966:	2004      	movs	r0, #4
 8000968:	f8c3 20b0 	str.w	r2, [r3, #176]	@ 0xb0
 800096c:	f001 fd4e 	bl	800240c <HAL_PWREx_ConfigSupply>
 8000970:	2300      	movs	r3, #0
 8000972:	9300      	str	r3, [sp, #0]
 8000974:	4b1d      	ldr	r3, [pc, #116]	@ (80009ec <SystemClock_Config+0xa4>)
 8000976:	699a      	ldr	r2, [r3, #24]
 8000978:	f442 4240 	orr.w	r2, r2, #49152	@ 0xc000
 800097c:	619a      	str	r2, [r3, #24]
 800097e:	699a      	ldr	r2, [r3, #24]
 8000980:	f402 4240 	and.w	r2, r2, #49152	@ 0xc000
 8000984:	9200      	str	r2, [sp, #0]
 8000986:	9a00      	ldr	r2, [sp, #0]
 8000988:	699a      	ldr	r2, [r3, #24]
 800098a:	0491      	lsls	r1, r2, #18
 800098c:	d5fc      	bpl.n	8000988 <SystemClock_Config+0x40>
 800098e:	2302      	movs	r3, #2
 8000990:	2240      	movs	r2, #64	@ 0x40
 8000992:	2104      	movs	r1, #4
 8000994:	2008      	movs	r0, #8
 8000996:	2401      	movs	r4, #1
 8000998:	9309      	str	r3, [sp, #36]	@ 0x24
 800099a:	9312      	str	r3, [sp, #72]	@ 0x48
 800099c:	e9cd 0315 	strd	r0, r3, [sp, #84]	@ 0x54
 80009a0:	e9cd 420c 	strd	r4, r2, [sp, #48]	@ 0x30
 80009a4:	e9cd 1317 	strd	r1, r3, [sp, #92]	@ 0x5c
 80009a8:	2200      	movs	r2, #0
 80009aa:	230c      	movs	r3, #12
 80009ac:	a809      	add	r0, sp, #36	@ 0x24
 80009ae:	921b      	str	r2, [sp, #108]	@ 0x6c
 80009b0:	e9cd 2113 	strd	r2, r1, [sp, #76]	@ 0x4c
 80009b4:	e9cd 3219 	strd	r3, r2, [sp, #100]	@ 0x64
 80009b8:	f001 fd64 	bl	8002484 <HAL_RCC_OscConfig>
 80009bc:	b108      	cbz	r0, 80009c2 <SystemClock_Config+0x7a>
 80009be:	b672      	cpsid	i
 80009c0:	e7fe      	b.n	80009c0 <SystemClock_Config+0x78>
 80009c2:	223f      	movs	r2, #63	@ 0x3f
 80009c4:	2303      	movs	r3, #3
 80009c6:	4621      	mov	r1, r4
 80009c8:	e9cd 0003 	strd	r0, r0, [sp, #12]
 80009cc:	e9cd 0005 	strd	r0, r0, [sp, #20]
 80009d0:	e9cd 0007 	strd	r0, r0, [sp, #28]
 80009d4:	a801      	add	r0, sp, #4
 80009d6:	e9cd 2301 	strd	r2, r3, [sp, #4]
 80009da:	f002 f89d 	bl	8002b18 <HAL_RCC_ClockConfig>
 80009de:	b108      	cbz	r0, 80009e4 <SystemClock_Config+0x9c>
 80009e0:	b672      	cpsid	i
 80009e2:	e7fe      	b.n	80009e2 <SystemClock_Config+0x9a>
 80009e4:	b01c      	add	sp, #112	@ 0x70
 80009e6:	bd10      	pop	{r4, pc}
 80009e8:	58024400 	.word	0x58024400
 80009ec:	58024800 	.word	0x58024800

080009f0 <main>:
 80009f0:	b530      	push	{r4, r5, lr}
 80009f2:	b085      	sub	sp, #20
 80009f4:	2210      	movs	r2, #16
 80009f6:	2100      	movs	r1, #0
 80009f8:	2500      	movs	r5, #0
 80009fa:	4668      	mov	r0, sp
 80009fc:	2401      	movs	r4, #1
 80009fe:	f004 fba1 	bl	8005144 <memset>
 8000a02:	f001 f995 	bl	8001d30 <HAL_MPU_Disable>
 8000a06:	f248 731f 	movw	r3, #34591	@ 0x871f
 8000a0a:	4668      	mov	r0, sp
 8000a0c:	f8ad 4000 	strh.w	r4, [sp]
 8000a10:	e9cd 5301 	strd	r5, r3, [sp, #4]
 8000a14:	f240 1301 	movw	r3, #257	@ 0x101
 8000a18:	9303      	str	r3, [sp, #12]
 8000a1a:	f001 f9a7 	bl	8001d6c <HAL_MPU_ConfigRegion>
 8000a1e:	2004      	movs	r0, #4
 8000a20:	f001 f994 	bl	8001d4c <HAL_MPU_Enable>
 8000a24:	f001 f8cc 	bl	8001bc0 <HAL_Init>
 8000a28:	f7ff ff8e 	bl	8000948 <SystemClock_Config>
 8000a2c:	f7ff fea0 	bl	8000770 <MX_GPIO_Init>
 8000a30:	f000 fff0 	bl	8001a14 <MX_USART3_UART_Init>
 8000a34:	4622      	mov	r2, r4
 8000a36:	4621      	mov	r1, r4
 8000a38:	4811      	ldr	r0, [pc, #68]	@ (8000a80 <main+0x90>)
 8000a3a:	f001 fce1 	bl	8002400 <HAL_GPIO_WritePin>
 8000a3e:	f44f 707a 	mov.w	r0, #1000	@ 0x3e8
 8000a42:	f001 f8fd 	bl	8001c40 <HAL_Delay>
 8000a46:	462a      	mov	r2, r5
 8000a48:	4621      	mov	r1, r4
 8000a4a:	480d      	ldr	r0, [pc, #52]	@ (8000a80 <main+0x90>)
 8000a4c:	f001 fcd8 	bl	8002400 <HAL_GPIO_WritePin>
 8000a50:	f44f 707a 	mov.w	r0, #1000	@ 0x3e8
 8000a54:	f001 f8f4 	bl	8001c40 <HAL_Delay>
 8000a58:	4d0a      	ldr	r5, [pc, #40]	@ (8000a84 <main+0x94>)
 8000a5a:	4622      	mov	r2, r4
 8000a5c:	4c0a      	ldr	r4, [pc, #40]	@ (8000a88 <main+0x98>)
 8000a5e:	490b      	ldr	r1, [pc, #44]	@ (8000a8c <main+0x9c>)
 8000a60:	480b      	ldr	r0, [pc, #44]	@ (8000a90 <main+0xa0>)
 8000a62:	f004 f8c3 	bl	8004bec <HAL_UART_Receive_IT>
 8000a66:	6821      	ldr	r1, [r4, #0]
 8000a68:	4628      	mov	r0, r5
 8000a6a:	f004 fa23 	bl	8004eb4 <iprintf>
 8000a6e:	6823      	ldr	r3, [r4, #0]
 8000a70:	2b00      	cmp	r3, #0
 8000a72:	d0f8      	beq.n	8000a66 <main+0x76>
 8000a74:	f7ff fedc 	bl	8000830 <decode>
 8000a78:	f7ff fefe 	bl	8000878 <execute>
 8000a7c:	e7f3      	b.n	8000a66 <main+0x76>
 8000a7e:	bf00      	nop
 8000a80:	58020400 	.word	0x58020400
 8000a84:	08005cb4 	.word	0x08005cb4
 8000a88:	24000094 	.word	0x24000094
 8000a8c:	24000099 	.word	0x24000099
 8000a90:	240004a8 	.word	0x240004a8

08000a94 <Error_Handler>:
 8000a94:	b672      	cpsid	i
 8000a96:	e7fe      	b.n	8000a96 <Error_Handler+0x2>

08000a98 <load_descriptor_values>:
 8000a98:	b5f0      	push	{r4, r5, r6, r7, lr}
 8000a9a:	6805      	ldr	r5, [r0, #0]
 8000a9c:	8902      	ldrh	r2, [r0, #8]
 8000a9e:	8a2b      	ldrh	r3, [r5, #16]
 8000aa0:	429a      	cmp	r2, r3
 8000aa2:	d262      	bcs.n	8000b6a <load_descriptor_values+0xd2>
 8000aa4:	682a      	ldr	r2, [r5, #0]
 8000aa6:	8941      	ldrh	r1, [r0, #10]
 8000aa8:	008b      	lsls	r3, r1, #2
 8000aaa:	f852 1021 	ldr.w	r1, [r2, r1, lsl #2]
 8000aae:	f001 0703 	and.w	r7, r1, #3
 8000ab2:	f3c1 2407 	ubfx	r4, r1, #8, #8
 8000ab6:	f3c1 0685 	ubfx	r6, r1, #2, #6
 8000aba:	2f01      	cmp	r7, #1
 8000abc:	7584      	strb	r4, [r0, #22]
 8000abe:	d01e      	beq.n	8000afe <load_descriptor_values+0x66>
 8000ac0:	2f02      	cmp	r7, #2
 8000ac2:	d028      	beq.n	8000b16 <load_descriptor_values+0x7e>
 8000ac4:	2f00      	cmp	r7, #0
 8000ac6:	d132      	bne.n	8000b2e <load_descriptor_values+0x96>
 8000ac8:	f3c1 6303 	ubfx	r3, r1, #24, #4
 8000acc:	f3c1 4707 	ubfx	r7, r1, #16, #8
 8000ad0:	0f0a      	lsrs	r2, r1, #28
 8000ad2:	f04f 0c01 	mov.w	ip, #1
 8000ad6:	8242      	strh	r2, [r0, #18]
 8000ad8:	6842      	ldr	r2, [r0, #4]
 8000ada:	f8a0 c014 	strh.w	ip, [r0, #20]
 8000ade:	8206      	strh	r6, [r0, #16]
 8000ae0:	bb5a      	cbnz	r2, 8000b3a <load_descriptor_values+0xa2>
 8000ae2:	6182      	str	r2, [r0, #24]
 8000ae4:	6202      	str	r2, [r0, #32]
 8000ae6:	f004 040e 	and.w	r4, r4, #14
 8000aea:	2c08      	cmp	r4, #8
 8000aec:	bf09      	itett	eq
 8000aee:	89c2      	ldrheq	r2, [r0, #14]
 8000af0:	2300      	movne	r3, #0
 8000af2:	686b      	ldreq	r3, [r5, #4]
 8000af4:	f853 3022 	ldreq.w	r3, [r3, r2, lsl #2]
 8000af8:	6243      	str	r3, [r0, #36]	@ 0x24
 8000afa:	2001      	movs	r0, #1
 8000afc:	bdf0      	pop	{r4, r5, r6, r7, pc}
 8000afe:	441a      	add	r2, r3
 8000b00:	f3c1 4c0b 	ubfx	ip, r1, #16, #12
 8000b04:	6852      	ldr	r2, [r2, #4]
 8000b06:	0f13      	lsrs	r3, r2, #28
 8000b08:	b297      	uxth	r7, r2
 8000b0a:	f3c2 420b 	ubfx	r2, r2, #16, #12
 8000b0e:	ea46 1683 	orr.w	r6, r6, r3, lsl #6
 8000b12:	0f0b      	lsrs	r3, r1, #28
 8000b14:	e7df      	b.n	8000ad6 <load_descriptor_values+0x3e>
 8000b16:	441a      	add	r2, r3
 8000b18:	ea4f 4c11 	mov.w	ip, r1, lsr #16
 8000b1c:	e9d2 3701 	ldrd	r3, r7, [r2, #4]
 8000b20:	0a19      	lsrs	r1, r3, #8
 8000b22:	8992      	ldrh	r2, [r2, #12]
 8000b24:	b25b      	sxtb	r3, r3
 8000b26:	ea46 1181 	orr.w	r1, r6, r1, lsl #6
 8000b2a:	b28e      	uxth	r6, r1
 8000b2c:	e7d3      	b.n	8000ad6 <load_descriptor_values+0x3e>
 8000b2e:	441a      	add	r2, r3
 8000b30:	e9d2 3701 	ldrd	r3, r7, [r2, #4]
 8000b34:	f8b2 c010 	ldrh.w	ip, [r2, #16]
 8000b38:	e7f2      	b.n	8000b20 <load_descriptor_values+0x88>
 8000b3a:	443a      	add	r2, r7
 8000b3c:	f004 01c0 	and.w	r1, r4, #192	@ 0xc0
 8000b40:	b143      	cbz	r3, 8000b54 <load_descriptor_values+0xbc>
 8000b42:	1ad3      	subs	r3, r2, r3
 8000b44:	2980      	cmp	r1, #128	@ 0x80
 8000b46:	6182      	str	r2, [r0, #24]
 8000b48:	6203      	str	r3, [r0, #32]
 8000b4a:	bf0a      	itet	eq
 8000b4c:	6813      	ldreq	r3, [r2, #0]
 8000b4e:	61c2      	strne	r2, [r0, #28]
 8000b50:	61c3      	streq	r3, [r0, #28]
 8000b52:	e7c8      	b.n	8000ae6 <load_descriptor_values+0x4e>
 8000b54:	f004 0630 	and.w	r6, r4, #48	@ 0x30
 8000b58:	2e20      	cmp	r6, #32
 8000b5a:	d1f3      	bne.n	8000b44 <load_descriptor_values+0xac>
 8000b5c:	2c3f      	cmp	r4, #63	@ 0x3f
 8000b5e:	d901      	bls.n	8000b64 <load_descriptor_values+0xcc>
 8000b60:	2980      	cmp	r1, #128	@ 0x80
 8000b62:	d1ef      	bne.n	8000b44 <load_descriptor_values+0xac>
 8000b64:	f100 0314 	add.w	r3, r0, #20
 8000b68:	e7ec      	b.n	8000b44 <load_descriptor_values+0xac>
 8000b6a:	2000      	movs	r0, #0
 8000b6c:	e7c6      	b.n	8000afc <load_descriptor_values+0x64>

08000b6e <advance_iterator>:
 8000b6e:	8903      	ldrh	r3, [r0, #8]
 8000b70:	6801      	ldr	r1, [r0, #0]
 8000b72:	3301      	adds	r3, #1
 8000b74:	8a0a      	ldrh	r2, [r1, #16]
 8000b76:	b29b      	uxth	r3, r3
 8000b78:	429a      	cmp	r2, r3
 8000b7a:	8103      	strh	r3, [r0, #8]
 8000b7c:	b510      	push	{r4, lr}
 8000b7e:	d803      	bhi.n	8000b88 <advance_iterator+0x1a>
 8000b80:	2300      	movs	r3, #0
 8000b82:	e9c0 3302 	strd	r3, r3, [r0, #8]
 8000b86:	bd10      	pop	{r4, pc}
 8000b88:	680b      	ldr	r3, [r1, #0]
 8000b8a:	2401      	movs	r4, #1
 8000b8c:	8942      	ldrh	r2, [r0, #10]
 8000b8e:	f853 1022 	ldr.w	r1, [r3, r2, lsl #2]
 8000b92:	0a0b      	lsrs	r3, r1, #8
 8000b94:	f001 0103 	and.w	r1, r1, #3
 8000b98:	fa04 f101 	lsl.w	r1, r4, r1
 8000b9c:	440a      	add	r2, r1
 8000b9e:	f003 0130 	and.w	r1, r3, #48	@ 0x30
 8000ba2:	f003 030e 	and.w	r3, r3, #14
 8000ba6:	8142      	strh	r2, [r0, #10]
 8000ba8:	8982      	ldrh	r2, [r0, #12]
 8000baa:	2900      	cmp	r1, #0
 8000bac:	bf08      	it	eq
 8000bae:	3201      	addeq	r2, #1
 8000bb0:	8182      	strh	r2, [r0, #12]
 8000bb2:	89c2      	ldrh	r2, [r0, #14]
 8000bb4:	2b08      	cmp	r3, #8
 8000bb6:	bf08      	it	eq
 8000bb8:	3201      	addeq	r2, #1
 8000bba:	81c2      	strh	r2, [r0, #14]
 8000bbc:	e7e3      	b.n	8000b86 <advance_iterator+0x18>

08000bbe <pb_field_iter_begin>:
 8000bbe:	b570      	push	{r4, r5, r6, lr}
 8000bc0:	4604      	mov	r4, r0
 8000bc2:	460e      	mov	r6, r1
 8000bc4:	4615      	mov	r5, r2
 8000bc6:	2100      	movs	r1, #0
 8000bc8:	2220      	movs	r2, #32
 8000bca:	3008      	adds	r0, #8
 8000bcc:	f004 faba 	bl	8005144 <memset>
 8000bd0:	4620      	mov	r0, r4
 8000bd2:	e9c4 6500 	strd	r6, r5, [r4]
 8000bd6:	e8bd 4070 	ldmia.w	sp!, {r4, r5, r6, lr}
 8000bda:	f7ff bf5d 	b.w	8000a98 <load_descriptor_values>

08000bde <pb_field_iter_begin_extension>:
 8000bde:	b538      	push	{r3, r4, r5, lr}
 8000be0:	680b      	ldr	r3, [r1, #0]
 8000be2:	460c      	mov	r4, r1
 8000be4:	4605      	mov	r5, r0
 8000be6:	6899      	ldr	r1, [r3, #8]
 8000be8:	680b      	ldr	r3, [r1, #0]
 8000bea:	681b      	ldr	r3, [r3, #0]
 8000bec:	0a1b      	lsrs	r3, r3, #8
 8000bee:	f003 03c0 	and.w	r3, r3, #192	@ 0xc0
 8000bf2:	2b80      	cmp	r3, #128	@ 0x80
 8000bf4:	bf14      	ite	ne
 8000bf6:	6862      	ldrne	r2, [r4, #4]
 8000bf8:	1d22      	addeq	r2, r4, #4
 8000bfa:	340c      	adds	r4, #12
 8000bfc:	f7ff ffdf 	bl	8000bbe <pb_field_iter_begin>
 8000c00:	622c      	str	r4, [r5, #32]
 8000c02:	bd38      	pop	{r3, r4, r5, pc}

08000c04 <pb_field_iter_next>:
 8000c04:	b510      	push	{r4, lr}
 8000c06:	4604      	mov	r4, r0
 8000c08:	f7ff ffb1 	bl	8000b6e <advance_iterator>
 8000c0c:	f7ff ff44 	bl	8000a98 <load_descriptor_values>
 8000c10:	8920      	ldrh	r0, [r4, #8]
 8000c12:	3800      	subs	r0, #0
 8000c14:	bf18      	it	ne
 8000c16:	2001      	movne	r0, #1
 8000c18:	bd10      	pop	{r4, pc}

08000c1a <pb_field_iter_find>:
 8000c1a:	b5f8      	push	{r3, r4, r5, r6, r7, lr}
 8000c1c:	8a03      	ldrh	r3, [r0, #16]
 8000c1e:	4604      	mov	r4, r0
 8000c20:	460d      	mov	r5, r1
 8000c22:	428b      	cmp	r3, r1
 8000c24:	d101      	bne.n	8000c2a <pb_field_iter_find+0x10>
 8000c26:	2001      	movs	r0, #1
 8000c28:	bdf8      	pop	{r3, r4, r5, r6, r7, pc}
 8000c2a:	6806      	ldr	r6, [r0, #0]
 8000c2c:	8ab2      	ldrh	r2, [r6, #20]
 8000c2e:	428a      	cmp	r2, r1
 8000c30:	d201      	bcs.n	8000c36 <pb_field_iter_find+0x1c>
 8000c32:	2000      	movs	r0, #0
 8000c34:	e7f8      	b.n	8000c28 <pb_field_iter_find+0xe>
 8000c36:	428b      	cmp	r3, r1
 8000c38:	8907      	ldrh	r7, [r0, #8]
 8000c3a:	bf84      	itt	hi
 8000c3c:	8a33      	ldrhhi	r3, [r6, #16]
 8000c3e:	8103      	strhhi	r3, [r0, #8]
 8000c40:	4620      	mov	r0, r4
 8000c42:	f7ff ff94 	bl	8000b6e <advance_iterator>
 8000c46:	8962      	ldrh	r2, [r4, #10]
 8000c48:	6833      	ldr	r3, [r6, #0]
 8000c4a:	f853 3022 	ldr.w	r3, [r3, r2, lsl #2]
 8000c4e:	ea85 0393 	eor.w	r3, r5, r3, lsr #2
 8000c52:	069b      	lsls	r3, r3, #26
 8000c54:	d006      	beq.n	8000c64 <pb_field_iter_find+0x4a>
 8000c56:	8923      	ldrh	r3, [r4, #8]
 8000c58:	42bb      	cmp	r3, r7
 8000c5a:	d1f1      	bne.n	8000c40 <pb_field_iter_find+0x26>
 8000c5c:	4620      	mov	r0, r4
 8000c5e:	f7ff ff1b 	bl	8000a98 <load_descriptor_values>
 8000c62:	e7e6      	b.n	8000c32 <pb_field_iter_find+0x18>
 8000c64:	f7ff ff18 	bl	8000a98 <load_descriptor_values>
 8000c68:	8a23      	ldrh	r3, [r4, #16]
 8000c6a:	42ab      	cmp	r3, r5
 8000c6c:	d1f3      	bne.n	8000c56 <pb_field_iter_find+0x3c>
 8000c6e:	7da3      	ldrb	r3, [r4, #22]
 8000c70:	f003 030f 	and.w	r3, r3, #15
 8000c74:	2b0a      	cmp	r3, #10
 8000c76:	d0ee      	beq.n	8000c56 <pb_field_iter_find+0x3c>
 8000c78:	e7d5      	b.n	8000c26 <pb_field_iter_find+0xc>

08000c7a <pb_field_iter_find_extension>:
 8000c7a:	b538      	push	{r3, r4, r5, lr}
 8000c7c:	7d83      	ldrb	r3, [r0, #22]
 8000c7e:	4604      	mov	r4, r0
 8000c80:	f003 030f 	and.w	r3, r3, #15
 8000c84:	2b0a      	cmp	r3, #10
 8000c86:	d017      	beq.n	8000cb8 <pb_field_iter_find_extension+0x3e>
 8000c88:	8905      	ldrh	r5, [r0, #8]
 8000c8a:	4620      	mov	r0, r4
 8000c8c:	f7ff ff6f 	bl	8000b6e <advance_iterator>
 8000c90:	6823      	ldr	r3, [r4, #0]
 8000c92:	8962      	ldrh	r2, [r4, #10]
 8000c94:	681b      	ldr	r3, [r3, #0]
 8000c96:	f853 3022 	ldr.w	r3, [r3, r2, lsl #2]
 8000c9a:	f3c3 2303 	ubfx	r3, r3, #8, #4
 8000c9e:	2b0a      	cmp	r3, #10
 8000ca0:	d103      	bne.n	8000caa <pb_field_iter_find_extension+0x30>
 8000ca2:	e8bd 4038 	ldmia.w	sp!, {r3, r4, r5, lr}
 8000ca6:	f7ff bef7 	b.w	8000a98 <load_descriptor_values>
 8000caa:	8923      	ldrh	r3, [r4, #8]
 8000cac:	42ab      	cmp	r3, r5
 8000cae:	d1ec      	bne.n	8000c8a <pb_field_iter_find_extension+0x10>
 8000cb0:	f7ff fef2 	bl	8000a98 <load_descriptor_values>
 8000cb4:	2000      	movs	r0, #0
 8000cb6:	bd38      	pop	{r3, r4, r5, pc}
 8000cb8:	2001      	movs	r0, #1
 8000cba:	e7fc      	b.n	8000cb6 <pb_field_iter_find_extension+0x3c>

08000cbc <pb_readbyte>:
 8000cbc:	6883      	ldr	r3, [r0, #8]
 8000cbe:	b510      	push	{r4, lr}
 8000cc0:	4604      	mov	r4, r0
 8000cc2:	b93b      	cbnz	r3, 8000cd4 <pb_readbyte+0x18>
 8000cc4:	68c3      	ldr	r3, [r0, #12]
 8000cc6:	4a09      	ldr	r2, [pc, #36]	@ (8000cec <pb_readbyte+0x30>)
 8000cc8:	2b00      	cmp	r3, #0
 8000cca:	bf08      	it	eq
 8000ccc:	4613      	moveq	r3, r2
 8000cce:	2000      	movs	r0, #0
 8000cd0:	60e3      	str	r3, [r4, #12]
 8000cd2:	bd10      	pop	{r4, pc}
 8000cd4:	6803      	ldr	r3, [r0, #0]
 8000cd6:	2201      	movs	r2, #1
 8000cd8:	4798      	blx	r3
 8000cda:	b910      	cbnz	r0, 8000ce2 <pb_readbyte+0x26>
 8000cdc:	68e3      	ldr	r3, [r4, #12]
 8000cde:	4a04      	ldr	r2, [pc, #16]	@ (8000cf0 <pb_readbyte+0x34>)
 8000ce0:	e7f2      	b.n	8000cc8 <pb_readbyte+0xc>
 8000ce2:	68a3      	ldr	r3, [r4, #8]
 8000ce4:	3b01      	subs	r3, #1
 8000ce6:	60a3      	str	r3, [r4, #8]
 8000ce8:	e7f3      	b.n	8000cd2 <pb_readbyte+0x16>
 8000cea:	bf00      	nop
 8000cec:	08005cc7 	.word	0x08005cc7
 8000cf0:	08005cd5 	.word	0x08005cd5

08000cf4 <pb_decode_varint32_eof>:
 8000cf4:	e92d 41f3 	stmdb	sp!, {r0, r1, r4, r5, r6, r7, r8, lr}
 8000cf8:	460e      	mov	r6, r1
 8000cfa:	f10d 0107 	add.w	r1, sp, #7
 8000cfe:	4605      	mov	r5, r0
 8000d00:	4614      	mov	r4, r2
 8000d02:	f7ff ffdb 	bl	8000cbc <pb_readbyte>
 8000d06:	4680      	mov	r8, r0
 8000d08:	b960      	cbnz	r0, 8000d24 <pb_decode_varint32_eof+0x30>
 8000d0a:	68ab      	ldr	r3, [r5, #8]
 8000d0c:	b12b      	cbz	r3, 8000d1a <pb_decode_varint32_eof+0x26>
 8000d0e:	f04f 0800 	mov.w	r8, #0
 8000d12:	4640      	mov	r0, r8
 8000d14:	b002      	add	sp, #8
 8000d16:	e8bd 81f0 	ldmia.w	sp!, {r4, r5, r6, r7, r8, pc}
 8000d1a:	2c00      	cmp	r4, #0
 8000d1c:	d0f7      	beq.n	8000d0e <pb_decode_varint32_eof+0x1a>
 8000d1e:	2301      	movs	r3, #1
 8000d20:	7023      	strb	r3, [r4, #0]
 8000d22:	e7f4      	b.n	8000d0e <pb_decode_varint32_eof+0x1a>
 8000d24:	f99d 3007 	ldrsb.w	r3, [sp, #7]
 8000d28:	f89d 4007 	ldrb.w	r4, [sp, #7]
 8000d2c:	2b00      	cmp	r3, #0
 8000d2e:	da2f      	bge.n	8000d90 <pb_decode_varint32_eof+0x9c>
 8000d30:	f004 047f 	and.w	r4, r4, #127	@ 0x7f
 8000d34:	2707      	movs	r7, #7
 8000d36:	f10d 0107 	add.w	r1, sp, #7
 8000d3a:	4628      	mov	r0, r5
 8000d3c:	f7ff ffbe 	bl	8000cbc <pb_readbyte>
 8000d40:	2800      	cmp	r0, #0
 8000d42:	d0e4      	beq.n	8000d0e <pb_decode_varint32_eof+0x1a>
 8000d44:	2f1f      	cmp	r7, #31
 8000d46:	f89d 3007 	ldrb.w	r3, [sp, #7]
 8000d4a:	d912      	bls.n	8000d72 <pb_decode_varint32_eof+0x7e>
 8000d4c:	2f3f      	cmp	r7, #63	@ 0x3f
 8000d4e:	bf34      	ite	cc
 8000d50:	22ff      	movcc	r2, #255	@ 0xff
 8000d52:	2201      	movcs	r2, #1
 8000d54:	0659      	lsls	r1, r3, #25
 8000d56:	d022      	beq.n	8000d9e <pb_decode_varint32_eof+0xaa>
 8000d58:	2c00      	cmp	r4, #0
 8000d5a:	da03      	bge.n	8000d64 <pb_decode_varint32_eof+0x70>
 8000d5c:	2f3f      	cmp	r7, #63	@ 0x3f
 8000d5e:	d801      	bhi.n	8000d64 <pb_decode_varint32_eof+0x70>
 8000d60:	429a      	cmp	r2, r3
 8000d62:	d011      	beq.n	8000d88 <pb_decode_varint32_eof+0x94>
 8000d64:	68eb      	ldr	r3, [r5, #12]
 8000d66:	4a0f      	ldr	r2, [pc, #60]	@ (8000da4 <pb_decode_varint32_eof+0xb0>)
 8000d68:	2b00      	cmp	r3, #0
 8000d6a:	bf08      	it	eq
 8000d6c:	4613      	moveq	r3, r2
 8000d6e:	60eb      	str	r3, [r5, #12]
 8000d70:	e7cd      	b.n	8000d0e <pb_decode_varint32_eof+0x1a>
 8000d72:	2f1c      	cmp	r7, #28
 8000d74:	d10e      	bne.n	8000d94 <pb_decode_varint32_eof+0xa0>
 8000d76:	f013 0f70 	tst.w	r3, #112	@ 0x70
 8000d7a:	d003      	beq.n	8000d84 <pb_decode_varint32_eof+0x90>
 8000d7c:	f003 0278 	and.w	r2, r3, #120	@ 0x78
 8000d80:	2a78      	cmp	r2, #120	@ 0x78
 8000d82:	d1ef      	bne.n	8000d64 <pb_decode_varint32_eof+0x70>
 8000d84:	ea44 7403 	orr.w	r4, r4, r3, lsl #28
 8000d88:	061b      	lsls	r3, r3, #24
 8000d8a:	f107 0707 	add.w	r7, r7, #7
 8000d8e:	d4d2      	bmi.n	8000d36 <pb_decode_varint32_eof+0x42>
 8000d90:	6034      	str	r4, [r6, #0]
 8000d92:	e7be      	b.n	8000d12 <pb_decode_varint32_eof+0x1e>
 8000d94:	f003 027f 	and.w	r2, r3, #127	@ 0x7f
 8000d98:	40ba      	lsls	r2, r7
 8000d9a:	4314      	orrs	r4, r2
 8000d9c:	e7f4      	b.n	8000d88 <pb_decode_varint32_eof+0x94>
 8000d9e:	2f3f      	cmp	r7, #63	@ 0x3f
 8000da0:	d9f2      	bls.n	8000d88 <pb_decode_varint32_eof+0x94>
 8000da2:	e7df      	b.n	8000d64 <pb_decode_varint32_eof+0x70>
 8000da4:	08005cde 	.word	0x08005cde

08000da8 <buf_read>:
 8000da8:	4603      	mov	r3, r0
 8000daa:	4608      	mov	r0, r1
 8000dac:	6859      	ldr	r1, [r3, #4]
 8000dae:	b510      	push	{r4, lr}
 8000db0:	188c      	adds	r4, r1, r2
 8000db2:	605c      	str	r4, [r3, #4]
 8000db4:	b108      	cbz	r0, 8000dba <buf_read+0x12>
 8000db6:	f004 fa40 	bl	800523a <memcpy>
 8000dba:	2001      	movs	r0, #1
 8000dbc:	bd10      	pop	{r4, pc}
	...

08000dc0 <pb_read>:
 8000dc0:	b530      	push	{r4, r5, lr}
 8000dc2:	4604      	mov	r4, r0
 8000dc4:	b085      	sub	sp, #20
 8000dc6:	4615      	mov	r5, r2
 8000dc8:	2a00      	cmp	r2, #0
 8000dca:	d02f      	beq.n	8000e2c <pb_read+0x6c>
 8000dcc:	b9a9      	cbnz	r1, 8000dfa <pb_read+0x3a>
 8000dce:	6802      	ldr	r2, [r0, #0]
 8000dd0:	4b17      	ldr	r3, [pc, #92]	@ (8000e30 <pb_read+0x70>)
 8000dd2:	429a      	cmp	r2, r3
 8000dd4:	d011      	beq.n	8000dfa <pb_read+0x3a>
 8000dd6:	2d10      	cmp	r5, #16
 8000dd8:	d806      	bhi.n	8000de8 <pb_read+0x28>
 8000dda:	462a      	mov	r2, r5
 8000ddc:	4669      	mov	r1, sp
 8000dde:	4620      	mov	r0, r4
 8000de0:	f7ff ffee 	bl	8000dc0 <pb_read>
 8000de4:	b005      	add	sp, #20
 8000de6:	bd30      	pop	{r4, r5, pc}
 8000de8:	2210      	movs	r2, #16
 8000dea:	4669      	mov	r1, sp
 8000dec:	4620      	mov	r0, r4
 8000dee:	f7ff ffe7 	bl	8000dc0 <pb_read>
 8000df2:	2800      	cmp	r0, #0
 8000df4:	d0f6      	beq.n	8000de4 <pb_read+0x24>
 8000df6:	3d10      	subs	r5, #16
 8000df8:	e7ed      	b.n	8000dd6 <pb_read+0x16>
 8000dfa:	68a3      	ldr	r3, [r4, #8]
 8000dfc:	42ab      	cmp	r3, r5
 8000dfe:	d207      	bcs.n	8000e10 <pb_read+0x50>
 8000e00:	68e3      	ldr	r3, [r4, #12]
 8000e02:	4a0c      	ldr	r2, [pc, #48]	@ (8000e34 <pb_read+0x74>)
 8000e04:	2b00      	cmp	r3, #0
 8000e06:	bf08      	it	eq
 8000e08:	4613      	moveq	r3, r2
 8000e0a:	2000      	movs	r0, #0
 8000e0c:	60e3      	str	r3, [r4, #12]
 8000e0e:	e7e9      	b.n	8000de4 <pb_read+0x24>
 8000e10:	6823      	ldr	r3, [r4, #0]
 8000e12:	462a      	mov	r2, r5
 8000e14:	4620      	mov	r0, r4
 8000e16:	4798      	blx	r3
 8000e18:	b910      	cbnz	r0, 8000e20 <pb_read+0x60>
 8000e1a:	68e3      	ldr	r3, [r4, #12]
 8000e1c:	4a06      	ldr	r2, [pc, #24]	@ (8000e38 <pb_read+0x78>)
 8000e1e:	e7f1      	b.n	8000e04 <pb_read+0x44>
 8000e20:	68a3      	ldr	r3, [r4, #8]
 8000e22:	42ab      	cmp	r3, r5
 8000e24:	bf34      	ite	cc
 8000e26:	2300      	movcc	r3, #0
 8000e28:	1b5b      	subcs	r3, r3, r5
 8000e2a:	60a3      	str	r3, [r4, #8]
 8000e2c:	2001      	movs	r0, #1
 8000e2e:	e7d9      	b.n	8000de4 <pb_read+0x24>
 8000e30:	08000da9 	.word	0x08000da9
 8000e34:	08005cc7 	.word	0x08005cc7
 8000e38:	08005cd5 	.word	0x08005cd5

08000e3c <pb_istream_from_buffer>:
 8000e3c:	b510      	push	{r4, lr}
 8000e3e:	6082      	str	r2, [r0, #8]
 8000e40:	2200      	movs	r2, #0
 8000e42:	4c02      	ldr	r4, [pc, #8]	@ (8000e4c <pb_istream_from_buffer+0x10>)
 8000e44:	60c2      	str	r2, [r0, #12]
 8000e46:	e9c0 4100 	strd	r4, r1, [r0]
 8000e4a:	bd10      	pop	{r4, pc}
 8000e4c:	08000da9 	.word	0x08000da9

08000e50 <pb_decode_varint32>:
 8000e50:	2200      	movs	r2, #0
 8000e52:	f7ff bf4f 	b.w	8000cf4 <pb_decode_varint32_eof>
	...

08000e58 <pb_decode_varint>:
 8000e58:	e92d 41f3 	stmdb	sp!, {r0, r1, r4, r5, r6, r7, r8, lr}
 8000e5c:	2500      	movs	r5, #0
 8000e5e:	4606      	mov	r6, r0
 8000e60:	460f      	mov	r7, r1
 8000e62:	46a8      	mov	r8, r5
 8000e64:	462c      	mov	r4, r5
 8000e66:	f10d 0107 	add.w	r1, sp, #7
 8000e6a:	4630      	mov	r0, r6
 8000e6c:	f7ff ff26 	bl	8000cbc <pb_readbyte>
 8000e70:	b158      	cbz	r0, 8000e8a <pb_decode_varint+0x32>
 8000e72:	2c3e      	cmp	r4, #62	@ 0x3e
 8000e74:	f89d 1007 	ldrb.w	r1, [sp, #7]
 8000e78:	d90b      	bls.n	8000e92 <pb_decode_varint+0x3a>
 8000e7a:	2901      	cmp	r1, #1
 8000e7c:	d909      	bls.n	8000e92 <pb_decode_varint+0x3a>
 8000e7e:	68f3      	ldr	r3, [r6, #12]
 8000e80:	4a0f      	ldr	r2, [pc, #60]	@ (8000ec0 <pb_decode_varint+0x68>)
 8000e82:	2b00      	cmp	r3, #0
 8000e84:	bf08      	it	eq
 8000e86:	4613      	moveq	r3, r2
 8000e88:	60f3      	str	r3, [r6, #12]
 8000e8a:	2000      	movs	r0, #0
 8000e8c:	b002      	add	sp, #8
 8000e8e:	e8bd 81f0 	ldmia.w	sp!, {r4, r5, r6, r7, r8, pc}
 8000e92:	f001 027f 	and.w	r2, r1, #127	@ 0x7f
 8000e96:	f1a4 0320 	sub.w	r3, r4, #32
 8000e9a:	f1c4 0c20 	rsb	ip, r4, #32
 8000e9e:	fa02 f303 	lsl.w	r3, r2, r3
 8000ea2:	fa22 fc0c 	lsr.w	ip, r2, ip
 8000ea6:	40a2      	lsls	r2, r4
 8000ea8:	3407      	adds	r4, #7
 8000eaa:	ea43 030c 	orr.w	r3, r3, ip
 8000eae:	4315      	orrs	r5, r2
 8000eb0:	ea43 0808 	orr.w	r8, r3, r8
 8000eb4:	060b      	lsls	r3, r1, #24
 8000eb6:	d4d6      	bmi.n	8000e66 <pb_decode_varint+0xe>
 8000eb8:	e9c7 5800 	strd	r5, r8, [r7]
 8000ebc:	e7e6      	b.n	8000e8c <pb_decode_varint+0x34>
 8000ebe:	bf00      	nop
 8000ec0:	08005cde 	.word	0x08005cde

08000ec4 <pb_decode_tag>:
 8000ec4:	b537      	push	{r0, r1, r2, r4, r5, lr}
 8000ec6:	4615      	mov	r5, r2
 8000ec8:	461a      	mov	r2, r3
 8000eca:	2300      	movs	r3, #0
 8000ecc:	460c      	mov	r4, r1
 8000ece:	7013      	strb	r3, [r2, #0]
 8000ed0:	700b      	strb	r3, [r1, #0]
 8000ed2:	a901      	add	r1, sp, #4
 8000ed4:	602b      	str	r3, [r5, #0]
 8000ed6:	f7ff ff0d 	bl	8000cf4 <pb_decode_varint32_eof>
 8000eda:	b128      	cbz	r0, 8000ee8 <pb_decode_tag+0x24>
 8000edc:	9b01      	ldr	r3, [sp, #4]
 8000ede:	08da      	lsrs	r2, r3, #3
 8000ee0:	f003 0307 	and.w	r3, r3, #7
 8000ee4:	602a      	str	r2, [r5, #0]
 8000ee6:	7023      	strb	r3, [r4, #0]
 8000ee8:	b003      	add	sp, #12
 8000eea:	bd30      	pop	{r4, r5, pc}

08000eec <pb_skip_field>:
 8000eec:	b513      	push	{r0, r1, r4, lr}
 8000eee:	4604      	mov	r4, r0
 8000ef0:	2905      	cmp	r1, #5
 8000ef2:	d821      	bhi.n	8000f38 <pb_skip_field+0x4c>
 8000ef4:	e8df f001 	tbb	[pc, r1]
 8000ef8:	20170f03 	.word	0x20170f03
 8000efc:	1e20      	.short	0x1e20
 8000efe:	2201      	movs	r2, #1
 8000f00:	a901      	add	r1, sp, #4
 8000f02:	4620      	mov	r0, r4
 8000f04:	f7ff ff5c 	bl	8000dc0 <pb_read>
 8000f08:	b118      	cbz	r0, 8000f12 <pb_skip_field+0x26>
 8000f0a:	f99d 3004 	ldrsb.w	r3, [sp, #4]
 8000f0e:	2b00      	cmp	r3, #0
 8000f10:	dbf5      	blt.n	8000efe <pb_skip_field+0x12>
 8000f12:	b002      	add	sp, #8
 8000f14:	bd10      	pop	{r4, pc}
 8000f16:	2208      	movs	r2, #8
 8000f18:	2100      	movs	r1, #0
 8000f1a:	4620      	mov	r0, r4
 8000f1c:	b002      	add	sp, #8
 8000f1e:	e8bd 4010 	ldmia.w	sp!, {r4, lr}
 8000f22:	f7ff bf4d 	b.w	8000dc0 <pb_read>
 8000f26:	a901      	add	r1, sp, #4
 8000f28:	f7ff ff92 	bl	8000e50 <pb_decode_varint32>
 8000f2c:	2800      	cmp	r0, #0
 8000f2e:	d0f0      	beq.n	8000f12 <pb_skip_field+0x26>
 8000f30:	9a01      	ldr	r2, [sp, #4]
 8000f32:	e7f1      	b.n	8000f18 <pb_skip_field+0x2c>
 8000f34:	2204      	movs	r2, #4
 8000f36:	e7ef      	b.n	8000f18 <pb_skip_field+0x2c>
 8000f38:	68c3      	ldr	r3, [r0, #12]
 8000f3a:	4a03      	ldr	r2, [pc, #12]	@ (8000f48 <pb_skip_field+0x5c>)
 8000f3c:	2b00      	cmp	r3, #0
 8000f3e:	bf08      	it	eq
 8000f40:	4613      	moveq	r3, r2
 8000f42:	60c3      	str	r3, [r0, #12]
 8000f44:	2000      	movs	r0, #0
 8000f46:	e7e4      	b.n	8000f12 <pb_skip_field+0x26>
 8000f48:	08005cee 	.word	0x08005cee

08000f4c <pb_make_string_substream>:
 8000f4c:	b573      	push	{r0, r1, r4, r5, r6, lr}
 8000f4e:	460d      	mov	r5, r1
 8000f50:	a901      	add	r1, sp, #4
 8000f52:	4604      	mov	r4, r0
 8000f54:	f7ff ff7c 	bl	8000e50 <pb_decode_varint32>
 8000f58:	4606      	mov	r6, r0
 8000f5a:	b160      	cbz	r0, 8000f76 <pb_make_string_substream+0x2a>
 8000f5c:	e894 000f 	ldmia.w	r4, {r0, r1, r2, r3}
 8000f60:	e885 000f 	stmia.w	r5, {r0, r1, r2, r3}
 8000f64:	9901      	ldr	r1, [sp, #4]
 8000f66:	428a      	cmp	r2, r1
 8000f68:	d209      	bcs.n	8000f7e <pb_make_string_substream+0x32>
 8000f6a:	68e3      	ldr	r3, [r4, #12]
 8000f6c:	4a06      	ldr	r2, [pc, #24]	@ (8000f88 <pb_make_string_substream+0x3c>)
 8000f6e:	2b00      	cmp	r3, #0
 8000f70:	bf08      	it	eq
 8000f72:	4613      	moveq	r3, r2
 8000f74:	60e3      	str	r3, [r4, #12]
 8000f76:	2600      	movs	r6, #0
 8000f78:	4630      	mov	r0, r6
 8000f7a:	b002      	add	sp, #8
 8000f7c:	bd70      	pop	{r4, r5, r6, pc}
 8000f7e:	60a9      	str	r1, [r5, #8]
 8000f80:	68a3      	ldr	r3, [r4, #8]
 8000f82:	1a5b      	subs	r3, r3, r1
 8000f84:	60a3      	str	r3, [r4, #8]
 8000f86:	e7f7      	b.n	8000f78 <pb_make_string_substream+0x2c>
 8000f88:	08005d00 	.word	0x08005d00

08000f8c <pb_close_string_substream>:
 8000f8c:	688a      	ldr	r2, [r1, #8]
 8000f8e:	b538      	push	{r3, r4, r5, lr}
 8000f90:	4605      	mov	r5, r0
 8000f92:	460c      	mov	r4, r1
 8000f94:	b92a      	cbnz	r2, 8000fa2 <pb_close_string_substream+0x16>
 8000f96:	6863      	ldr	r3, [r4, #4]
 8000f98:	2001      	movs	r0, #1
 8000f9a:	606b      	str	r3, [r5, #4]
 8000f9c:	68e3      	ldr	r3, [r4, #12]
 8000f9e:	60eb      	str	r3, [r5, #12]
 8000fa0:	bd38      	pop	{r3, r4, r5, pc}
 8000fa2:	2100      	movs	r1, #0
 8000fa4:	4620      	mov	r0, r4
 8000fa6:	f7ff ff0b 	bl	8000dc0 <pb_read>
 8000faa:	2800      	cmp	r0, #0
 8000fac:	d1f3      	bne.n	8000f96 <pb_close_string_substream+0xa>
 8000fae:	e7f7      	b.n	8000fa0 <pb_close_string_substream+0x14>

08000fb0 <pb_decode_bool>:
 8000fb0:	b513      	push	{r0, r1, r4, lr}
 8000fb2:	460c      	mov	r4, r1
 8000fb4:	a901      	add	r1, sp, #4
 8000fb6:	f7ff ff4b 	bl	8000e50 <pb_decode_varint32>
 8000fba:	b120      	cbz	r0, 8000fc6 <pb_decode_bool+0x16>
 8000fbc:	9b01      	ldr	r3, [sp, #4]
 8000fbe:	3b00      	subs	r3, #0
 8000fc0:	bf18      	it	ne
 8000fc2:	2301      	movne	r3, #1
 8000fc4:	7023      	strb	r3, [r4, #0]
 8000fc6:	b002      	add	sp, #8
 8000fc8:	bd10      	pop	{r4, pc}

08000fca <pb_decode_svarint>:
 8000fca:	b513      	push	{r0, r1, r4, lr}
 8000fcc:	460c      	mov	r4, r1
 8000fce:	4669      	mov	r1, sp
 8000fd0:	f7ff ff42 	bl	8000e58 <pb_decode_varint>
 8000fd4:	b160      	cbz	r0, 8000ff0 <pb_decode_svarint+0x26>
 8000fd6:	e9dd 1300 	ldrd	r1, r3, [sp]
 8000fda:	084a      	lsrs	r2, r1, #1
 8000fdc:	07c9      	lsls	r1, r1, #31
 8000fde:	ea42 72c3 	orr.w	r2, r2, r3, lsl #31
 8000fe2:	ea4f 0353 	mov.w	r3, r3, lsr #1
 8000fe6:	bf44      	itt	mi
 8000fe8:	43d2      	mvnmi	r2, r2
 8000fea:	43db      	mvnmi	r3, r3
 8000fec:	e9c4 2300 	strd	r2, r3, [r4]
 8000ff0:	b002      	add	sp, #8
 8000ff2:	bd10      	pop	{r4, pc}

08000ff4 <pb_decode_fixed32>:
 8000ff4:	2204      	movs	r2, #4
 8000ff6:	b513      	push	{r0, r1, r4, lr}
 8000ff8:	460c      	mov	r4, r1
 8000ffa:	eb0d 0102 	add.w	r1, sp, r2
 8000ffe:	f7ff fedf 	bl	8000dc0 <pb_read>
 8001002:	b108      	cbz	r0, 8001008 <pb_decode_fixed32+0x14>
 8001004:	9b01      	ldr	r3, [sp, #4]
 8001006:	6023      	str	r3, [r4, #0]
 8001008:	b002      	add	sp, #8
 800100a:	bd10      	pop	{r4, pc}

0800100c <pb_decode_fixed64>:
 800100c:	b513      	push	{r0, r1, r4, lr}
 800100e:	2208      	movs	r2, #8
 8001010:	460c      	mov	r4, r1
 8001012:	4669      	mov	r1, sp
 8001014:	f7ff fed4 	bl	8000dc0 <pb_read>
 8001018:	b118      	cbz	r0, 8001022 <pb_decode_fixed64+0x16>
 800101a:	e9dd 2300 	ldrd	r2, r3, [sp]
 800101e:	e9c4 2300 	strd	r2, r3, [r4]
 8001022:	b002      	add	sp, #8
 8001024:	bd10      	pop	{r4, pc}
	...

08001028 <decode_basic_field>:
 8001028:	b570      	push	{r4, r5, r6, lr}
 800102a:	7d93      	ldrb	r3, [r2, #22]
 800102c:	b086      	sub	sp, #24
 800102e:	4604      	mov	r4, r0
 8001030:	4615      	mov	r5, r2
 8001032:	f003 030f 	and.w	r3, r3, #15
 8001036:	2b0b      	cmp	r3, #11
 8001038:	f200 8145 	bhi.w	80012c6 <decode_basic_field+0x29e>
 800103c:	e8df f013 	tbh	[pc, r3, lsl #1]
 8001040:	001d000c 	.word	0x001d000c
 8001044:	001d001d 	.word	0x001d001d
 8001048:	009b008f 	.word	0x009b008f
 800104c:	00cb00a7 	.word	0x00cb00a7
 8001050:	00ea00ea 	.word	0x00ea00ea
 8001054:	01260143 	.word	0x01260143
 8001058:	3901      	subs	r1, #1
 800105a:	b2c9      	uxtb	r1, r1
 800105c:	29fd      	cmp	r1, #253	@ 0xfd
 800105e:	d806      	bhi.n	800106e <decode_basic_field+0x46>
 8001060:	68e3      	ldr	r3, [r4, #12]
 8001062:	4a9a      	ldr	r2, [pc, #616]	@ (80012cc <decode_basic_field+0x2a4>)
 8001064:	2b00      	cmp	r3, #0
 8001066:	bf08      	it	eq
 8001068:	4613      	moveq	r3, r2
 800106a:	60e3      	str	r3, [r4, #12]
 800106c:	e043      	b.n	80010f6 <decode_basic_field+0xce>
 800106e:	69e9      	ldr	r1, [r5, #28]
 8001070:	b006      	add	sp, #24
 8001072:	e8bd 4070 	ldmia.w	sp!, {r4, r5, r6, lr}
 8001076:	f7ff bf9b 	b.w	8000fb0 <pb_decode_bool>
 800107a:	3901      	subs	r1, #1
 800107c:	b2c9      	uxtb	r1, r1
 800107e:	29fd      	cmp	r1, #253	@ 0xfd
 8001080:	d9ee      	bls.n	8001060 <decode_basic_field+0x38>
 8001082:	2b02      	cmp	r3, #2
 8001084:	d131      	bne.n	80010ea <decode_basic_field+0xc2>
 8001086:	a902      	add	r1, sp, #8
 8001088:	f7ff fee6 	bl	8000e58 <pb_decode_varint>
 800108c:	4606      	mov	r6, r0
 800108e:	2800      	cmp	r0, #0
 8001090:	d031      	beq.n	80010f6 <decode_basic_field+0xce>
 8001092:	8a6b      	ldrh	r3, [r5, #18]
 8001094:	2b08      	cmp	r3, #8
 8001096:	d107      	bne.n	80010a8 <decode_basic_field+0x80>
 8001098:	69eb      	ldr	r3, [r5, #28]
 800109a:	e9dd 0102 	ldrd	r0, r1, [sp, #8]
 800109e:	e9c3 0100 	strd	r0, r1, [r3]
 80010a2:	4630      	mov	r0, r6
 80010a4:	b006      	add	sp, #24
 80010a6:	bd70      	pop	{r4, r5, r6, pc}
 80010a8:	2b04      	cmp	r3, #4
 80010aa:	d10c      	bne.n	80010c6 <decode_basic_field+0x9e>
 80010ac:	9b02      	ldr	r3, [sp, #8]
 80010ae:	69ea      	ldr	r2, [r5, #28]
 80010b0:	6013      	str	r3, [r2, #0]
 80010b2:	2200      	movs	r2, #0
 80010b4:	e9dd 0102 	ldrd	r0, r1, [sp, #8]
 80010b8:	4291      	cmp	r1, r2
 80010ba:	bf08      	it	eq
 80010bc:	4298      	cmpeq	r0, r3
 80010be:	d0f0      	beq.n	80010a2 <decode_basic_field+0x7a>
 80010c0:	68e3      	ldr	r3, [r4, #12]
 80010c2:	4a83      	ldr	r2, [pc, #524]	@ (80012d0 <decode_basic_field+0x2a8>)
 80010c4:	e7ce      	b.n	8001064 <decode_basic_field+0x3c>
 80010c6:	2b02      	cmp	r3, #2
 80010c8:	d104      	bne.n	80010d4 <decode_basic_field+0xac>
 80010ca:	9b02      	ldr	r3, [sp, #8]
 80010cc:	69ea      	ldr	r2, [r5, #28]
 80010ce:	8013      	strh	r3, [r2, #0]
 80010d0:	b29b      	uxth	r3, r3
 80010d2:	e7ee      	b.n	80010b2 <decode_basic_field+0x8a>
 80010d4:	2b01      	cmp	r3, #1
 80010d6:	d105      	bne.n	80010e4 <decode_basic_field+0xbc>
 80010d8:	9b02      	ldr	r3, [sp, #8]
 80010da:	69ea      	ldr	r2, [r5, #28]
 80010dc:	7013      	strb	r3, [r2, #0]
 80010de:	f003 03ff 	and.w	r3, r3, #255	@ 0xff
 80010e2:	e7e6      	b.n	80010b2 <decode_basic_field+0x8a>
 80010e4:	68e3      	ldr	r3, [r4, #12]
 80010e6:	4a7b      	ldr	r2, [pc, #492]	@ (80012d4 <decode_basic_field+0x2ac>)
 80010e8:	e7bc      	b.n	8001064 <decode_basic_field+0x3c>
 80010ea:	2b03      	cmp	r3, #3
 80010ec:	d105      	bne.n	80010fa <decode_basic_field+0xd2>
 80010ee:	a902      	add	r1, sp, #8
 80010f0:	f7ff ff6b 	bl	8000fca <pb_decode_svarint>
 80010f4:	b970      	cbnz	r0, 8001114 <decode_basic_field+0xec>
 80010f6:	2600      	movs	r6, #0
 80010f8:	e7d3      	b.n	80010a2 <decode_basic_field+0x7a>
 80010fa:	4669      	mov	r1, sp
 80010fc:	f7ff feac 	bl	8000e58 <pb_decode_varint>
 8001100:	2800      	cmp	r0, #0
 8001102:	d0f8      	beq.n	80010f6 <decode_basic_field+0xce>
 8001104:	8a69      	ldrh	r1, [r5, #18]
 8001106:	e9dd 3200 	ldrd	r3, r2, [sp]
 800110a:	2908      	cmp	r1, #8
 800110c:	bf18      	it	ne
 800110e:	17da      	asrne	r2, r3, #31
 8001110:	e9cd 3202 	strd	r3, r2, [sp, #8]
 8001114:	8a6b      	ldrh	r3, [r5, #18]
 8001116:	2b08      	cmp	r3, #8
 8001118:	d106      	bne.n	8001128 <decode_basic_field+0x100>
 800111a:	69eb      	ldr	r3, [r5, #28]
 800111c:	e9dd 0102 	ldrd	r0, r1, [sp, #8]
 8001120:	e9c3 0100 	strd	r0, r1, [r3]
 8001124:	2601      	movs	r6, #1
 8001126:	e7bc      	b.n	80010a2 <decode_basic_field+0x7a>
 8001128:	2b04      	cmp	r3, #4
 800112a:	d10a      	bne.n	8001142 <decode_basic_field+0x11a>
 800112c:	9b02      	ldr	r3, [sp, #8]
 800112e:	69ea      	ldr	r2, [r5, #28]
 8001130:	6013      	str	r3, [r2, #0]
 8001132:	17da      	asrs	r2, r3, #31
 8001134:	e9dd 0102 	ldrd	r0, r1, [sp, #8]
 8001138:	4291      	cmp	r1, r2
 800113a:	bf08      	it	eq
 800113c:	4298      	cmpeq	r0, r3
 800113e:	d1bf      	bne.n	80010c0 <decode_basic_field+0x98>
 8001140:	e7f0      	b.n	8001124 <decode_basic_field+0xfc>
 8001142:	2b02      	cmp	r3, #2
 8001144:	d104      	bne.n	8001150 <decode_basic_field+0x128>
 8001146:	f9bd 3008 	ldrsh.w	r3, [sp, #8]
 800114a:	69ea      	ldr	r2, [r5, #28]
 800114c:	8013      	strh	r3, [r2, #0]
 800114e:	e7f0      	b.n	8001132 <decode_basic_field+0x10a>
 8001150:	2b01      	cmp	r3, #1
 8001152:	d1c7      	bne.n	80010e4 <decode_basic_field+0xbc>
 8001154:	69ea      	ldr	r2, [r5, #28]
 8001156:	f99d 3008 	ldrsb.w	r3, [sp, #8]
 800115a:	7013      	strb	r3, [r2, #0]
 800115c:	e7e9      	b.n	8001132 <decode_basic_field+0x10a>
 800115e:	2905      	cmp	r1, #5
 8001160:	d002      	beq.n	8001168 <decode_basic_field+0x140>
 8001162:	29ff      	cmp	r1, #255	@ 0xff
 8001164:	f47f af7c 	bne.w	8001060 <decode_basic_field+0x38>
 8001168:	69e9      	ldr	r1, [r5, #28]
 800116a:	4620      	mov	r0, r4
 800116c:	b006      	add	sp, #24
 800116e:	e8bd 4070 	ldmia.w	sp!, {r4, r5, r6, lr}
 8001172:	f7ff bf3f 	b.w	8000ff4 <pb_decode_fixed32>
 8001176:	2901      	cmp	r1, #1
 8001178:	d002      	beq.n	8001180 <decode_basic_field+0x158>
 800117a:	29ff      	cmp	r1, #255	@ 0xff
 800117c:	f47f af70 	bne.w	8001060 <decode_basic_field+0x38>
 8001180:	69e9      	ldr	r1, [r5, #28]
 8001182:	4620      	mov	r0, r4
 8001184:	b006      	add	sp, #24
 8001186:	e8bd 4070 	ldmia.w	sp!, {r4, r5, r6, lr}
 800118a:	f7ff bf3f 	b.w	800100c <pb_decode_fixed64>
 800118e:	2902      	cmp	r1, #2
 8001190:	f47f af66 	bne.w	8001060 <decode_basic_field+0x38>
 8001194:	a902      	add	r1, sp, #8
 8001196:	f7ff fe5b 	bl	8000e50 <pb_decode_varint32>
 800119a:	2800      	cmp	r0, #0
 800119c:	d0ab      	beq.n	80010f6 <decode_basic_field+0xce>
 800119e:	9a02      	ldr	r2, [sp, #8]
 80011a0:	f5b2 3f80 	cmp.w	r2, #65536	@ 0x10000
 80011a4:	d302      	bcc.n	80011ac <decode_basic_field+0x184>
 80011a6:	68e3      	ldr	r3, [r4, #12]
 80011a8:	4a4b      	ldr	r2, [pc, #300]	@ (80012d8 <decode_basic_field+0x2b0>)
 80011aa:	e75b      	b.n	8001064 <decode_basic_field+0x3c>
 80011ac:	7dab      	ldrb	r3, [r5, #22]
 80011ae:	1c91      	adds	r1, r2, #2
 80011b0:	f003 03c0 	and.w	r3, r3, #192	@ 0xc0
 80011b4:	2b80      	cmp	r3, #128	@ 0x80
 80011b6:	d102      	bne.n	80011be <decode_basic_field+0x196>
 80011b8:	68e3      	ldr	r3, [r4, #12]
 80011ba:	4a48      	ldr	r2, [pc, #288]	@ (80012dc <decode_basic_field+0x2b4>)
 80011bc:	e752      	b.n	8001064 <decode_basic_field+0x3c>
 80011be:	8a6b      	ldrh	r3, [r5, #18]
 80011c0:	4299      	cmp	r1, r3
 80011c2:	d8f0      	bhi.n	80011a6 <decode_basic_field+0x17e>
 80011c4:	69e9      	ldr	r1, [r5, #28]
 80011c6:	f821 2b02 	strh.w	r2, [r1], #2
 80011ca:	4620      	mov	r0, r4
 80011cc:	b006      	add	sp, #24
 80011ce:	e8bd 4070 	ldmia.w	sp!, {r4, r5, r6, lr}
 80011d2:	f7ff bdf5 	b.w	8000dc0 <pb_read>
 80011d6:	2902      	cmp	r1, #2
 80011d8:	f47f af42 	bne.w	8001060 <decode_basic_field+0x38>
 80011dc:	a902      	add	r1, sp, #8
 80011de:	69ee      	ldr	r6, [r5, #28]
 80011e0:	f7ff fe36 	bl	8000e50 <pb_decode_varint32>
 80011e4:	2800      	cmp	r0, #0
 80011e6:	d086      	beq.n	80010f6 <decode_basic_field+0xce>
 80011e8:	9a02      	ldr	r2, [sp, #8]
 80011ea:	1c53      	adds	r3, r2, #1
 80011ec:	d102      	bne.n	80011f4 <decode_basic_field+0x1cc>
 80011ee:	68e3      	ldr	r3, [r4, #12]
 80011f0:	4a3b      	ldr	r2, [pc, #236]	@ (80012e0 <decode_basic_field+0x2b8>)
 80011f2:	e737      	b.n	8001064 <decode_basic_field+0x3c>
 80011f4:	7dab      	ldrb	r3, [r5, #22]
 80011f6:	1c51      	adds	r1, r2, #1
 80011f8:	f003 03c0 	and.w	r3, r3, #192	@ 0xc0
 80011fc:	2b80      	cmp	r3, #128	@ 0x80
 80011fe:	d0db      	beq.n	80011b8 <decode_basic_field+0x190>
 8001200:	8a6b      	ldrh	r3, [r5, #18]
 8001202:	4299      	cmp	r1, r3
 8001204:	d902      	bls.n	800120c <decode_basic_field+0x1e4>
 8001206:	68e3      	ldr	r3, [r4, #12]
 8001208:	4a36      	ldr	r2, [pc, #216]	@ (80012e4 <decode_basic_field+0x2bc>)
 800120a:	e72b      	b.n	8001064 <decode_basic_field+0x3c>
 800120c:	2300      	movs	r3, #0
 800120e:	4631      	mov	r1, r6
 8001210:	54b3      	strb	r3, [r6, r2]
 8001212:	e7da      	b.n	80011ca <decode_basic_field+0x1a2>
 8001214:	2902      	cmp	r1, #2
 8001216:	f47f af23 	bne.w	8001060 <decode_basic_field+0x38>
 800121a:	a902      	add	r1, sp, #8
 800121c:	f7ff fe96 	bl	8000f4c <pb_make_string_substream>
 8001220:	2800      	cmp	r0, #0
 8001222:	f43f af68 	beq.w	80010f6 <decode_basic_field+0xce>
 8001226:	6a6b      	ldr	r3, [r5, #36]	@ 0x24
 8001228:	b913      	cbnz	r3, 8001230 <decode_basic_field+0x208>
 800122a:	68e3      	ldr	r3, [r4, #12]
 800122c:	4a2e      	ldr	r2, [pc, #184]	@ (80012e8 <decode_basic_field+0x2c0>)
 800122e:	e719      	b.n	8001064 <decode_basic_field+0x3c>
 8001230:	7dab      	ldrb	r3, [r5, #22]
 8001232:	f003 030f 	and.w	r3, r3, #15
 8001236:	2b09      	cmp	r3, #9
 8001238:	d00a      	beq.n	8001250 <decode_basic_field+0x228>
 800123a:	7dab      	ldrb	r3, [r5, #22]
 800123c:	2b3f      	cmp	r3, #63	@ 0x3f
 800123e:	d91f      	bls.n	8001280 <decode_basic_field+0x258>
 8001240:	2300      	movs	r3, #0
 8001242:	69ea      	ldr	r2, [r5, #28]
 8001244:	a802      	add	r0, sp, #8
 8001246:	6a69      	ldr	r1, [r5, #36]	@ 0x24
 8001248:	f000 f9ec 	bl	8001624 <pb_decode_inner>
 800124c:	4606      	mov	r6, r0
 800124e:	e00f      	b.n	8001270 <decode_basic_field+0x248>
 8001250:	6a2a      	ldr	r2, [r5, #32]
 8001252:	2a00      	cmp	r2, #0
 8001254:	d0f1      	beq.n	800123a <decode_basic_field+0x212>
 8001256:	f852 3c08 	ldr.w	r3, [r2, #-8]
 800125a:	2b00      	cmp	r3, #0
 800125c:	d0ed      	beq.n	800123a <decode_basic_field+0x212>
 800125e:	3a04      	subs	r2, #4
 8001260:	4629      	mov	r1, r5
 8001262:	a802      	add	r0, sp, #8
 8001264:	4798      	blx	r3
 8001266:	4606      	mov	r6, r0
 8001268:	b110      	cbz	r0, 8001270 <decode_basic_field+0x248>
 800126a:	9b04      	ldr	r3, [sp, #16]
 800126c:	2b00      	cmp	r3, #0
 800126e:	d1e4      	bne.n	800123a <decode_basic_field+0x212>
 8001270:	a902      	add	r1, sp, #8
 8001272:	4620      	mov	r0, r4
 8001274:	f7ff fe8a 	bl	8000f8c <pb_close_string_substream>
 8001278:	2800      	cmp	r0, #0
 800127a:	f47f af12 	bne.w	80010a2 <decode_basic_field+0x7a>
 800127e:	e73a      	b.n	80010f6 <decode_basic_field+0xce>
 8001280:	f003 0330 	and.w	r3, r3, #48	@ 0x30
 8001284:	3b20      	subs	r3, #32
 8001286:	bf18      	it	ne
 8001288:	2301      	movne	r3, #1
 800128a:	e7da      	b.n	8001242 <decode_basic_field+0x21a>
 800128c:	2902      	cmp	r1, #2
 800128e:	f47f aee7 	bne.w	8001060 <decode_basic_field+0x38>
 8001292:	a902      	add	r1, sp, #8
 8001294:	f7ff fddc 	bl	8000e50 <pb_decode_varint32>
 8001298:	4606      	mov	r6, r0
 800129a:	2800      	cmp	r0, #0
 800129c:	f43f af2b 	beq.w	80010f6 <decode_basic_field+0xce>
 80012a0:	9902      	ldr	r1, [sp, #8]
 80012a2:	f5b1 3f80 	cmp.w	r1, #65536	@ 0x10000
 80012a6:	f4bf af7e 	bcs.w	80011a6 <decode_basic_field+0x17e>
 80012aa:	8a6a      	ldrh	r2, [r5, #18]
 80012ac:	b919      	cbnz	r1, 80012b6 <decode_basic_field+0x28e>
 80012ae:	69e8      	ldr	r0, [r5, #28]
 80012b0:	f003 ff48 	bl	8005144 <memset>
 80012b4:	e6f5      	b.n	80010a2 <decode_basic_field+0x7a>
 80012b6:	4291      	cmp	r1, r2
 80012b8:	d002      	beq.n	80012c0 <decode_basic_field+0x298>
 80012ba:	68e3      	ldr	r3, [r4, #12]
 80012bc:	4a0b      	ldr	r2, [pc, #44]	@ (80012ec <decode_basic_field+0x2c4>)
 80012be:	e6d1      	b.n	8001064 <decode_basic_field+0x3c>
 80012c0:	460a      	mov	r2, r1
 80012c2:	69e9      	ldr	r1, [r5, #28]
 80012c4:	e781      	b.n	80011ca <decode_basic_field+0x1a2>
 80012c6:	68c3      	ldr	r3, [r0, #12]
 80012c8:	4a09      	ldr	r2, [pc, #36]	@ (80012f0 <decode_basic_field+0x2c8>)
 80012ca:	e6cb      	b.n	8001064 <decode_basic_field+0x3c>
 80012cc:	08005d18 	.word	0x08005d18
 80012d0:	08005d3a 	.word	0x08005d3a
 80012d4:	08005d28 	.word	0x08005d28
 80012d8:	08005d4c 	.word	0x08005d4c
 80012dc:	08005d5b 	.word	0x08005d5b
 80012e0:	08005d6d 	.word	0x08005d6d
 80012e4:	08005d7c 	.word	0x08005d7c
 80012e8:	08005d8c 	.word	0x08005d8c
 80012ec:	08005da5 	.word	0x08005da5
 80012f0:	08005dc7 	.word	0x08005dc7

080012f4 <decode_field>:
 80012f4:	b5f0      	push	{r4, r5, r6, r7, lr}
 80012f6:	7d93      	ldrb	r3, [r2, #22]
 80012f8:	b08f      	sub	sp, #60	@ 0x3c
 80012fa:	4605      	mov	r5, r0
 80012fc:	460e      	mov	r6, r1
 80012fe:	f003 07c0 	and.w	r7, r3, #192	@ 0xc0
 8001302:	4614      	mov	r4, r2
 8001304:	2f40      	cmp	r7, #64	@ 0x40
 8001306:	f000 8090 	beq.w	800142a <decode_field+0x136>
 800130a:	2f80      	cmp	r7, #128	@ 0x80
 800130c:	f000 808a 	beq.w	8001424 <decode_field+0x130>
 8001310:	b95f      	cbnz	r7, 800132a <decode_field+0x36>
 8001312:	f003 0c30 	and.w	ip, r3, #48	@ 0x30
 8001316:	f1bc 0f20 	cmp.w	ip, #32
 800131a:	d03d      	beq.n	8001398 <decode_field+0xa4>
 800131c:	d808      	bhi.n	8001330 <decode_field+0x3c>
 800131e:	f1bc 0f00 	cmp.w	ip, #0
 8001322:	d034      	beq.n	800138e <decode_field+0x9a>
 8001324:	f1bc 0f10 	cmp.w	ip, #16
 8001328:	d02a      	beq.n	8001380 <decode_field+0x8c>
 800132a:	68eb      	ldr	r3, [r5, #12]
 800132c:	4a6d      	ldr	r2, [pc, #436]	@ (80014e4 <decode_field+0x1f0>)
 800132e:	e05f      	b.n	80013f0 <decode_field+0xfc>
 8001330:	f1bc 0f30 	cmp.w	ip, #48	@ 0x30
 8001334:	d1f9      	bne.n	800132a <decode_field+0x36>
 8001336:	f003 030e 	and.w	r3, r3, #14
 800133a:	6a11      	ldr	r1, [r2, #32]
 800133c:	8a12      	ldrh	r2, [r2, #16]
 800133e:	2b08      	cmp	r3, #8
 8001340:	d16c      	bne.n	800141c <decode_field+0x128>
 8001342:	880b      	ldrh	r3, [r1, #0]
 8001344:	4293      	cmp	r3, r2
 8001346:	d069      	beq.n	800141c <decode_field+0x128>
 8001348:	4639      	mov	r1, r7
 800134a:	8a62      	ldrh	r2, [r4, #18]
 800134c:	69e0      	ldr	r0, [r4, #28]
 800134e:	f003 fef9 	bl	8005144 <memset>
 8001352:	6a61      	ldr	r1, [r4, #36]	@ 0x24
 8001354:	688b      	ldr	r3, [r1, #8]
 8001356:	b92b      	cbnz	r3, 8001364 <decode_field+0x70>
 8001358:	68cb      	ldr	r3, [r1, #12]
 800135a:	b91b      	cbnz	r3, 8001364 <decode_field+0x70>
 800135c:	684b      	ldr	r3, [r1, #4]
 800135e:	681b      	ldr	r3, [r3, #0]
 8001360:	2b00      	cmp	r3, #0
 8001362:	d05b      	beq.n	800141c <decode_field+0x128>
 8001364:	69e2      	ldr	r2, [r4, #28]
 8001366:	a804      	add	r0, sp, #16
 8001368:	f7ff fc29 	bl	8000bbe <pb_field_iter_begin>
 800136c:	2800      	cmp	r0, #0
 800136e:	d055      	beq.n	800141c <decode_field+0x128>
 8001370:	a804      	add	r0, sp, #16
 8001372:	f000 f8c7 	bl	8001504 <pb_message_set_to_defaults>
 8001376:	2800      	cmp	r0, #0
 8001378:	d150      	bne.n	800141c <decode_field+0x128>
 800137a:	68eb      	ldr	r3, [r5, #12]
 800137c:	4a5a      	ldr	r2, [pc, #360]	@ (80014e8 <decode_field+0x1f4>)
 800137e:	e037      	b.n	80013f0 <decode_field+0xfc>
 8001380:	6a13      	ldr	r3, [r2, #32]
 8001382:	b10b      	cbz	r3, 8001388 <decode_field+0x94>
 8001384:	2201      	movs	r2, #1
 8001386:	701a      	strb	r2, [r3, #0]
 8001388:	4622      	mov	r2, r4
 800138a:	4631      	mov	r1, r6
 800138c:	4628      	mov	r0, r5
 800138e:	b00f      	add	sp, #60	@ 0x3c
 8001390:	e8bd 40f0 	ldmia.w	sp!, {r4, r5, r6, r7, lr}
 8001394:	f7ff be48 	b.w	8001028 <decode_basic_field>
 8001398:	6a17      	ldr	r7, [r2, #32]
 800139a:	2e02      	cmp	r6, #2
 800139c:	f8b2 c012 	ldrh.w	ip, [r2, #18]
 80013a0:	8839      	ldrh	r1, [r7, #0]
 80013a2:	6992      	ldr	r2, [r2, #24]
 80013a4:	fb01 220c 	mla	r2, r1, ip, r2
 80013a8:	61e2      	str	r2, [r4, #28]
 80013aa:	d131      	bne.n	8001410 <decode_field+0x11c>
 80013ac:	f003 030f 	and.w	r3, r3, #15
 80013b0:	2b05      	cmp	r3, #5
 80013b2:	d82d      	bhi.n	8001410 <decode_field+0x11c>
 80013b4:	a904      	add	r1, sp, #16
 80013b6:	f7ff fdc9 	bl	8000f4c <pb_make_string_substream>
 80013ba:	4606      	mov	r6, r0
 80013bc:	b970      	cbnz	r0, 80013dc <decode_field+0xe8>
 80013be:	2600      	movs	r6, #0
 80013c0:	e023      	b.n	800140a <decode_field+0x116>
 80013c2:	4622      	mov	r2, r4
 80013c4:	21ff      	movs	r1, #255	@ 0xff
 80013c6:	a804      	add	r0, sp, #16
 80013c8:	f7ff fe2e 	bl	8001028 <decode_basic_field>
 80013cc:	b1a8      	cbz	r0, 80013fa <decode_field+0x106>
 80013ce:	883b      	ldrh	r3, [r7, #0]
 80013d0:	3301      	adds	r3, #1
 80013d2:	803b      	strh	r3, [r7, #0]
 80013d4:	69e3      	ldr	r3, [r4, #28]
 80013d6:	8a62      	ldrh	r2, [r4, #18]
 80013d8:	4413      	add	r3, r2
 80013da:	61e3      	str	r3, [r4, #28]
 80013dc:	9b06      	ldr	r3, [sp, #24]
 80013de:	b11b      	cbz	r3, 80013e8 <decode_field+0xf4>
 80013e0:	883a      	ldrh	r2, [r7, #0]
 80013e2:	8aa3      	ldrh	r3, [r4, #20]
 80013e4:	429a      	cmp	r2, r3
 80013e6:	d3ec      	bcc.n	80013c2 <decode_field+0xce>
 80013e8:	9b06      	ldr	r3, [sp, #24]
 80013ea:	b143      	cbz	r3, 80013fe <decode_field+0x10a>
 80013ec:	68eb      	ldr	r3, [r5, #12]
 80013ee:	4a3f      	ldr	r2, [pc, #252]	@ (80014ec <decode_field+0x1f8>)
 80013f0:	2b00      	cmp	r3, #0
 80013f2:	bf08      	it	eq
 80013f4:	4613      	moveq	r3, r2
 80013f6:	60eb      	str	r3, [r5, #12]
 80013f8:	e7e1      	b.n	80013be <decode_field+0xca>
 80013fa:	4606      	mov	r6, r0
 80013fc:	e7f4      	b.n	80013e8 <decode_field+0xf4>
 80013fe:	a904      	add	r1, sp, #16
 8001400:	4628      	mov	r0, r5
 8001402:	f7ff fdc3 	bl	8000f8c <pb_close_string_substream>
 8001406:	2800      	cmp	r0, #0
 8001408:	d0d9      	beq.n	80013be <decode_field+0xca>
 800140a:	4630      	mov	r0, r6
 800140c:	b00f      	add	sp, #60	@ 0x3c
 800140e:	bdf0      	pop	{r4, r5, r6, r7, pc}
 8001410:	1c4b      	adds	r3, r1, #1
 8001412:	803b      	strh	r3, [r7, #0]
 8001414:	8aa3      	ldrh	r3, [r4, #20]
 8001416:	428b      	cmp	r3, r1
 8001418:	d9e8      	bls.n	80013ec <decode_field+0xf8>
 800141a:	e7b5      	b.n	8001388 <decode_field+0x94>
 800141c:	8a22      	ldrh	r2, [r4, #16]
 800141e:	6a23      	ldr	r3, [r4, #32]
 8001420:	801a      	strh	r2, [r3, #0]
 8001422:	e7b1      	b.n	8001388 <decode_field+0x94>
 8001424:	68c3      	ldr	r3, [r0, #12]
 8001426:	4a32      	ldr	r2, [pc, #200]	@ (80014f0 <decode_field+0x1fc>)
 8001428:	e7e2      	b.n	80013f0 <decode_field+0xfc>
 800142a:	6813      	ldr	r3, [r2, #0]
 800142c:	68db      	ldr	r3, [r3, #12]
 800142e:	b923      	cbnz	r3, 800143a <decode_field+0x146>
 8001430:	b00f      	add	sp, #60	@ 0x3c
 8001432:	e8bd 40f0 	ldmia.w	sp!, {r4, r5, r6, r7, lr}
 8001436:	f7ff bd59 	b.w	8000eec <pb_skip_field>
 800143a:	2902      	cmp	r1, #2
 800143c:	d11c      	bne.n	8001478 <decode_field+0x184>
 800143e:	a904      	add	r1, sp, #16
 8001440:	f7ff fd84 	bl	8000f4c <pb_make_string_substream>
 8001444:	2800      	cmp	r0, #0
 8001446:	d0ba      	beq.n	80013be <decode_field+0xca>
 8001448:	6823      	ldr	r3, [r4, #0]
 800144a:	4622      	mov	r2, r4
 800144c:	2100      	movs	r1, #0
 800144e:	a804      	add	r0, sp, #16
 8001450:	68db      	ldr	r3, [r3, #12]
 8001452:	9e06      	ldr	r6, [sp, #24]
 8001454:	4798      	blx	r3
 8001456:	b928      	cbnz	r0, 8001464 <decode_field+0x170>
 8001458:	68eb      	ldr	r3, [r5, #12]
 800145a:	2b00      	cmp	r3, #0
 800145c:	d1cb      	bne.n	80013f6 <decode_field+0x102>
 800145e:	9b07      	ldr	r3, [sp, #28]
 8001460:	4a24      	ldr	r2, [pc, #144]	@ (80014f4 <decode_field+0x200>)
 8001462:	e7c5      	b.n	80013f0 <decode_field+0xfc>
 8001464:	9b06      	ldr	r3, [sp, #24]
 8001466:	b10b      	cbz	r3, 800146c <decode_field+0x178>
 8001468:	429e      	cmp	r6, r3
 800146a:	d8ed      	bhi.n	8001448 <decode_field+0x154>
 800146c:	a904      	add	r1, sp, #16
 800146e:	4628      	mov	r0, r5
 8001470:	f7ff fd8c 	bl	8000f8c <pb_close_string_substream>
 8001474:	4606      	mov	r6, r0
 8001476:	e7c8      	b.n	800140a <decode_field+0x116>
 8001478:	2901      	cmp	r1, #1
 800147a:	d021      	beq.n	80014c0 <decode_field+0x1cc>
 800147c:	2905      	cmp	r1, #5
 800147e:	d027      	beq.n	80014d0 <decode_field+0x1dc>
 8001480:	bb69      	cbnz	r1, 80014de <decode_field+0x1ea>
 8001482:	af01      	add	r7, sp, #4
 8001484:	3601      	adds	r6, #1
 8001486:	2e0b      	cmp	r6, #11
 8001488:	d102      	bne.n	8001490 <decode_field+0x19c>
 800148a:	68eb      	ldr	r3, [r5, #12]
 800148c:	4a1a      	ldr	r2, [pc, #104]	@ (80014f8 <decode_field+0x204>)
 800148e:	e7af      	b.n	80013f0 <decode_field+0xfc>
 8001490:	2201      	movs	r2, #1
 8001492:	4639      	mov	r1, r7
 8001494:	4628      	mov	r0, r5
 8001496:	f7ff fc93 	bl	8000dc0 <pb_read>
 800149a:	2800      	cmp	r0, #0
 800149c:	d08f      	beq.n	80013be <decode_field+0xca>
 800149e:	f917 3b01 	ldrsb.w	r3, [r7], #1
 80014a2:	2b00      	cmp	r3, #0
 80014a4:	dbee      	blt.n	8001484 <decode_field+0x190>
 80014a6:	4b15      	ldr	r3, [pc, #84]	@ (80014fc <decode_field+0x208>)
 80014a8:	2100      	movs	r1, #0
 80014aa:	4622      	mov	r2, r4
 80014ac:	a804      	add	r0, sp, #16
 80014ae:	9304      	str	r3, [sp, #16]
 80014b0:	ab01      	add	r3, sp, #4
 80014b2:	9107      	str	r1, [sp, #28]
 80014b4:	e9cd 3605 	strd	r3, r6, [sp, #20]
 80014b8:	6823      	ldr	r3, [r4, #0]
 80014ba:	68db      	ldr	r3, [r3, #12]
 80014bc:	4798      	blx	r3
 80014be:	e7d9      	b.n	8001474 <decode_field+0x180>
 80014c0:	2608      	movs	r6, #8
 80014c2:	2208      	movs	r2, #8
 80014c4:	a901      	add	r1, sp, #4
 80014c6:	f7ff fc7b 	bl	8000dc0 <pb_read>
 80014ca:	2800      	cmp	r0, #0
 80014cc:	d1eb      	bne.n	80014a6 <decode_field+0x1b2>
 80014ce:	e776      	b.n	80013be <decode_field+0xca>
 80014d0:	2204      	movs	r2, #4
 80014d2:	2604      	movs	r6, #4
 80014d4:	eb0d 0102 	add.w	r1, sp, r2
 80014d8:	f7ff fc72 	bl	8000dc0 <pb_read>
 80014dc:	e7f5      	b.n	80014ca <decode_field+0x1d6>
 80014de:	68c3      	ldr	r3, [r0, #12]
 80014e0:	4a07      	ldr	r2, [pc, #28]	@ (8001500 <decode_field+0x20c>)
 80014e2:	e785      	b.n	80013f0 <decode_field+0xfc>
 80014e4:	08005dc7 	.word	0x08005dc7
 80014e8:	08005de9 	.word	0x08005de9
 80014ec:	08005dda 	.word	0x08005dda
 80014f0:	08005d5b 	.word	0x08005d5b
 80014f4:	08005e00 	.word	0x08005e00
 80014f8:	08005cde 	.word	0x08005cde
 80014fc:	08000da9 	.word	0x08000da9
 8001500:	08005cee 	.word	0x08005cee

08001504 <pb_message_set_to_defaults>:
 8001504:	b570      	push	{r4, r5, r6, lr}
 8001506:	b090      	sub	sp, #64	@ 0x40
 8001508:	4604      	mov	r4, r0
 800150a:	2210      	movs	r2, #16
 800150c:	2100      	movs	r1, #0
 800150e:	a802      	add	r0, sp, #8
 8001510:	f003 fe18 	bl	8005144 <memset>
 8001514:	2300      	movs	r3, #0
 8001516:	9301      	str	r3, [sp, #4]
 8001518:	f88d 3002 	strb.w	r3, [sp, #2]
 800151c:	6823      	ldr	r3, [r4, #0]
 800151e:	689b      	ldr	r3, [r3, #8]
 8001520:	bb43      	cbnz	r3, 8001574 <pb_message_set_to_defaults+0x70>
 8001522:	2500      	movs	r5, #0
 8001524:	7da3      	ldrb	r3, [r4, #22]
 8001526:	f003 020f 	and.w	r2, r3, #15
 800152a:	2a0a      	cmp	r2, #10
 800152c:	d142      	bne.n	80015b4 <pb_message_set_to_defaults+0xb0>
 800152e:	69e3      	ldr	r3, [r4, #28]
 8001530:	681e      	ldr	r6, [r3, #0]
 8001532:	2e00      	cmp	r6, #0
 8001534:	d131      	bne.n	800159a <pb_message_set_to_defaults+0x96>
 8001536:	9b01      	ldr	r3, [sp, #4]
 8001538:	b1ab      	cbz	r3, 8001566 <pb_message_set_to_defaults+0x62>
 800153a:	8a22      	ldrh	r2, [r4, #16]
 800153c:	4293      	cmp	r3, r2
 800153e:	d112      	bne.n	8001566 <pb_message_set_to_defaults+0x62>
 8001540:	4622      	mov	r2, r4
 8001542:	f89d 1002 	ldrb.w	r1, [sp, #2]
 8001546:	a802      	add	r0, sp, #8
 8001548:	f7ff fed4 	bl	80012f4 <decode_field>
 800154c:	b310      	cbz	r0, 8001594 <pb_message_set_to_defaults+0x90>
 800154e:	f10d 0303 	add.w	r3, sp, #3
 8001552:	aa01      	add	r2, sp, #4
 8001554:	f10d 0102 	add.w	r1, sp, #2
 8001558:	a802      	add	r0, sp, #8
 800155a:	f7ff fcb3 	bl	8000ec4 <pb_decode_tag>
 800155e:	b1c8      	cbz	r0, 8001594 <pb_message_set_to_defaults+0x90>
 8001560:	6a23      	ldr	r3, [r4, #32]
 8001562:	b103      	cbz	r3, 8001566 <pb_message_set_to_defaults+0x62>
 8001564:	701d      	strb	r5, [r3, #0]
 8001566:	4620      	mov	r0, r4
 8001568:	f7ff fb4c 	bl	8000c04 <pb_field_iter_next>
 800156c:	2800      	cmp	r0, #0
 800156e:	d1d9      	bne.n	8001524 <pb_message_set_to_defaults+0x20>
 8001570:	2001      	movs	r0, #1
 8001572:	e010      	b.n	8001596 <pb_message_set_to_defaults+0x92>
 8001574:	4a2a      	ldr	r2, [pc, #168]	@ (8001620 <pb_message_set_to_defaults+0x11c>)
 8001576:	f10d 0102 	add.w	r1, sp, #2
 800157a:	a802      	add	r0, sp, #8
 800157c:	e9cd 2302 	strd	r2, r3, [sp, #8]
 8001580:	f04f 33ff 	mov.w	r3, #4294967295
 8001584:	aa01      	add	r2, sp, #4
 8001586:	9304      	str	r3, [sp, #16]
 8001588:	f10d 0303 	add.w	r3, sp, #3
 800158c:	f7ff fc9a 	bl	8000ec4 <pb_decode_tag>
 8001590:	2800      	cmp	r0, #0
 8001592:	d1c6      	bne.n	8001522 <pb_message_set_to_defaults+0x1e>
 8001594:	2000      	movs	r0, #0
 8001596:	b010      	add	sp, #64	@ 0x40
 8001598:	bd70      	pop	{r4, r5, r6, pc}
 800159a:	4631      	mov	r1, r6
 800159c:	a806      	add	r0, sp, #24
 800159e:	f7ff fb1e 	bl	8000bde <pb_field_iter_begin_extension>
 80015a2:	b128      	cbz	r0, 80015b0 <pb_message_set_to_defaults+0xac>
 80015a4:	a806      	add	r0, sp, #24
 80015a6:	7335      	strb	r5, [r6, #12]
 80015a8:	f7ff ffac 	bl	8001504 <pb_message_set_to_defaults>
 80015ac:	2800      	cmp	r0, #0
 80015ae:	d0f1      	beq.n	8001594 <pb_message_set_to_defaults+0x90>
 80015b0:	68b6      	ldr	r6, [r6, #8]
 80015b2:	e7be      	b.n	8001532 <pb_message_set_to_defaults+0x2e>
 80015b4:	2b3f      	cmp	r3, #63	@ 0x3f
 80015b6:	d829      	bhi.n	800160c <pb_message_set_to_defaults+0x108>
 80015b8:	f003 0230 	and.w	r2, r3, #48	@ 0x30
 80015bc:	2a10      	cmp	r2, #16
 80015be:	d11a      	bne.n	80015f6 <pb_message_set_to_defaults+0xf2>
 80015c0:	6a22      	ldr	r2, [r4, #32]
 80015c2:	b102      	cbz	r2, 80015c6 <pb_message_set_to_defaults+0xc2>
 80015c4:	7015      	strb	r5, [r2, #0]
 80015c6:	f003 030e 	and.w	r3, r3, #14
 80015ca:	2b08      	cmp	r3, #8
 80015cc:	d118      	bne.n	8001600 <pb_message_set_to_defaults+0xfc>
 80015ce:	6a61      	ldr	r1, [r4, #36]	@ 0x24
 80015d0:	688b      	ldr	r3, [r1, #8]
 80015d2:	b923      	cbnz	r3, 80015de <pb_message_set_to_defaults+0xda>
 80015d4:	68cb      	ldr	r3, [r1, #12]
 80015d6:	b913      	cbnz	r3, 80015de <pb_message_set_to_defaults+0xda>
 80015d8:	684b      	ldr	r3, [r1, #4]
 80015da:	681b      	ldr	r3, [r3, #0]
 80015dc:	b183      	cbz	r3, 8001600 <pb_message_set_to_defaults+0xfc>
 80015de:	69e2      	ldr	r2, [r4, #28]
 80015e0:	a806      	add	r0, sp, #24
 80015e2:	f7ff faec 	bl	8000bbe <pb_field_iter_begin>
 80015e6:	2800      	cmp	r0, #0
 80015e8:	d0a5      	beq.n	8001536 <pb_message_set_to_defaults+0x32>
 80015ea:	a806      	add	r0, sp, #24
 80015ec:	f7ff ff8a 	bl	8001504 <pb_message_set_to_defaults>
 80015f0:	2800      	cmp	r0, #0
 80015f2:	d1a0      	bne.n	8001536 <pb_message_set_to_defaults+0x32>
 80015f4:	e7ce      	b.n	8001594 <pb_message_set_to_defaults+0x90>
 80015f6:	069a      	lsls	r2, r3, #26
 80015f8:	d5e5      	bpl.n	80015c6 <pb_message_set_to_defaults+0xc2>
 80015fa:	6a23      	ldr	r3, [r4, #32]
 80015fc:	801d      	strh	r5, [r3, #0]
 80015fe:	e79a      	b.n	8001536 <pb_message_set_to_defaults+0x32>
 8001600:	8a62      	ldrh	r2, [r4, #18]
 8001602:	2100      	movs	r1, #0
 8001604:	69e0      	ldr	r0, [r4, #28]
 8001606:	f003 fd9d 	bl	8005144 <memset>
 800160a:	e794      	b.n	8001536 <pb_message_set_to_defaults+0x32>
 800160c:	f003 02c0 	and.w	r2, r3, #192	@ 0xc0
 8001610:	2a80      	cmp	r2, #128	@ 0x80
 8001612:	d190      	bne.n	8001536 <pb_message_set_to_defaults+0x32>
 8001614:	69a2      	ldr	r2, [r4, #24]
 8001616:	069b      	lsls	r3, r3, #26
 8001618:	6015      	str	r5, [r2, #0]
 800161a:	d58c      	bpl.n	8001536 <pb_message_set_to_defaults+0x32>
 800161c:	e7ed      	b.n	80015fa <pb_message_set_to_defaults+0xf6>
 800161e:	bf00      	nop
 8001620:	08000da9 	.word	0x08000da9

08001624 <pb_decode_inner>:
 8001624:	e92d 4ff0 	stmdb	sp!, {r4, r5, r6, r7, r8, r9, sl, fp, lr}
 8001628:	b09d      	sub	sp, #116	@ 0x74
 800162a:	469b      	mov	fp, r3
 800162c:	2300      	movs	r3, #0
 800162e:	4604      	mov	r4, r0
 8001630:	a808      	add	r0, sp, #32
 8001632:	f8ad 3012 	strh.w	r3, [sp, #18]
 8001636:	e9cd 3306 	strd	r3, r3, [sp, #24]
 800163a:	f7ff fac0 	bl	8000bbe <pb_field_iter_begin>
 800163e:	bb98      	cbnz	r0, 80016a8 <pb_decode_inner+0x84>
 8001640:	2700      	movs	r7, #0
 8001642:	f64f 7aff 	movw	sl, #65535	@ 0xffff
 8001646:	46b9      	mov	r9, r7
 8001648:	46b8      	mov	r8, r7
 800164a:	68a3      	ldr	r3, [r4, #8]
 800164c:	2b00      	cmp	r3, #0
 800164e:	d13a      	bne.n	80016c6 <pb_decode_inner+0xa2>
 8001650:	f64f 73ff 	movw	r3, #65535	@ 0xffff
 8001654:	459a      	cmp	sl, r3
 8001656:	d004      	beq.n	8001662 <pb_decode_inner+0x3e>
 8001658:	f8bd 3012 	ldrh.w	r3, [sp, #18]
 800165c:	42bb      	cmp	r3, r7
 800165e:	f040 80bc 	bne.w	80017da <pb_decode_inner+0x1b6>
 8001662:	9b08      	ldr	r3, [sp, #32]
 8001664:	8a5b      	ldrh	r3, [r3, #18]
 8001666:	b1eb      	cbz	r3, 80016a4 <pb_decode_inner+0x80>
 8001668:	2b40      	cmp	r3, #64	@ 0x40
 800166a:	a806      	add	r0, sp, #24
 800166c:	f04f 0200 	mov.w	r2, #0
 8001670:	bf28      	it	cs
 8001672:	2340      	movcs	r3, #64	@ 0x40
 8001674:	0959      	lsrs	r1, r3, #5
 8001676:	b295      	uxth	r5, r2
 8001678:	42a9      	cmp	r1, r5
 800167a:	f200 80d5 	bhi.w	8001828 <pb_decode_inner+0x204>
 800167e:	f003 021f 	and.w	r2, r3, #31
 8001682:	06db      	lsls	r3, r3, #27
 8001684:	d00e      	beq.n	80016a4 <pb_decode_inner+0x80>
 8001686:	ab1c      	add	r3, sp, #112	@ 0x70
 8001688:	eb03 0181 	add.w	r1, r3, r1, lsl #2
 800168c:	f1c2 0320 	rsb	r3, r2, #32
 8001690:	f04f 32ff 	mov.w	r2, #4294967295
 8001694:	b2db      	uxtb	r3, r3
 8001696:	fa22 f303 	lsr.w	r3, r2, r3
 800169a:	f851 2c58 	ldr.w	r2, [r1, #-88]
 800169e:	429a      	cmp	r2, r3
 80016a0:	f040 80c8 	bne.w	8001834 <pb_decode_inner+0x210>
 80016a4:	2001      	movs	r0, #1
 80016a6:	e01b      	b.n	80016e0 <pb_decode_inner+0xbc>
 80016a8:	f01b 0f01 	tst.w	fp, #1
 80016ac:	d1c8      	bne.n	8001640 <pb_decode_inner+0x1c>
 80016ae:	a808      	add	r0, sp, #32
 80016b0:	f7ff ff28 	bl	8001504 <pb_message_set_to_defaults>
 80016b4:	2800      	cmp	r0, #0
 80016b6:	d1c3      	bne.n	8001640 <pb_decode_inner+0x1c>
 80016b8:	68e3      	ldr	r3, [r4, #12]
 80016ba:	4a63      	ldr	r2, [pc, #396]	@ (8001848 <pb_decode_inner+0x224>)
 80016bc:	2b00      	cmp	r3, #0
 80016be:	bf08      	it	eq
 80016c0:	4613      	moveq	r3, r2
 80016c2:	60e3      	str	r3, [r4, #12]
 80016c4:	e00b      	b.n	80016de <pb_decode_inner+0xba>
 80016c6:	f10d 0311 	add.w	r3, sp, #17
 80016ca:	aa05      	add	r2, sp, #20
 80016cc:	a904      	add	r1, sp, #16
 80016ce:	4620      	mov	r0, r4
 80016d0:	f7ff fbf8 	bl	8000ec4 <pb_decode_tag>
 80016d4:	b938      	cbnz	r0, 80016e6 <pb_decode_inner+0xc2>
 80016d6:	f89d 3011 	ldrb.w	r3, [sp, #17]
 80016da:	2b00      	cmp	r3, #0
 80016dc:	d1b8      	bne.n	8001650 <pb_decode_inner+0x2c>
 80016de:	2000      	movs	r0, #0
 80016e0:	b01d      	add	sp, #116	@ 0x74
 80016e2:	e8bd 8ff0 	ldmia.w	sp!, {r4, r5, r6, r7, r8, r9, sl, fp, pc}
 80016e6:	9b05      	ldr	r3, [sp, #20]
 80016e8:	9301      	str	r3, [sp, #4]
 80016ea:	b92b      	cbnz	r3, 80016f8 <pb_decode_inner+0xd4>
 80016ec:	f01b 0f04 	tst.w	fp, #4
 80016f0:	d1ae      	bne.n	8001650 <pb_decode_inner+0x2c>
 80016f2:	68e3      	ldr	r3, [r4, #12]
 80016f4:	4a55      	ldr	r2, [pc, #340]	@ (800184c <pb_decode_inner+0x228>)
 80016f6:	e7e1      	b.n	80016bc <pb_decode_inner+0x98>
 80016f8:	9901      	ldr	r1, [sp, #4]
 80016fa:	a808      	add	r0, sp, #32
 80016fc:	f7ff fa8d 	bl	8000c1a <pb_field_iter_find>
 8001700:	b128      	cbz	r0, 800170e <pb_decode_inner+0xea>
 8001702:	f89d 3036 	ldrb.w	r3, [sp, #54]	@ 0x36
 8001706:	f003 020f 	and.w	r2, r3, #15
 800170a:	2a0a      	cmp	r2, #10
 800170c:	d151      	bne.n	80017b2 <pb_decode_inner+0x18e>
 800170e:	f1b8 0f00 	cmp.w	r8, #0
 8001712:	d10e      	bne.n	8001732 <pb_decode_inner+0x10e>
 8001714:	a808      	add	r0, sp, #32
 8001716:	f7ff fab0 	bl	8000c7a <pb_field_iter_find_extension>
 800171a:	2800      	cmp	r0, #0
 800171c:	f000 808d 	beq.w	800183a <pb_decode_inner+0x216>
 8001720:	9b0f      	ldr	r3, [sp, #60]	@ 0x3c
 8001722:	f8d3 9000 	ldr.w	r9, [r3]
 8001726:	f1b9 0f00 	cmp.w	r9, #0
 800172a:	f000 808a 	beq.w	8001842 <pb_decode_inner+0x21e>
 800172e:	f8bd 8030 	ldrh.w	r8, [sp, #48]	@ 0x30
 8001732:	9b01      	ldr	r3, [sp, #4]
 8001734:	4543      	cmp	r3, r8
 8001736:	d333      	bcc.n	80017a0 <pb_decode_inner+0x17c>
 8001738:	68a3      	ldr	r3, [r4, #8]
 800173a:	464d      	mov	r5, r9
 800173c:	9303      	str	r3, [sp, #12]
 800173e:	f89d 3010 	ldrb.w	r3, [sp, #16]
 8001742:	9302      	str	r3, [sp, #8]
 8001744:	68a3      	ldr	r3, [r4, #8]
 8001746:	9a03      	ldr	r2, [sp, #12]
 8001748:	b33d      	cbz	r5, 800179a <pb_decode_inner+0x176>
 800174a:	4293      	cmp	r3, r2
 800174c:	f47f af7d 	bne.w	800164a <pb_decode_inner+0x26>
 8001750:	682b      	ldr	r3, [r5, #0]
 8001752:	681b      	ldr	r3, [r3, #0]
 8001754:	461e      	mov	r6, r3
 8001756:	b143      	cbz	r3, 800176a <pb_decode_inner+0x146>
 8001758:	4629      	mov	r1, r5
 800175a:	4620      	mov	r0, r4
 800175c:	e9dd 2301 	ldrd	r2, r3, [sp, #4]
 8001760:	47b0      	blx	r6
 8001762:	2800      	cmp	r0, #0
 8001764:	d0bb      	beq.n	80016de <pb_decode_inner+0xba>
 8001766:	68ad      	ldr	r5, [r5, #8]
 8001768:	e7ec      	b.n	8001744 <pb_decode_inner+0x120>
 800176a:	4629      	mov	r1, r5
 800176c:	a812      	add	r0, sp, #72	@ 0x48
 800176e:	f7ff fa36 	bl	8000bde <pb_field_iter_begin_extension>
 8001772:	b910      	cbnz	r0, 800177a <pb_decode_inner+0x156>
 8001774:	68e3      	ldr	r3, [r4, #12]
 8001776:	4a36      	ldr	r2, [pc, #216]	@ (8001850 <pb_decode_inner+0x22c>)
 8001778:	e7a0      	b.n	80016bc <pb_decode_inner+0x98>
 800177a:	f8bd 3058 	ldrh.w	r3, [sp, #88]	@ 0x58
 800177e:	9a01      	ldr	r2, [sp, #4]
 8001780:	429a      	cmp	r2, r3
 8001782:	d1f0      	bne.n	8001766 <pb_decode_inner+0x142>
 8001784:	9b13      	ldr	r3, [sp, #76]	@ 0x4c
 8001786:	2b00      	cmp	r3, #0
 8001788:	d0ed      	beq.n	8001766 <pb_decode_inner+0x142>
 800178a:	2301      	movs	r3, #1
 800178c:	aa12      	add	r2, sp, #72	@ 0x48
 800178e:	9902      	ldr	r1, [sp, #8]
 8001790:	4620      	mov	r0, r4
 8001792:	732b      	strb	r3, [r5, #12]
 8001794:	f7ff fdae 	bl	80012f4 <decode_field>
 8001798:	e7e3      	b.n	8001762 <pb_decode_inner+0x13e>
 800179a:	4293      	cmp	r3, r2
 800179c:	f47f af55 	bne.w	800164a <pb_decode_inner+0x26>
 80017a0:	f89d 1010 	ldrb.w	r1, [sp, #16]
 80017a4:	4620      	mov	r0, r4
 80017a6:	f7ff fba1 	bl	8000eec <pb_skip_field>
 80017aa:	2800      	cmp	r0, #0
 80017ac:	f47f af4d 	bne.w	800164a <pb_decode_inner+0x26>
 80017b0:	e795      	b.n	80016de <pb_decode_inner+0xba>
 80017b2:	f003 0330 	and.w	r3, r3, #48	@ 0x30
 80017b6:	2b20      	cmp	r3, #32
 80017b8:	d122      	bne.n	8001800 <pb_decode_inner+0x1dc>
 80017ba:	ab0d      	add	r3, sp, #52	@ 0x34
 80017bc:	9a10      	ldr	r2, [sp, #64]	@ 0x40
 80017be:	429a      	cmp	r2, r3
 80017c0:	d117      	bne.n	80017f2 <pb_decode_inner+0x1ce>
 80017c2:	f8bd 3028 	ldrh.w	r3, [sp, #40]	@ 0x28
 80017c6:	4553      	cmp	r3, sl
 80017c8:	d010      	beq.n	80017ec <pb_decode_inner+0x1c8>
 80017ca:	f64f 72ff 	movw	r2, #65535	@ 0xffff
 80017ce:	4592      	cmp	sl, r2
 80017d0:	d006      	beq.n	80017e0 <pb_decode_inner+0x1bc>
 80017d2:	f8bd 2012 	ldrh.w	r2, [sp, #18]
 80017d6:	42ba      	cmp	r2, r7
 80017d8:	d002      	beq.n	80017e0 <pb_decode_inner+0x1bc>
 80017da:	68e3      	ldr	r3, [r4, #12]
 80017dc:	4a1d      	ldr	r2, [pc, #116]	@ (8001854 <pb_decode_inner+0x230>)
 80017de:	e76d      	b.n	80016bc <pb_decode_inner+0x98>
 80017e0:	2200      	movs	r2, #0
 80017e2:	f8bd 7034 	ldrh.w	r7, [sp, #52]	@ 0x34
 80017e6:	469a      	mov	sl, r3
 80017e8:	f8ad 2012 	strh.w	r2, [sp, #18]
 80017ec:	f10d 0312 	add.w	r3, sp, #18
 80017f0:	9310      	str	r3, [sp, #64]	@ 0x40
 80017f2:	aa08      	add	r2, sp, #32
 80017f4:	f89d 1010 	ldrb.w	r1, [sp, #16]
 80017f8:	4620      	mov	r0, r4
 80017fa:	f7ff fd7b 	bl	80012f4 <decode_field>
 80017fe:	e7d4      	b.n	80017aa <pb_decode_inner+0x186>
 8001800:	2b00      	cmp	r3, #0
 8001802:	d1f6      	bne.n	80017f2 <pb_decode_inner+0x1ce>
 8001804:	f8bd 302c 	ldrh.w	r3, [sp, #44]	@ 0x2c
 8001808:	2b3f      	cmp	r3, #63	@ 0x3f
 800180a:	d8f2      	bhi.n	80017f2 <pb_decode_inner+0x1ce>
 800180c:	0959      	lsrs	r1, r3, #5
 800180e:	aa1c      	add	r2, sp, #112	@ 0x70
 8001810:	eb02 0181 	add.w	r1, r2, r1, lsl #2
 8001814:	f003 021f 	and.w	r2, r3, #31
 8001818:	2301      	movs	r3, #1
 800181a:	4093      	lsls	r3, r2
 800181c:	f851 2c58 	ldr.w	r2, [r1, #-88]
 8001820:	4313      	orrs	r3, r2
 8001822:	f841 3c58 	str.w	r3, [r1, #-88]
 8001826:	e7e4      	b.n	80017f2 <pb_decode_inner+0x1ce>
 8001828:	f850 5b04 	ldr.w	r5, [r0], #4
 800182c:	3201      	adds	r2, #1
 800182e:	3501      	adds	r5, #1
 8001830:	f43f af21 	beq.w	8001676 <pb_decode_inner+0x52>
 8001834:	68e3      	ldr	r3, [r4, #12]
 8001836:	4a08      	ldr	r2, [pc, #32]	@ (8001858 <pb_decode_inner+0x234>)
 8001838:	e740      	b.n	80016bc <pb_decode_inner+0x98>
 800183a:	f1b9 0f00 	cmp.w	r9, #0
 800183e:	f47f af7b 	bne.w	8001738 <pb_decode_inner+0x114>
 8001842:	f04f 38ff 	mov.w	r8, #4294967295
 8001846:	e774      	b.n	8001732 <pb_decode_inner+0x10e>
 8001848:	08005de9 	.word	0x08005de9
 800184c:	08005e10 	.word	0x08005e10
 8001850:	08005e19 	.word	0x08005e19
 8001854:	08005e2b 	.word	0x08005e2b
 8001858:	08005e4c 	.word	0x08005e4c

0800185c <pb_decode>:
 800185c:	2300      	movs	r3, #0
 800185e:	f7ff bee1 	b.w	8001624 <pb_decode_inner>
	...

08001864 <HAL_MspInit>:
 8001864:	4b07      	ldr	r3, [pc, #28]	@ (8001884 <HAL_MspInit+0x20>)
 8001866:	b082      	sub	sp, #8
 8001868:	f8d3 2154 	ldr.w	r2, [r3, #340]	@ 0x154
 800186c:	f042 0202 	orr.w	r2, r2, #2
 8001870:	f8c3 2154 	str.w	r2, [r3, #340]	@ 0x154
 8001874:	f8d3 3154 	ldr.w	r3, [r3, #340]	@ 0x154
 8001878:	f003 0302 	and.w	r3, r3, #2
 800187c:	9301      	str	r3, [sp, #4]
 800187e:	9b01      	ldr	r3, [sp, #4]
 8001880:	b002      	add	sp, #8
 8001882:	4770      	bx	lr
 8001884:	58024400 	.word	0x58024400

08001888 <NMI_Handler>:
 8001888:	e7fe      	b.n	8001888 <NMI_Handler>

0800188a <HardFault_Handler>:
 800188a:	e7fe      	b.n	800188a <HardFault_Handler>

0800188c <MemManage_Handler>:
 800188c:	e7fe      	b.n	800188c <MemManage_Handler>

0800188e <BusFault_Handler>:
 800188e:	e7fe      	b.n	800188e <BusFault_Handler>

08001890 <UsageFault_Handler>:
 8001890:	e7fe      	b.n	8001890 <UsageFault_Handler>

08001892 <SVC_Handler>:
 8001892:	4770      	bx	lr

08001894 <DebugMon_Handler>:
 8001894:	4770      	bx	lr

08001896 <PendSV_Handler>:
 8001896:	4770      	bx	lr

08001898 <SysTick_Handler>:
 8001898:	f000 b9c0 	b.w	8001c1c <HAL_IncTick>

0800189c <USART3_IRQHandler>:
 800189c:	4801      	ldr	r0, [pc, #4]	@ (80018a4 <USART3_IRQHandler+0x8>)
 800189e:	f002 b9f1 	b.w	8003c84 <HAL_UART_IRQHandler>
 80018a2:	bf00      	nop
 80018a4:	240004a8 	.word	0x240004a8

080018a8 <_read>:
 80018a8:	b570      	push	{r4, r5, r6, lr}
 80018aa:	460d      	mov	r5, r1
 80018ac:	4614      	mov	r4, r2
 80018ae:	460e      	mov	r6, r1
 80018b0:	1b73      	subs	r3, r6, r5
 80018b2:	429c      	cmp	r4, r3
 80018b4:	dc01      	bgt.n	80018ba <_read+0x12>
 80018b6:	4620      	mov	r0, r4
 80018b8:	bd70      	pop	{r4, r5, r6, pc}
 80018ba:	f3af 8000 	nop.w
 80018be:	f806 0b01 	strb.w	r0, [r6], #1
 80018c2:	e7f5      	b.n	80018b0 <_read+0x8>

080018c4 <_write>:
 80018c4:	b570      	push	{r4, r5, r6, lr}
 80018c6:	460d      	mov	r5, r1
 80018c8:	4614      	mov	r4, r2
 80018ca:	460e      	mov	r6, r1
 80018cc:	1b73      	subs	r3, r6, r5
 80018ce:	429c      	cmp	r4, r3
 80018d0:	dc01      	bgt.n	80018d6 <_write+0x12>
 80018d2:	4620      	mov	r0, r4
 80018d4:	bd70      	pop	{r4, r5, r6, pc}
 80018d6:	f816 0b01 	ldrb.w	r0, [r6], #1
 80018da:	f7fe ff99 	bl	8000810 <__io_putchar>
 80018de:	e7f5      	b.n	80018cc <_write+0x8>

080018e0 <_close>:
 80018e0:	f04f 30ff 	mov.w	r0, #4294967295
 80018e4:	4770      	bx	lr

080018e6 <_fstat>:
 80018e6:	f44f 5300 	mov.w	r3, #8192	@ 0x2000
 80018ea:	2000      	movs	r0, #0
 80018ec:	604b      	str	r3, [r1, #4]
 80018ee:	4770      	bx	lr

080018f0 <_isatty>:
 80018f0:	2001      	movs	r0, #1
 80018f2:	4770      	bx	lr

080018f4 <_lseek>:
 80018f4:	2000      	movs	r0, #0
 80018f6:	4770      	bx	lr

080018f8 <_sbrk>:
 80018f8:	4a0b      	ldr	r2, [pc, #44]	@ (8001928 <_sbrk+0x30>)
 80018fa:	4603      	mov	r3, r0
 80018fc:	6811      	ldr	r1, [r2, #0]
 80018fe:	b510      	push	{r4, lr}
 8001900:	b909      	cbnz	r1, 8001906 <_sbrk+0xe>
 8001902:	490a      	ldr	r1, [pc, #40]	@ (800192c <_sbrk+0x34>)
 8001904:	6011      	str	r1, [r2, #0]
 8001906:	6810      	ldr	r0, [r2, #0]
 8001908:	4909      	ldr	r1, [pc, #36]	@ (8001930 <_sbrk+0x38>)
 800190a:	4c0a      	ldr	r4, [pc, #40]	@ (8001934 <_sbrk+0x3c>)
 800190c:	4403      	add	r3, r0
 800190e:	1b09      	subs	r1, r1, r4
 8001910:	428b      	cmp	r3, r1
 8001912:	d906      	bls.n	8001922 <_sbrk+0x2a>
 8001914:	f003 fc64 	bl	80051e0 <__errno>
 8001918:	230c      	movs	r3, #12
 800191a:	6003      	str	r3, [r0, #0]
 800191c:	f04f 30ff 	mov.w	r0, #4294967295
 8001920:	bd10      	pop	{r4, pc}
 8001922:	6013      	str	r3, [r2, #0]
 8001924:	e7fc      	b.n	8001920 <_sbrk+0x28>
 8001926:	bf00      	nop
 8001928:	240004a4 	.word	0x240004a4
 800192c:	24000690 	.word	0x24000690
 8001930:	24100000 	.word	0x24100000
 8001934:	00000400 	.word	0x00000400

08001938 <SystemInit>:
 8001938:	4a28      	ldr	r2, [pc, #160]	@ (80019dc <SystemInit+0xa4>)
 800193a:	f8d2 3088 	ldr.w	r3, [r2, #136]	@ 0x88
 800193e:	f443 0370 	orr.w	r3, r3, #15728640	@ 0xf00000
 8001942:	f8c2 3088 	str.w	r3, [r2, #136]	@ 0x88
 8001946:	4a26      	ldr	r2, [pc, #152]	@ (80019e0 <SystemInit+0xa8>)
 8001948:	6813      	ldr	r3, [r2, #0]
 800194a:	f003 030f 	and.w	r3, r3, #15
 800194e:	2b02      	cmp	r3, #2
 8001950:	d805      	bhi.n	800195e <SystemInit+0x26>
 8001952:	6813      	ldr	r3, [r2, #0]
 8001954:	f023 030f 	bic.w	r3, r3, #15
 8001958:	f043 0303 	orr.w	r3, r3, #3
 800195c:	6013      	str	r3, [r2, #0]
 800195e:	4b21      	ldr	r3, [pc, #132]	@ (80019e4 <SystemInit+0xac>)
 8001960:	681a      	ldr	r2, [r3, #0]
 8001962:	f042 0201 	orr.w	r2, r2, #1
 8001966:	601a      	str	r2, [r3, #0]
 8001968:	2200      	movs	r2, #0
 800196a:	611a      	str	r2, [r3, #16]
 800196c:	4a1e      	ldr	r2, [pc, #120]	@ (80019e8 <SystemInit+0xb0>)
 800196e:	6819      	ldr	r1, [r3, #0]
 8001970:	400a      	ands	r2, r1
 8001972:	491b      	ldr	r1, [pc, #108]	@ (80019e0 <SystemInit+0xa8>)
 8001974:	601a      	str	r2, [r3, #0]
 8001976:	680a      	ldr	r2, [r1, #0]
 8001978:	f012 0f0c 	tst.w	r2, #12
 800197c:	d005      	beq.n	800198a <SystemInit+0x52>
 800197e:	680a      	ldr	r2, [r1, #0]
 8001980:	f022 020f 	bic.w	r2, r2, #15
 8001984:	f042 0203 	orr.w	r2, r2, #3
 8001988:	600a      	str	r2, [r1, #0]
 800198a:	2200      	movs	r2, #0
 800198c:	4917      	ldr	r1, [pc, #92]	@ (80019ec <SystemInit+0xb4>)
 800198e:	619a      	str	r2, [r3, #24]
 8001990:	61da      	str	r2, [r3, #28]
 8001992:	621a      	str	r2, [r3, #32]
 8001994:	6299      	str	r1, [r3, #40]	@ 0x28
 8001996:	4916      	ldr	r1, [pc, #88]	@ (80019f0 <SystemInit+0xb8>)
 8001998:	62d9      	str	r1, [r3, #44]	@ 0x2c
 800199a:	4916      	ldr	r1, [pc, #88]	@ (80019f4 <SystemInit+0xbc>)
 800199c:	6319      	str	r1, [r3, #48]	@ 0x30
 800199e:	635a      	str	r2, [r3, #52]	@ 0x34
 80019a0:	6399      	str	r1, [r3, #56]	@ 0x38
 80019a2:	63da      	str	r2, [r3, #60]	@ 0x3c
 80019a4:	6419      	str	r1, [r3, #64]	@ 0x40
 80019a6:	645a      	str	r2, [r3, #68]	@ 0x44
 80019a8:	6819      	ldr	r1, [r3, #0]
 80019aa:	f421 2180 	bic.w	r1, r1, #262144	@ 0x40000
 80019ae:	6019      	str	r1, [r3, #0]
 80019b0:	661a      	str	r2, [r3, #96]	@ 0x60
 80019b2:	f8d3 2134 	ldr.w	r2, [r3, #308]	@ 0x134
 80019b6:	04d2      	lsls	r2, r2, #19
 80019b8:	d40f      	bmi.n	80019da <SystemInit+0xa2>
 80019ba:	f8d3 2134 	ldr.w	r2, [r3, #308]	@ 0x134
 80019be:	f243 01d2 	movw	r1, #12498	@ 0x30d2
 80019c2:	f442 5280 	orr.w	r2, r2, #4096	@ 0x1000
 80019c6:	f8c3 2134 	str.w	r2, [r3, #308]	@ 0x134
 80019ca:	4a0b      	ldr	r2, [pc, #44]	@ (80019f8 <SystemInit+0xc0>)
 80019cc:	6011      	str	r1, [r2, #0]
 80019ce:	f8d3 2134 	ldr.w	r2, [r3, #308]	@ 0x134
 80019d2:	f422 5280 	bic.w	r2, r2, #4096	@ 0x1000
 80019d6:	f8c3 2134 	str.w	r2, [r3, #308]	@ 0x134
 80019da:	4770      	bx	lr
 80019dc:	e000ed00 	.word	0xe000ed00
 80019e0:	52002000 	.word	0x52002000
 80019e4:	58024400 	.word	0x58024400
 80019e8:	eaf6ed7f 	.word	0xeaf6ed7f
 80019ec:	02020200 	.word	0x02020200
 80019f0:	01ff0000 	.word	0x01ff0000
 80019f4:	01010280 	.word	0x01010280
 80019f8:	52004000 	.word	0x52004000

080019fc <ExitRun0Mode>:
 80019fc:	4b04      	ldr	r3, [pc, #16]	@ (8001a10 <ExitRun0Mode+0x14>)
 80019fe:	68da      	ldr	r2, [r3, #12]
 8001a00:	f022 0202 	bic.w	r2, r2, #2
 8001a04:	60da      	str	r2, [r3, #12]
 8001a06:	685a      	ldr	r2, [r3, #4]
 8001a08:	0492      	lsls	r2, r2, #18
 8001a0a:	d5fc      	bpl.n	8001a06 <ExitRun0Mode+0xa>
 8001a0c:	4770      	bx	lr
 8001a0e:	bf00      	nop
 8001a10:	58024800 	.word	0x58024800

08001a14 <MX_USART3_UART_Init>:
 8001a14:	b508      	push	{r3, lr}
 8001a16:	4816      	ldr	r0, [pc, #88]	@ (8001a70 <MX_USART3_UART_Init+0x5c>)
 8001a18:	f44f 33e1 	mov.w	r3, #115200	@ 0x1c200
 8001a1c:	4a15      	ldr	r2, [pc, #84]	@ (8001a74 <MX_USART3_UART_Init+0x60>)
 8001a1e:	e9c0 2300 	strd	r2, r3, [r0]
 8001a22:	2300      	movs	r3, #0
 8001a24:	220c      	movs	r2, #12
 8001a26:	e9c0 3302 	strd	r3, r3, [r0, #8]
 8001a2a:	6103      	str	r3, [r0, #16]
 8001a2c:	e9c0 2305 	strd	r2, r3, [r0, #20]
 8001a30:	e9c0 3307 	strd	r3, r3, [r0, #28]
 8001a34:	e9c0 3309 	strd	r3, r3, [r0, #36]	@ 0x24
 8001a38:	f003 f823 	bl	8004a82 <HAL_UART_Init>
 8001a3c:	b108      	cbz	r0, 8001a42 <MX_USART3_UART_Init+0x2e>
 8001a3e:	f7ff f829 	bl	8000a94 <Error_Handler>
 8001a42:	2100      	movs	r1, #0
 8001a44:	480a      	ldr	r0, [pc, #40]	@ (8001a70 <MX_USART3_UART_Init+0x5c>)
 8001a46:	f003 f933 	bl	8004cb0 <HAL_UARTEx_SetTxFifoThreshold>
 8001a4a:	b108      	cbz	r0, 8001a50 <MX_USART3_UART_Init+0x3c>
 8001a4c:	f7ff f822 	bl	8000a94 <Error_Handler>
 8001a50:	2100      	movs	r1, #0
 8001a52:	4807      	ldr	r0, [pc, #28]	@ (8001a70 <MX_USART3_UART_Init+0x5c>)
 8001a54:	f003 f94c 	bl	8004cf0 <HAL_UARTEx_SetRxFifoThreshold>
 8001a58:	b108      	cbz	r0, 8001a5e <MX_USART3_UART_Init+0x4a>
 8001a5a:	f7ff f81b 	bl	8000a94 <Error_Handler>
 8001a5e:	4804      	ldr	r0, [pc, #16]	@ (8001a70 <MX_USART3_UART_Init+0x5c>)
 8001a60:	f003 f90b 	bl	8004c7a <HAL_UARTEx_DisableFifoMode>
 8001a64:	b118      	cbz	r0, 8001a6e <MX_USART3_UART_Init+0x5a>
 8001a66:	e8bd 4008 	ldmia.w	sp!, {r3, lr}
 8001a6a:	f7ff b813 	b.w	8000a94 <Error_Handler>
 8001a6e:	bd08      	pop	{r3, pc}
 8001a70:	240004a8 	.word	0x240004a8
 8001a74:	40004800 	.word	0x40004800

08001a78 <HAL_UART_MspInit>:
 8001a78:	b510      	push	{r4, lr}
 8001a7a:	b0b8      	sub	sp, #224	@ 0xe0
 8001a7c:	4604      	mov	r4, r0
 8001a7e:	2214      	movs	r2, #20
 8001a80:	2100      	movs	r1, #0
 8001a82:	a803      	add	r0, sp, #12
 8001a84:	f003 fb5e 	bl	8005144 <memset>
 8001a88:	22c0      	movs	r2, #192	@ 0xc0
 8001a8a:	2100      	movs	r1, #0
 8001a8c:	a808      	add	r0, sp, #32
 8001a8e:	f003 fb59 	bl	8005144 <memset>
 8001a92:	6822      	ldr	r2, [r4, #0]
 8001a94:	4b1e      	ldr	r3, [pc, #120]	@ (8001b10 <HAL_UART_MspInit+0x98>)
 8001a96:	429a      	cmp	r2, r3
 8001a98:	d138      	bne.n	8001b0c <HAL_UART_MspInit+0x94>
 8001a9a:	2202      	movs	r2, #2
 8001a9c:	2300      	movs	r3, #0
 8001a9e:	a808      	add	r0, sp, #32
 8001aa0:	e9cd 2308 	strd	r2, r3, [sp, #32]
 8001aa4:	f001 fa94 	bl	8002fd0 <HAL_RCCEx_PeriphCLKConfig>
 8001aa8:	b108      	cbz	r0, 8001aae <HAL_UART_MspInit+0x36>
 8001aaa:	f7fe fff3 	bl	8000a94 <Error_Handler>
 8001aae:	4b19      	ldr	r3, [pc, #100]	@ (8001b14 <HAL_UART_MspInit+0x9c>)
 8001ab0:	2400      	movs	r4, #0
 8001ab2:	a903      	add	r1, sp, #12
 8001ab4:	4818      	ldr	r0, [pc, #96]	@ (8001b18 <HAL_UART_MspInit+0xa0>)
 8001ab6:	f8d3 2148 	ldr.w	r2, [r3, #328]	@ 0x148
 8001aba:	f442 2280 	orr.w	r2, r2, #262144	@ 0x40000
 8001abe:	f8c3 2148 	str.w	r2, [r3, #328]	@ 0x148
 8001ac2:	f8d3 2148 	ldr.w	r2, [r3, #328]	@ 0x148
 8001ac6:	f402 2280 	and.w	r2, r2, #262144	@ 0x40000
 8001aca:	9201      	str	r2, [sp, #4]
 8001acc:	9a01      	ldr	r2, [sp, #4]
 8001ace:	f8d3 2140 	ldr.w	r2, [r3, #320]	@ 0x140
 8001ad2:	f042 0208 	orr.w	r2, r2, #8
 8001ad6:	f8c3 2140 	str.w	r2, [r3, #320]	@ 0x140
 8001ada:	f44f 7240 	mov.w	r2, #768	@ 0x300
 8001ade:	f8d3 3140 	ldr.w	r3, [r3, #320]	@ 0x140
 8001ae2:	f003 0308 	and.w	r3, r3, #8
 8001ae6:	9302      	str	r3, [sp, #8]
 8001ae8:	9b02      	ldr	r3, [sp, #8]
 8001aea:	2302      	movs	r3, #2
 8001aec:	e9cd 2303 	strd	r2, r3, [sp, #12]
 8001af0:	2307      	movs	r3, #7
 8001af2:	e9cd 4405 	strd	r4, r4, [sp, #20]
 8001af6:	9307      	str	r3, [sp, #28]
 8001af8:	f000 fb9a 	bl	8002230 <HAL_GPIO_Init>
 8001afc:	2027      	movs	r0, #39	@ 0x27
 8001afe:	4622      	mov	r2, r4
 8001b00:	4621      	mov	r1, r4
 8001b02:	f000 f8c1 	bl	8001c88 <HAL_NVIC_SetPriority>
 8001b06:	2027      	movs	r0, #39	@ 0x27
 8001b08:	f000 f8f0 	bl	8001cec <HAL_NVIC_EnableIRQ>
 8001b0c:	b038      	add	sp, #224	@ 0xe0
 8001b0e:	bd10      	pop	{r4, pc}
 8001b10:	40004800 	.word	0x40004800
 8001b14:	58024400 	.word	0x58024400
 8001b18:	58020c00 	.word	0x58020c00

08001b1c <Reset_Handler>:
 8001b1c:	f8df d038 	ldr.w	sp, [pc, #56]	@ 8001b58 <LoopFillZerobss+0xe>
 8001b20:	f7ff ff6c 	bl	80019fc <ExitRun0Mode>
 8001b24:	f7ff ff08 	bl	8001938 <SystemInit>
 8001b28:	480c      	ldr	r0, [pc, #48]	@ (8001b5c <LoopFillZerobss+0x12>)
 8001b2a:	490d      	ldr	r1, [pc, #52]	@ (8001b60 <LoopFillZerobss+0x16>)
 8001b2c:	4a0d      	ldr	r2, [pc, #52]	@ (8001b64 <LoopFillZerobss+0x1a>)
 8001b2e:	2300      	movs	r3, #0
 8001b30:	e002      	b.n	8001b38 <LoopCopyDataInit>

08001b32 <CopyDataInit>:
 8001b32:	58d4      	ldr	r4, [r2, r3]
 8001b34:	50c4      	str	r4, [r0, r3]
 8001b36:	3304      	adds	r3, #4

08001b38 <LoopCopyDataInit>:
 8001b38:	18c4      	adds	r4, r0, r3
 8001b3a:	428c      	cmp	r4, r1
 8001b3c:	d3f9      	bcc.n	8001b32 <CopyDataInit>
 8001b3e:	4a0a      	ldr	r2, [pc, #40]	@ (8001b68 <LoopFillZerobss+0x1e>)
 8001b40:	4c0a      	ldr	r4, [pc, #40]	@ (8001b6c <LoopFillZerobss+0x22>)
 8001b42:	2300      	movs	r3, #0
 8001b44:	e001      	b.n	8001b4a <LoopFillZerobss>

08001b46 <FillZerobss>:
 8001b46:	6013      	str	r3, [r2, #0]
 8001b48:	3204      	adds	r2, #4

08001b4a <LoopFillZerobss>:
 8001b4a:	42a2      	cmp	r2, r4
 8001b4c:	d3fb      	bcc.n	8001b46 <FillZerobss>
 8001b4e:	f003 fb4d 	bl	80051ec <__libc_init_array>
 8001b52:	f7fe ff4d 	bl	80009f0 <main>
 8001b56:	4770      	bx	lr
 8001b58:	24100000 	.word	0x24100000
 8001b5c:	24000000 	.word	0x24000000
 8001b60:	2400006c 	.word	0x2400006c
 8001b64:	08005ee0 	.word	0x08005ee0
 8001b68:	2400006c 	.word	0x2400006c
 8001b6c:	2400068c 	.word	0x2400068c

08001b70 <ADC_IRQHandler>:
 8001b70:	e7fe      	b.n	8001b70 <ADC_IRQHandler>
	...

08001b74 <HAL_InitTick>:
 8001b74:	b538      	push	{r3, r4, r5, lr}
 8001b76:	4b0f      	ldr	r3, [pc, #60]	@ (8001bb4 <HAL_InitTick+0x40>)
 8001b78:	4605      	mov	r5, r0
 8001b7a:	781a      	ldrb	r2, [r3, #0]
 8001b7c:	b90a      	cbnz	r2, 8001b82 <HAL_InitTick+0xe>
 8001b7e:	2001      	movs	r0, #1
 8001b80:	bd38      	pop	{r3, r4, r5, pc}
 8001b82:	f44f 737a 	mov.w	r3, #1000	@ 0x3e8
 8001b86:	fbb3 f3f2 	udiv	r3, r3, r2
 8001b8a:	4a0b      	ldr	r2, [pc, #44]	@ (8001bb8 <HAL_InitTick+0x44>)
 8001b8c:	6810      	ldr	r0, [r2, #0]
 8001b8e:	fbb0 f0f3 	udiv	r0, r0, r3
 8001b92:	f000 f8b9 	bl	8001d08 <HAL_SYSTICK_Config>
 8001b96:	4604      	mov	r4, r0
 8001b98:	2800      	cmp	r0, #0
 8001b9a:	d1f0      	bne.n	8001b7e <HAL_InitTick+0xa>
 8001b9c:	2d0f      	cmp	r5, #15
 8001b9e:	d8ee      	bhi.n	8001b7e <HAL_InitTick+0xa>
 8001ba0:	4602      	mov	r2, r0
 8001ba2:	4629      	mov	r1, r5
 8001ba4:	f04f 30ff 	mov.w	r0, #4294967295
 8001ba8:	f000 f86e 	bl	8001c88 <HAL_NVIC_SetPriority>
 8001bac:	4b03      	ldr	r3, [pc, #12]	@ (8001bbc <HAL_InitTick+0x48>)
 8001bae:	4620      	mov	r0, r4
 8001bb0:	601d      	str	r5, [r3, #0]
 8001bb2:	e7e5      	b.n	8001b80 <HAL_InitTick+0xc>
 8001bb4:	24000008 	.word	0x24000008
 8001bb8:	24000004 	.word	0x24000004
 8001bbc:	2400000c 	.word	0x2400000c

08001bc0 <HAL_Init>:
 8001bc0:	b510      	push	{r4, lr}
 8001bc2:	2003      	movs	r0, #3
 8001bc4:	f000 f84e 	bl	8001c64 <HAL_NVIC_SetPriorityGrouping>
 8001bc8:	f000 ff04 	bl	80029d4 <HAL_RCC_GetSysClockFreq>
 8001bcc:	490f      	ldr	r1, [pc, #60]	@ (8001c0c <HAL_Init+0x4c>)
 8001bce:	4a10      	ldr	r2, [pc, #64]	@ (8001c10 <HAL_Init+0x50>)
 8001bd0:	698b      	ldr	r3, [r1, #24]
 8001bd2:	f3c3 2303 	ubfx	r3, r3, #8, #4
 8001bd6:	5cd3      	ldrb	r3, [r2, r3]
 8001bd8:	f003 031f 	and.w	r3, r3, #31
 8001bdc:	40d8      	lsrs	r0, r3
 8001bde:	698b      	ldr	r3, [r1, #24]
 8001be0:	f003 030f 	and.w	r3, r3, #15
 8001be4:	5cd3      	ldrb	r3, [r2, r3]
 8001be6:	4a0b      	ldr	r2, [pc, #44]	@ (8001c14 <HAL_Init+0x54>)
 8001be8:	f003 031f 	and.w	r3, r3, #31
 8001bec:	fa20 f303 	lsr.w	r3, r0, r3
 8001bf0:	6013      	str	r3, [r2, #0]
 8001bf2:	4b09      	ldr	r3, [pc, #36]	@ (8001c18 <HAL_Init+0x58>)
 8001bf4:	6018      	str	r0, [r3, #0]
 8001bf6:	2000      	movs	r0, #0
 8001bf8:	f7ff ffbc 	bl	8001b74 <HAL_InitTick>
 8001bfc:	4604      	mov	r4, r0
 8001bfe:	b918      	cbnz	r0, 8001c08 <HAL_Init+0x48>
 8001c00:	f7ff fe30 	bl	8001864 <HAL_MspInit>
 8001c04:	4620      	mov	r0, r4
 8001c06:	bd10      	pop	{r4, pc}
 8001c08:	2401      	movs	r4, #1
 8001c0a:	e7fb      	b.n	8001c04 <HAL_Init+0x44>
 8001c0c:	58024400 	.word	0x58024400
 8001c10:	08005e63 	.word	0x08005e63
 8001c14:	24000000 	.word	0x24000000
 8001c18:	24000004 	.word	0x24000004

08001c1c <HAL_IncTick>:
 8001c1c:	4a03      	ldr	r2, [pc, #12]	@ (8001c2c <HAL_IncTick+0x10>)
 8001c1e:	4b04      	ldr	r3, [pc, #16]	@ (8001c30 <HAL_IncTick+0x14>)
 8001c20:	6811      	ldr	r1, [r2, #0]
 8001c22:	781b      	ldrb	r3, [r3, #0]
 8001c24:	440b      	add	r3, r1
 8001c26:	6013      	str	r3, [r2, #0]
 8001c28:	4770      	bx	lr
 8001c2a:	bf00      	nop
 8001c2c:	2400053c 	.word	0x2400053c
 8001c30:	24000008 	.word	0x24000008

08001c34 <HAL_GetTick>:
 8001c34:	4b01      	ldr	r3, [pc, #4]	@ (8001c3c <HAL_GetTick+0x8>)
 8001c36:	6818      	ldr	r0, [r3, #0]
 8001c38:	4770      	bx	lr
 8001c3a:	bf00      	nop
 8001c3c:	2400053c 	.word	0x2400053c

08001c40 <HAL_Delay>:
 8001c40:	b538      	push	{r3, r4, r5, lr}
 8001c42:	4604      	mov	r4, r0
 8001c44:	f7ff fff6 	bl	8001c34 <HAL_GetTick>
 8001c48:	4605      	mov	r5, r0
 8001c4a:	1c63      	adds	r3, r4, #1
 8001c4c:	bf1e      	ittt	ne
 8001c4e:	4b04      	ldrne	r3, [pc, #16]	@ (8001c60 <HAL_Delay+0x20>)
 8001c50:	781b      	ldrbne	r3, [r3, #0]
 8001c52:	18e4      	addne	r4, r4, r3
 8001c54:	f7ff ffee 	bl	8001c34 <HAL_GetTick>
 8001c58:	1b43      	subs	r3, r0, r5
 8001c5a:	42a3      	cmp	r3, r4
 8001c5c:	d3fa      	bcc.n	8001c54 <HAL_Delay+0x14>
 8001c5e:	bd38      	pop	{r3, r4, r5, pc}
 8001c60:	24000008 	.word	0x24000008

08001c64 <HAL_NVIC_SetPriorityGrouping>:
 8001c64:	4907      	ldr	r1, [pc, #28]	@ (8001c84 <HAL_NVIC_SetPriorityGrouping+0x20>)
 8001c66:	0203      	lsls	r3, r0, #8
 8001c68:	68ca      	ldr	r2, [r1, #12]
 8001c6a:	f403 63e0 	and.w	r3, r3, #1792	@ 0x700
 8001c6e:	f422 62e0 	bic.w	r2, r2, #1792	@ 0x700
 8001c72:	0412      	lsls	r2, r2, #16
 8001c74:	0c12      	lsrs	r2, r2, #16
 8001c76:	4313      	orrs	r3, r2
 8001c78:	f043 63bf 	orr.w	r3, r3, #100139008	@ 0x5f80000
 8001c7c:	f443 3300 	orr.w	r3, r3, #131072	@ 0x20000
 8001c80:	60cb      	str	r3, [r1, #12]
 8001c82:	4770      	bx	lr
 8001c84:	e000ed00 	.word	0xe000ed00

08001c88 <HAL_NVIC_SetPriority>:
 8001c88:	4b16      	ldr	r3, [pc, #88]	@ (8001ce4 <HAL_NVIC_SetPriority+0x5c>)
 8001c8a:	b530      	push	{r4, r5, lr}
 8001c8c:	68dc      	ldr	r4, [r3, #12]
 8001c8e:	f3c4 2402 	ubfx	r4, r4, #8, #3
 8001c92:	f1c4 0307 	rsb	r3, r4, #7
 8001c96:	1d25      	adds	r5, r4, #4
 8001c98:	2b04      	cmp	r3, #4
 8001c9a:	bf28      	it	cs
 8001c9c:	2304      	movcs	r3, #4
 8001c9e:	2d06      	cmp	r5, #6
 8001ca0:	f04f 35ff 	mov.w	r5, #4294967295
 8001ca4:	bf8c      	ite	hi
 8001ca6:	3c03      	subhi	r4, #3
 8001ca8:	2400      	movls	r4, #0
 8001caa:	fa05 f303 	lsl.w	r3, r5, r3
 8001cae:	2800      	cmp	r0, #0
 8001cb0:	fa05 f504 	lsl.w	r5, r5, r4
 8001cb4:	ea21 0303 	bic.w	r3, r1, r3
 8001cb8:	ea22 0205 	bic.w	r2, r2, r5
 8001cbc:	fa03 f304 	lsl.w	r3, r3, r4
 8001cc0:	ea43 0302 	orr.w	r3, r3, r2
 8001cc4:	ea4f 1303 	mov.w	r3, r3, lsl #4
 8001cc8:	b2db      	uxtb	r3, r3
 8001cca:	db06      	blt.n	8001cda <HAL_NVIC_SetPriority+0x52>
 8001ccc:	f100 4060 	add.w	r0, r0, #3758096384	@ 0xe0000000
 8001cd0:	f500 4061 	add.w	r0, r0, #57600	@ 0xe100
 8001cd4:	f880 3300 	strb.w	r3, [r0, #768]	@ 0x300
 8001cd8:	bd30      	pop	{r4, r5, pc}
 8001cda:	f000 000f 	and.w	r0, r0, #15
 8001cde:	4a02      	ldr	r2, [pc, #8]	@ (8001ce8 <HAL_NVIC_SetPriority+0x60>)
 8001ce0:	5413      	strb	r3, [r2, r0]
 8001ce2:	e7f9      	b.n	8001cd8 <HAL_NVIC_SetPriority+0x50>
 8001ce4:	e000ed00 	.word	0xe000ed00
 8001ce8:	e000ed14 	.word	0xe000ed14

08001cec <HAL_NVIC_EnableIRQ>:
 8001cec:	2800      	cmp	r0, #0
 8001cee:	db07      	blt.n	8001d00 <HAL_NVIC_EnableIRQ+0x14>
 8001cf0:	2301      	movs	r3, #1
 8001cf2:	0941      	lsrs	r1, r0, #5
 8001cf4:	f000 001f 	and.w	r0, r0, #31
 8001cf8:	4a02      	ldr	r2, [pc, #8]	@ (8001d04 <HAL_NVIC_EnableIRQ+0x18>)
 8001cfa:	4083      	lsls	r3, r0
 8001cfc:	f842 3021 	str.w	r3, [r2, r1, lsl #2]
 8001d00:	4770      	bx	lr
 8001d02:	bf00      	nop
 8001d04:	e000e100 	.word	0xe000e100

08001d08 <HAL_SYSTICK_Config>:
 8001d08:	3801      	subs	r0, #1
 8001d0a:	f1b0 7f80 	cmp.w	r0, #16777216	@ 0x1000000
 8001d0e:	d20b      	bcs.n	8001d28 <HAL_SYSTICK_Config+0x20>
 8001d10:	f04f 23e0 	mov.w	r3, #3758153728	@ 0xe000e000
 8001d14:	4a05      	ldr	r2, [pc, #20]	@ (8001d2c <HAL_SYSTICK_Config+0x24>)
 8001d16:	21f0      	movs	r1, #240	@ 0xf0
 8001d18:	6158      	str	r0, [r3, #20]
 8001d1a:	2000      	movs	r0, #0
 8001d1c:	f882 1023 	strb.w	r1, [r2, #35]	@ 0x23
 8001d20:	2207      	movs	r2, #7
 8001d22:	6198      	str	r0, [r3, #24]
 8001d24:	611a      	str	r2, [r3, #16]
 8001d26:	4770      	bx	lr
 8001d28:	2001      	movs	r0, #1
 8001d2a:	4770      	bx	lr
 8001d2c:	e000ed00 	.word	0xe000ed00

08001d30 <HAL_MPU_Disable>:
 8001d30:	f3bf 8f5f 	dmb	sy
 8001d34:	4b04      	ldr	r3, [pc, #16]	@ (8001d48 <HAL_MPU_Disable+0x18>)
 8001d36:	6a5a      	ldr	r2, [r3, #36]	@ 0x24
 8001d38:	f422 3280 	bic.w	r2, r2, #65536	@ 0x10000
 8001d3c:	625a      	str	r2, [r3, #36]	@ 0x24
 8001d3e:	2200      	movs	r2, #0
 8001d40:	f8c3 2094 	str.w	r2, [r3, #148]	@ 0x94
 8001d44:	4770      	bx	lr
 8001d46:	bf00      	nop
 8001d48:	e000ed00 	.word	0xe000ed00

08001d4c <HAL_MPU_Enable>:
 8001d4c:	4b06      	ldr	r3, [pc, #24]	@ (8001d68 <HAL_MPU_Enable+0x1c>)
 8001d4e:	f040 0001 	orr.w	r0, r0, #1
 8001d52:	f8c3 0094 	str.w	r0, [r3, #148]	@ 0x94
 8001d56:	6a5a      	ldr	r2, [r3, #36]	@ 0x24
 8001d58:	f442 3280 	orr.w	r2, r2, #65536	@ 0x10000
 8001d5c:	625a      	str	r2, [r3, #36]	@ 0x24
 8001d5e:	f3bf 8f4f 	dsb	sy
 8001d62:	f3bf 8f6f 	isb	sy
 8001d66:	4770      	bx	lr
 8001d68:	e000ed00 	.word	0xe000ed00

08001d6c <HAL_MPU_ConfigRegion>:
 8001d6c:	7843      	ldrb	r3, [r0, #1]
 8001d6e:	4a14      	ldr	r2, [pc, #80]	@ (8001dc0 <HAL_MPU_ConfigRegion+0x54>)
 8001d70:	f8c2 3098 	str.w	r3, [r2, #152]	@ 0x98
 8001d74:	f8d2 30a0 	ldr.w	r3, [r2, #160]	@ 0xa0
 8001d78:	f023 0301 	bic.w	r3, r3, #1
 8001d7c:	f8c2 30a0 	str.w	r3, [r2, #160]	@ 0xa0
 8001d80:	6843      	ldr	r3, [r0, #4]
 8001d82:	f8c2 309c 	str.w	r3, [r2, #156]	@ 0x9c
 8001d86:	7ac3      	ldrb	r3, [r0, #11]
 8001d88:	7b01      	ldrb	r1, [r0, #12]
 8001d8a:	061b      	lsls	r3, r3, #24
 8001d8c:	ea43 7301 	orr.w	r3, r3, r1, lsl #28
 8001d90:	7801      	ldrb	r1, [r0, #0]
 8001d92:	430b      	orrs	r3, r1
 8001d94:	7a81      	ldrb	r1, [r0, #10]
 8001d96:	ea43 43c1 	orr.w	r3, r3, r1, lsl #19
 8001d9a:	7b41      	ldrb	r1, [r0, #13]
 8001d9c:	ea43 4381 	orr.w	r3, r3, r1, lsl #18
 8001da0:	7b81      	ldrb	r1, [r0, #14]
 8001da2:	ea43 4341 	orr.w	r3, r3, r1, lsl #17
 8001da6:	7bc1      	ldrb	r1, [r0, #15]
 8001da8:	ea43 4301 	orr.w	r3, r3, r1, lsl #16
 8001dac:	7a41      	ldrb	r1, [r0, #9]
 8001dae:	ea43 2301 	orr.w	r3, r3, r1, lsl #8
 8001db2:	7a01      	ldrb	r1, [r0, #8]
 8001db4:	ea43 0341 	orr.w	r3, r3, r1, lsl #1
 8001db8:	f8c2 30a0 	str.w	r3, [r2, #160]	@ 0xa0
 8001dbc:	4770      	bx	lr
 8001dbe:	bf00      	nop
 8001dc0:	e000ed00 	.word	0xe000ed00

08001dc4 <HAL_DMA_Abort>:
 8001dc4:	b5f8      	push	{r3, r4, r5, r6, r7, lr}
 8001dc6:	4605      	mov	r5, r0
 8001dc8:	f7ff ff34 	bl	8001c34 <HAL_GetTick>
 8001dcc:	4607      	mov	r7, r0
 8001dce:	b145      	cbz	r5, 8001de2 <HAL_DMA_Abort+0x1e>
 8001dd0:	f895 3035 	ldrb.w	r3, [r5, #53]	@ 0x35
 8001dd4:	2b02      	cmp	r3, #2
 8001dd6:	d006      	beq.n	8001de6 <HAL_DMA_Abort+0x22>
 8001dd8:	2380      	movs	r3, #128	@ 0x80
 8001dda:	656b      	str	r3, [r5, #84]	@ 0x54
 8001ddc:	2300      	movs	r3, #0
 8001dde:	f885 3034 	strb.w	r3, [r5, #52]	@ 0x34
 8001de2:	2001      	movs	r0, #1
 8001de4:	bdf8      	pop	{r3, r4, r5, r6, r7, pc}
 8001de6:	682c      	ldr	r4, [r5, #0]
 8001de8:	4ea9      	ldr	r6, [pc, #676]	@ (8002090 <HAL_DMA_Abort+0x2cc>)
 8001dea:	42b4      	cmp	r4, r6
 8001dec:	d04a      	beq.n	8001e84 <HAL_DMA_Abort+0xc0>
 8001dee:	4ba9      	ldr	r3, [pc, #676]	@ (8002094 <HAL_DMA_Abort+0x2d0>)
 8001df0:	429c      	cmp	r4, r3
 8001df2:	d047      	beq.n	8001e84 <HAL_DMA_Abort+0xc0>
 8001df4:	3318      	adds	r3, #24
 8001df6:	429c      	cmp	r4, r3
 8001df8:	d044      	beq.n	8001e84 <HAL_DMA_Abort+0xc0>
 8001dfa:	3318      	adds	r3, #24
 8001dfc:	429c      	cmp	r4, r3
 8001dfe:	d041      	beq.n	8001e84 <HAL_DMA_Abort+0xc0>
 8001e00:	3318      	adds	r3, #24
 8001e02:	429c      	cmp	r4, r3
 8001e04:	d03e      	beq.n	8001e84 <HAL_DMA_Abort+0xc0>
 8001e06:	3318      	adds	r3, #24
 8001e08:	429c      	cmp	r4, r3
 8001e0a:	d03b      	beq.n	8001e84 <HAL_DMA_Abort+0xc0>
 8001e0c:	3318      	adds	r3, #24
 8001e0e:	429c      	cmp	r4, r3
 8001e10:	d038      	beq.n	8001e84 <HAL_DMA_Abort+0xc0>
 8001e12:	3318      	adds	r3, #24
 8001e14:	429c      	cmp	r4, r3
 8001e16:	d035      	beq.n	8001e84 <HAL_DMA_Abort+0xc0>
 8001e18:	f503 7356 	add.w	r3, r3, #856	@ 0x358
 8001e1c:	429c      	cmp	r4, r3
 8001e1e:	d031      	beq.n	8001e84 <HAL_DMA_Abort+0xc0>
 8001e20:	3318      	adds	r3, #24
 8001e22:	429c      	cmp	r4, r3
 8001e24:	d02e      	beq.n	8001e84 <HAL_DMA_Abort+0xc0>
 8001e26:	3318      	adds	r3, #24
 8001e28:	429c      	cmp	r4, r3
 8001e2a:	d02b      	beq.n	8001e84 <HAL_DMA_Abort+0xc0>
 8001e2c:	3318      	adds	r3, #24
 8001e2e:	429c      	cmp	r4, r3
 8001e30:	d028      	beq.n	8001e84 <HAL_DMA_Abort+0xc0>
 8001e32:	3318      	adds	r3, #24
 8001e34:	429c      	cmp	r4, r3
 8001e36:	d025      	beq.n	8001e84 <HAL_DMA_Abort+0xc0>
 8001e38:	3318      	adds	r3, #24
 8001e3a:	429c      	cmp	r4, r3
 8001e3c:	d022      	beq.n	8001e84 <HAL_DMA_Abort+0xc0>
 8001e3e:	3318      	adds	r3, #24
 8001e40:	429c      	cmp	r4, r3
 8001e42:	d01f      	beq.n	8001e84 <HAL_DMA_Abort+0xc0>
 8001e44:	3318      	adds	r3, #24
 8001e46:	429c      	cmp	r4, r3
 8001e48:	d01c      	beq.n	8001e84 <HAL_DMA_Abort+0xc0>
 8001e4a:	6823      	ldr	r3, [r4, #0]
 8001e4c:	f023 030e 	bic.w	r3, r3, #14
 8001e50:	6023      	str	r3, [r4, #0]
 8001e52:	4b91      	ldr	r3, [pc, #580]	@ (8002098 <HAL_DMA_Abort+0x2d4>)
 8001e54:	429c      	cmp	r4, r3
 8001e56:	d01f      	beq.n	8001e98 <HAL_DMA_Abort+0xd4>
 8001e58:	3314      	adds	r3, #20
 8001e5a:	429c      	cmp	r4, r3
 8001e5c:	d01c      	beq.n	8001e98 <HAL_DMA_Abort+0xd4>
 8001e5e:	3314      	adds	r3, #20
 8001e60:	429c      	cmp	r4, r3
 8001e62:	d019      	beq.n	8001e98 <HAL_DMA_Abort+0xd4>
 8001e64:	3314      	adds	r3, #20
 8001e66:	429c      	cmp	r4, r3
 8001e68:	d016      	beq.n	8001e98 <HAL_DMA_Abort+0xd4>
 8001e6a:	3314      	adds	r3, #20
 8001e6c:	429c      	cmp	r4, r3
 8001e6e:	d013      	beq.n	8001e98 <HAL_DMA_Abort+0xd4>
 8001e70:	3314      	adds	r3, #20
 8001e72:	429c      	cmp	r4, r3
 8001e74:	d010      	beq.n	8001e98 <HAL_DMA_Abort+0xd4>
 8001e76:	3314      	adds	r3, #20
 8001e78:	429c      	cmp	r4, r3
 8001e7a:	d00d      	beq.n	8001e98 <HAL_DMA_Abort+0xd4>
 8001e7c:	3314      	adds	r3, #20
 8001e7e:	429c      	cmp	r4, r3
 8001e80:	d112      	bne.n	8001ea8 <HAL_DMA_Abort+0xe4>
 8001e82:	e009      	b.n	8001e98 <HAL_DMA_Abort+0xd4>
 8001e84:	6823      	ldr	r3, [r4, #0]
 8001e86:	42b4      	cmp	r4, r6
 8001e88:	f023 031e 	bic.w	r3, r3, #30
 8001e8c:	6023      	str	r3, [r4, #0]
 8001e8e:	6963      	ldr	r3, [r4, #20]
 8001e90:	f023 0380 	bic.w	r3, r3, #128	@ 0x80
 8001e94:	6163      	str	r3, [r4, #20]
 8001e96:	d176      	bne.n	8001f86 <HAL_DMA_Abort+0x1c2>
 8001e98:	6e2a      	ldr	r2, [r5, #96]	@ 0x60
 8001e9a:	42b4      	cmp	r4, r6
 8001e9c:	6813      	ldr	r3, [r2, #0]
 8001e9e:	f423 7380 	bic.w	r3, r3, #256	@ 0x100
 8001ea2:	6013      	str	r3, [r2, #0]
 8001ea4:	f040 80ab 	bne.w	8001ffe <HAL_DMA_Abort+0x23a>
 8001ea8:	6823      	ldr	r3, [r4, #0]
 8001eaa:	f023 0301 	bic.w	r3, r3, #1
 8001eae:	6023      	str	r3, [r4, #0]
 8001eb0:	6823      	ldr	r3, [r4, #0]
 8001eb2:	07db      	lsls	r3, r3, #31
 8001eb4:	f100 80cd 	bmi.w	8002052 <HAL_DMA_Abort+0x28e>
 8001eb8:	682b      	ldr	r3, [r5, #0]
 8001eba:	6dea      	ldr	r2, [r5, #92]	@ 0x5c
 8001ebc:	42b3      	cmp	r3, r6
 8001ebe:	6da8      	ldr	r0, [r5, #88]	@ 0x58
 8001ec0:	f002 021f 	and.w	r2, r2, #31
 8001ec4:	f000 80d1 	beq.w	800206a <HAL_DMA_Abort+0x2a6>
 8001ec8:	4972      	ldr	r1, [pc, #456]	@ (8002094 <HAL_DMA_Abort+0x2d0>)
 8001eca:	428b      	cmp	r3, r1
 8001ecc:	f000 80cd 	beq.w	800206a <HAL_DMA_Abort+0x2a6>
 8001ed0:	3118      	adds	r1, #24
 8001ed2:	428b      	cmp	r3, r1
 8001ed4:	f000 80c9 	beq.w	800206a <HAL_DMA_Abort+0x2a6>
 8001ed8:	3118      	adds	r1, #24
 8001eda:	428b      	cmp	r3, r1
 8001edc:	f000 80c5 	beq.w	800206a <HAL_DMA_Abort+0x2a6>
 8001ee0:	3118      	adds	r1, #24
 8001ee2:	428b      	cmp	r3, r1
 8001ee4:	f000 80c1 	beq.w	800206a <HAL_DMA_Abort+0x2a6>
 8001ee8:	3118      	adds	r1, #24
 8001eea:	428b      	cmp	r3, r1
 8001eec:	f000 80bd 	beq.w	800206a <HAL_DMA_Abort+0x2a6>
 8001ef0:	3118      	adds	r1, #24
 8001ef2:	428b      	cmp	r3, r1
 8001ef4:	f000 80b9 	beq.w	800206a <HAL_DMA_Abort+0x2a6>
 8001ef8:	3118      	adds	r1, #24
 8001efa:	428b      	cmp	r3, r1
 8001efc:	f000 80b5 	beq.w	800206a <HAL_DMA_Abort+0x2a6>
 8001f00:	f501 7156 	add.w	r1, r1, #856	@ 0x358
 8001f04:	428b      	cmp	r3, r1
 8001f06:	f000 80b0 	beq.w	800206a <HAL_DMA_Abort+0x2a6>
 8001f0a:	3118      	adds	r1, #24
 8001f0c:	428b      	cmp	r3, r1
 8001f0e:	f000 80ac 	beq.w	800206a <HAL_DMA_Abort+0x2a6>
 8001f12:	3118      	adds	r1, #24
 8001f14:	428b      	cmp	r3, r1
 8001f16:	f000 80a8 	beq.w	800206a <HAL_DMA_Abort+0x2a6>
 8001f1a:	3118      	adds	r1, #24
 8001f1c:	428b      	cmp	r3, r1
 8001f1e:	f000 80a4 	beq.w	800206a <HAL_DMA_Abort+0x2a6>
 8001f22:	3118      	adds	r1, #24
 8001f24:	428b      	cmp	r3, r1
 8001f26:	f000 80a0 	beq.w	800206a <HAL_DMA_Abort+0x2a6>
 8001f2a:	3118      	adds	r1, #24
 8001f2c:	428b      	cmp	r3, r1
 8001f2e:	f000 809c 	beq.w	800206a <HAL_DMA_Abort+0x2a6>
 8001f32:	3118      	adds	r1, #24
 8001f34:	428b      	cmp	r3, r1
 8001f36:	f000 8098 	beq.w	800206a <HAL_DMA_Abort+0x2a6>
 8001f3a:	3118      	adds	r1, #24
 8001f3c:	428b      	cmp	r3, r1
 8001f3e:	f000 8094 	beq.w	800206a <HAL_DMA_Abort+0x2a6>
 8001f42:	2101      	movs	r1, #1
 8001f44:	fa01 f202 	lsl.w	r2, r1, r2
 8001f48:	6042      	str	r2, [r0, #4]
 8001f4a:	4a53      	ldr	r2, [pc, #332]	@ (8002098 <HAL_DMA_Abort+0x2d4>)
 8001f4c:	4293      	cmp	r3, r2
 8001f4e:	f000 8092 	beq.w	8002076 <HAL_DMA_Abort+0x2b2>
 8001f52:	3214      	adds	r2, #20
 8001f54:	4293      	cmp	r3, r2
 8001f56:	f000 808e 	beq.w	8002076 <HAL_DMA_Abort+0x2b2>
 8001f5a:	3214      	adds	r2, #20
 8001f5c:	4293      	cmp	r3, r2
 8001f5e:	f000 808a 	beq.w	8002076 <HAL_DMA_Abort+0x2b2>
 8001f62:	3214      	adds	r2, #20
 8001f64:	4293      	cmp	r3, r2
 8001f66:	f000 8086 	beq.w	8002076 <HAL_DMA_Abort+0x2b2>
 8001f6a:	3214      	adds	r2, #20
 8001f6c:	4293      	cmp	r3, r2
 8001f6e:	f000 8082 	beq.w	8002076 <HAL_DMA_Abort+0x2b2>
 8001f72:	3214      	adds	r2, #20
 8001f74:	4293      	cmp	r3, r2
 8001f76:	d07e      	beq.n	8002076 <HAL_DMA_Abort+0x2b2>
 8001f78:	3214      	adds	r2, #20
 8001f7a:	4293      	cmp	r3, r2
 8001f7c:	d07b      	beq.n	8002076 <HAL_DMA_Abort+0x2b2>
 8001f7e:	3214      	adds	r2, #20
 8001f80:	4293      	cmp	r3, r2
 8001f82:	d17e      	bne.n	8002082 <HAL_DMA_Abort+0x2be>
 8001f84:	e077      	b.n	8002076 <HAL_DMA_Abort+0x2b2>
 8001f86:	4b43      	ldr	r3, [pc, #268]	@ (8002094 <HAL_DMA_Abort+0x2d0>)
 8001f88:	429c      	cmp	r4, r3
 8001f8a:	d085      	beq.n	8001e98 <HAL_DMA_Abort+0xd4>
 8001f8c:	3318      	adds	r3, #24
 8001f8e:	429c      	cmp	r4, r3
 8001f90:	d082      	beq.n	8001e98 <HAL_DMA_Abort+0xd4>
 8001f92:	3318      	adds	r3, #24
 8001f94:	429c      	cmp	r4, r3
 8001f96:	f43f af7f 	beq.w	8001e98 <HAL_DMA_Abort+0xd4>
 8001f9a:	3318      	adds	r3, #24
 8001f9c:	429c      	cmp	r4, r3
 8001f9e:	f43f af7b 	beq.w	8001e98 <HAL_DMA_Abort+0xd4>
 8001fa2:	3318      	adds	r3, #24
 8001fa4:	429c      	cmp	r4, r3
 8001fa6:	f43f af77 	beq.w	8001e98 <HAL_DMA_Abort+0xd4>
 8001faa:	3318      	adds	r3, #24
 8001fac:	429c      	cmp	r4, r3
 8001fae:	f43f af73 	beq.w	8001e98 <HAL_DMA_Abort+0xd4>
 8001fb2:	3318      	adds	r3, #24
 8001fb4:	429c      	cmp	r4, r3
 8001fb6:	f43f af6f 	beq.w	8001e98 <HAL_DMA_Abort+0xd4>
 8001fba:	f503 7356 	add.w	r3, r3, #856	@ 0x358
 8001fbe:	429c      	cmp	r4, r3
 8001fc0:	f43f af6a 	beq.w	8001e98 <HAL_DMA_Abort+0xd4>
 8001fc4:	3318      	adds	r3, #24
 8001fc6:	429c      	cmp	r4, r3
 8001fc8:	f43f af66 	beq.w	8001e98 <HAL_DMA_Abort+0xd4>
 8001fcc:	3318      	adds	r3, #24
 8001fce:	429c      	cmp	r4, r3
 8001fd0:	f43f af62 	beq.w	8001e98 <HAL_DMA_Abort+0xd4>
 8001fd4:	3318      	adds	r3, #24
 8001fd6:	429c      	cmp	r4, r3
 8001fd8:	f43f af5e 	beq.w	8001e98 <HAL_DMA_Abort+0xd4>
 8001fdc:	3318      	adds	r3, #24
 8001fde:	429c      	cmp	r4, r3
 8001fe0:	f43f af5a 	beq.w	8001e98 <HAL_DMA_Abort+0xd4>
 8001fe4:	3318      	adds	r3, #24
 8001fe6:	429c      	cmp	r4, r3
 8001fe8:	f43f af56 	beq.w	8001e98 <HAL_DMA_Abort+0xd4>
 8001fec:	3318      	adds	r3, #24
 8001fee:	429c      	cmp	r4, r3
 8001ff0:	f43f af52 	beq.w	8001e98 <HAL_DMA_Abort+0xd4>
 8001ff4:	3318      	adds	r3, #24
 8001ff6:	429c      	cmp	r4, r3
 8001ff8:	f43f af4e 	beq.w	8001e98 <HAL_DMA_Abort+0xd4>
 8001ffc:	e729      	b.n	8001e52 <HAL_DMA_Abort+0x8e>
 8001ffe:	4b25      	ldr	r3, [pc, #148]	@ (8002094 <HAL_DMA_Abort+0x2d0>)
 8002000:	429c      	cmp	r4, r3
 8002002:	f43f af51 	beq.w	8001ea8 <HAL_DMA_Abort+0xe4>
 8002006:	3318      	adds	r3, #24
 8002008:	429c      	cmp	r4, r3
 800200a:	f43f af4d 	beq.w	8001ea8 <HAL_DMA_Abort+0xe4>
 800200e:	3318      	adds	r3, #24
 8002010:	429c      	cmp	r4, r3
 8002012:	f43f af49 	beq.w	8001ea8 <HAL_DMA_Abort+0xe4>
 8002016:	3318      	adds	r3, #24
 8002018:	429c      	cmp	r4, r3
 800201a:	f43f af45 	beq.w	8001ea8 <HAL_DMA_Abort+0xe4>
 800201e:	3318      	adds	r3, #24
 8002020:	429c      	cmp	r4, r3
 8002022:	f43f af41 	beq.w	8001ea8 <HAL_DMA_Abort+0xe4>
 8002026:	3318      	adds	r3, #24
 8002028:	429c      	cmp	r4, r3
 800202a:	f43f af3d 	beq.w	8001ea8 <HAL_DMA_Abort+0xe4>
 800202e:	3318      	adds	r3, #24
 8002030:	429c      	cmp	r4, r3
 8002032:	f43f af39 	beq.w	8001ea8 <HAL_DMA_Abort+0xe4>
 8002036:	f503 7356 	add.w	r3, r3, #856	@ 0x358
 800203a:	429c      	cmp	r4, r3
 800203c:	f43f af34 	beq.w	8001ea8 <HAL_DMA_Abort+0xe4>
 8002040:	3318      	adds	r3, #24
 8002042:	429c      	cmp	r4, r3
 8002044:	f43f af30 	beq.w	8001ea8 <HAL_DMA_Abort+0xe4>
 8002048:	3318      	adds	r3, #24
 800204a:	429c      	cmp	r4, r3
 800204c:	f43f af2c 	beq.w	8001ea8 <HAL_DMA_Abort+0xe4>
 8002050:	e72a      	b.n	8001ea8 <HAL_DMA_Abort+0xe4>
 8002052:	f7ff fdef 	bl	8001c34 <HAL_GetTick>
 8002056:	1bc0      	subs	r0, r0, r7
 8002058:	2805      	cmp	r0, #5
 800205a:	f67f af29 	bls.w	8001eb0 <HAL_DMA_Abort+0xec>
 800205e:	2320      	movs	r3, #32
 8002060:	656b      	str	r3, [r5, #84]	@ 0x54
 8002062:	2303      	movs	r3, #3
 8002064:	f885 3035 	strb.w	r3, [r5, #53]	@ 0x35
 8002068:	e6b8      	b.n	8001ddc <HAL_DMA_Abort+0x18>
 800206a:	213f      	movs	r1, #63	@ 0x3f
 800206c:	42b3      	cmp	r3, r6
 800206e:	fa01 f202 	lsl.w	r2, r1, r2
 8002072:	6082      	str	r2, [r0, #8]
 8002074:	d112      	bne.n	800209c <HAL_DMA_Abort+0x2d8>
 8002076:	e9d5 3219 	ldrd	r3, r2, [r5, #100]	@ 0x64
 800207a:	605a      	str	r2, [r3, #4]
 800207c:	6eeb      	ldr	r3, [r5, #108]	@ 0x6c
 800207e:	2b00      	cmp	r3, #0
 8002080:	d13b      	bne.n	80020fa <HAL_DMA_Abort+0x336>
 8002082:	2301      	movs	r3, #1
 8002084:	2000      	movs	r0, #0
 8002086:	f885 3035 	strb.w	r3, [r5, #53]	@ 0x35
 800208a:	f885 0034 	strb.w	r0, [r5, #52]	@ 0x34
 800208e:	e6a9      	b.n	8001de4 <HAL_DMA_Abort+0x20>
 8002090:	40020010 	.word	0x40020010
 8002094:	40020028 	.word	0x40020028
 8002098:	58025408 	.word	0x58025408
 800209c:	4a1b      	ldr	r2, [pc, #108]	@ (800210c <HAL_DMA_Abort+0x348>)
 800209e:	4293      	cmp	r3, r2
 80020a0:	d0e9      	beq.n	8002076 <HAL_DMA_Abort+0x2b2>
 80020a2:	3218      	adds	r2, #24
 80020a4:	4293      	cmp	r3, r2
 80020a6:	d0e6      	beq.n	8002076 <HAL_DMA_Abort+0x2b2>
 80020a8:	3218      	adds	r2, #24
 80020aa:	4293      	cmp	r3, r2
 80020ac:	d0e3      	beq.n	8002076 <HAL_DMA_Abort+0x2b2>
 80020ae:	3218      	adds	r2, #24
 80020b0:	4293      	cmp	r3, r2
 80020b2:	d0e0      	beq.n	8002076 <HAL_DMA_Abort+0x2b2>
 80020b4:	3218      	adds	r2, #24
 80020b6:	4293      	cmp	r3, r2
 80020b8:	d0dd      	beq.n	8002076 <HAL_DMA_Abort+0x2b2>
 80020ba:	3218      	adds	r2, #24
 80020bc:	4293      	cmp	r3, r2
 80020be:	d0da      	beq.n	8002076 <HAL_DMA_Abort+0x2b2>
 80020c0:	3218      	adds	r2, #24
 80020c2:	4293      	cmp	r3, r2
 80020c4:	d0d7      	beq.n	8002076 <HAL_DMA_Abort+0x2b2>
 80020c6:	f502 7256 	add.w	r2, r2, #856	@ 0x358
 80020ca:	4293      	cmp	r3, r2
 80020cc:	d0d3      	beq.n	8002076 <HAL_DMA_Abort+0x2b2>
 80020ce:	3218      	adds	r2, #24
 80020d0:	4293      	cmp	r3, r2
 80020d2:	d0d0      	beq.n	8002076 <HAL_DMA_Abort+0x2b2>
 80020d4:	3218      	adds	r2, #24
 80020d6:	4293      	cmp	r3, r2
 80020d8:	d0cd      	beq.n	8002076 <HAL_DMA_Abort+0x2b2>
 80020da:	3218      	adds	r2, #24
 80020dc:	4293      	cmp	r3, r2
 80020de:	d0ca      	beq.n	8002076 <HAL_DMA_Abort+0x2b2>
 80020e0:	3218      	adds	r2, #24
 80020e2:	4293      	cmp	r3, r2
 80020e4:	d0c7      	beq.n	8002076 <HAL_DMA_Abort+0x2b2>
 80020e6:	3218      	adds	r2, #24
 80020e8:	4293      	cmp	r3, r2
 80020ea:	d0c4      	beq.n	8002076 <HAL_DMA_Abort+0x2b2>
 80020ec:	3218      	adds	r2, #24
 80020ee:	4293      	cmp	r3, r2
 80020f0:	d0c1      	beq.n	8002076 <HAL_DMA_Abort+0x2b2>
 80020f2:	3218      	adds	r2, #24
 80020f4:	4293      	cmp	r3, r2
 80020f6:	d0be      	beq.n	8002076 <HAL_DMA_Abort+0x2b2>
 80020f8:	e727      	b.n	8001f4a <HAL_DMA_Abort+0x186>
 80020fa:	681a      	ldr	r2, [r3, #0]
 80020fc:	f422 7280 	bic.w	r2, r2, #256	@ 0x100
 8002100:	601a      	str	r2, [r3, #0]
 8002102:	e9d5 321c 	ldrd	r3, r2, [r5, #112]	@ 0x70
 8002106:	605a      	str	r2, [r3, #4]
 8002108:	e7bb      	b.n	8002082 <HAL_DMA_Abort+0x2be>
 800210a:	bf00      	nop
 800210c:	40020028 	.word	0x40020028

08002110 <HAL_DMA_Abort_IT>:
 8002110:	b508      	push	{r3, lr}
 8002112:	b128      	cbz	r0, 8002120 <HAL_DMA_Abort_IT+0x10>
 8002114:	f890 3035 	ldrb.w	r3, [r0, #53]	@ 0x35
 8002118:	2b02      	cmp	r3, #2
 800211a:	d003      	beq.n	8002124 <HAL_DMA_Abort_IT+0x14>
 800211c:	2380      	movs	r3, #128	@ 0x80
 800211e:	6543      	str	r3, [r0, #84]	@ 0x54
 8002120:	2001      	movs	r0, #1
 8002122:	e05d      	b.n	80021e0 <HAL_DMA_Abort_IT+0xd0>
 8002124:	6803      	ldr	r3, [r0, #0]
 8002126:	4a3f      	ldr	r2, [pc, #252]	@ (8002224 <HAL_DMA_Abort_IT+0x114>)
 8002128:	4293      	cmp	r3, r2
 800212a:	d051      	beq.n	80021d0 <HAL_DMA_Abort_IT+0xc0>
 800212c:	3218      	adds	r2, #24
 800212e:	4293      	cmp	r3, r2
 8002130:	d04e      	beq.n	80021d0 <HAL_DMA_Abort_IT+0xc0>
 8002132:	3218      	adds	r2, #24
 8002134:	4293      	cmp	r3, r2
 8002136:	d04b      	beq.n	80021d0 <HAL_DMA_Abort_IT+0xc0>
 8002138:	3218      	adds	r2, #24
 800213a:	4293      	cmp	r3, r2
 800213c:	d048      	beq.n	80021d0 <HAL_DMA_Abort_IT+0xc0>
 800213e:	3218      	adds	r2, #24
 8002140:	4293      	cmp	r3, r2
 8002142:	d045      	beq.n	80021d0 <HAL_DMA_Abort_IT+0xc0>
 8002144:	3218      	adds	r2, #24
 8002146:	4293      	cmp	r3, r2
 8002148:	d042      	beq.n	80021d0 <HAL_DMA_Abort_IT+0xc0>
 800214a:	3218      	adds	r2, #24
 800214c:	4293      	cmp	r3, r2
 800214e:	d03f      	beq.n	80021d0 <HAL_DMA_Abort_IT+0xc0>
 8002150:	3218      	adds	r2, #24
 8002152:	4293      	cmp	r3, r2
 8002154:	d03c      	beq.n	80021d0 <HAL_DMA_Abort_IT+0xc0>
 8002156:	f502 7256 	add.w	r2, r2, #856	@ 0x358
 800215a:	4293      	cmp	r3, r2
 800215c:	d038      	beq.n	80021d0 <HAL_DMA_Abort_IT+0xc0>
 800215e:	3218      	adds	r2, #24
 8002160:	4293      	cmp	r3, r2
 8002162:	d035      	beq.n	80021d0 <HAL_DMA_Abort_IT+0xc0>
 8002164:	3218      	adds	r2, #24
 8002166:	4293      	cmp	r3, r2
 8002168:	d032      	beq.n	80021d0 <HAL_DMA_Abort_IT+0xc0>
 800216a:	3218      	adds	r2, #24
 800216c:	4293      	cmp	r3, r2
 800216e:	d02f      	beq.n	80021d0 <HAL_DMA_Abort_IT+0xc0>
 8002170:	3218      	adds	r2, #24
 8002172:	4293      	cmp	r3, r2
 8002174:	d02c      	beq.n	80021d0 <HAL_DMA_Abort_IT+0xc0>
 8002176:	3218      	adds	r2, #24
 8002178:	4293      	cmp	r3, r2
 800217a:	d029      	beq.n	80021d0 <HAL_DMA_Abort_IT+0xc0>
 800217c:	3218      	adds	r2, #24
 800217e:	4293      	cmp	r3, r2
 8002180:	d026      	beq.n	80021d0 <HAL_DMA_Abort_IT+0xc0>
 8002182:	3218      	adds	r2, #24
 8002184:	4293      	cmp	r3, r2
 8002186:	d023      	beq.n	80021d0 <HAL_DMA_Abort_IT+0xc0>
 8002188:	681a      	ldr	r2, [r3, #0]
 800218a:	f022 020e 	bic.w	r2, r2, #14
 800218e:	601a      	str	r2, [r3, #0]
 8002190:	681a      	ldr	r2, [r3, #0]
 8002192:	f022 0201 	bic.w	r2, r2, #1
 8002196:	601a      	str	r2, [r3, #0]
 8002198:	4a23      	ldr	r2, [pc, #140]	@ (8002228 <HAL_DMA_Abort_IT+0x118>)
 800219a:	4293      	cmp	r3, r2
 800219c:	d121      	bne.n	80021e2 <HAL_DMA_Abort_IT+0xd2>
 800219e:	6e02      	ldr	r2, [r0, #96]	@ 0x60
 80021a0:	6813      	ldr	r3, [r2, #0]
 80021a2:	f423 7380 	bic.w	r3, r3, #256	@ 0x100
 80021a6:	6013      	str	r3, [r2, #0]
 80021a8:	e9d0 1316 	ldrd	r1, r3, [r0, #88]	@ 0x58
 80021ac:	f003 021f 	and.w	r2, r3, #31
 80021b0:	2301      	movs	r3, #1
 80021b2:	4093      	lsls	r3, r2
 80021b4:	604b      	str	r3, [r1, #4]
 80021b6:	e9d0 3219 	ldrd	r3, r2, [r0, #100]	@ 0x64
 80021ba:	605a      	str	r2, [r3, #4]
 80021bc:	6ec3      	ldr	r3, [r0, #108]	@ 0x6c
 80021be:	b32b      	cbz	r3, 800220c <HAL_DMA_Abort_IT+0xfc>
 80021c0:	681a      	ldr	r2, [r3, #0]
 80021c2:	f422 7280 	bic.w	r2, r2, #256	@ 0x100
 80021c6:	601a      	str	r2, [r3, #0]
 80021c8:	e9d0 321c 	ldrd	r3, r2, [r0, #112]	@ 0x70
 80021cc:	605a      	str	r2, [r3, #4]
 80021ce:	e01d      	b.n	800220c <HAL_DMA_Abort_IT+0xfc>
 80021d0:	2204      	movs	r2, #4
 80021d2:	f880 2035 	strb.w	r2, [r0, #53]	@ 0x35
 80021d6:	681a      	ldr	r2, [r3, #0]
 80021d8:	f022 0201 	bic.w	r2, r2, #1
 80021dc:	601a      	str	r2, [r3, #0]
 80021de:	2000      	movs	r0, #0
 80021e0:	bd08      	pop	{r3, pc}
 80021e2:	4a12      	ldr	r2, [pc, #72]	@ (800222c <HAL_DMA_Abort_IT+0x11c>)
 80021e4:	4293      	cmp	r3, r2
 80021e6:	d0da      	beq.n	800219e <HAL_DMA_Abort_IT+0x8e>
 80021e8:	3214      	adds	r2, #20
 80021ea:	4293      	cmp	r3, r2
 80021ec:	d0d7      	beq.n	800219e <HAL_DMA_Abort_IT+0x8e>
 80021ee:	3214      	adds	r2, #20
 80021f0:	4293      	cmp	r3, r2
 80021f2:	d0d4      	beq.n	800219e <HAL_DMA_Abort_IT+0x8e>
 80021f4:	3214      	adds	r2, #20
 80021f6:	4293      	cmp	r3, r2
 80021f8:	d0d1      	beq.n	800219e <HAL_DMA_Abort_IT+0x8e>
 80021fa:	3214      	adds	r2, #20
 80021fc:	4293      	cmp	r3, r2
 80021fe:	d0ce      	beq.n	800219e <HAL_DMA_Abort_IT+0x8e>
 8002200:	3214      	adds	r2, #20
 8002202:	4293      	cmp	r3, r2
 8002204:	d0cb      	beq.n	800219e <HAL_DMA_Abort_IT+0x8e>
 8002206:	3214      	adds	r2, #20
 8002208:	4293      	cmp	r3, r2
 800220a:	d0c8      	beq.n	800219e <HAL_DMA_Abort_IT+0x8e>
 800220c:	2301      	movs	r3, #1
 800220e:	f880 3035 	strb.w	r3, [r0, #53]	@ 0x35
 8002212:	2300      	movs	r3, #0
 8002214:	f880 3034 	strb.w	r3, [r0, #52]	@ 0x34
 8002218:	6d03      	ldr	r3, [r0, #80]	@ 0x50
 800221a:	2b00      	cmp	r3, #0
 800221c:	d0df      	beq.n	80021de <HAL_DMA_Abort_IT+0xce>
 800221e:	4798      	blx	r3
 8002220:	e7dd      	b.n	80021de <HAL_DMA_Abort_IT+0xce>
 8002222:	bf00      	nop
 8002224:	40020010 	.word	0x40020010
 8002228:	58025408 	.word	0x58025408
 800222c:	5802541c 	.word	0x5802541c

08002230 <HAL_GPIO_Init>:
 8002230:	e92d 4ff7 	stmdb	sp!, {r0, r1, r2, r4, r5, r6, r7, r8, r9, sl, fp, lr}
 8002234:	2300      	movs	r3, #0
 8002236:	f8df 91c4 	ldr.w	r9, [pc, #452]	@ 80023fc <HAL_GPIO_Init+0x1cc>
 800223a:	f04f 44b0 	mov.w	r4, #1476395008	@ 0x58000000
 800223e:	680a      	ldr	r2, [r1, #0]
 8002240:	fa32 f503 	lsrs.w	r5, r2, r3
 8002244:	d102      	bne.n	800224c <HAL_GPIO_Init+0x1c>
 8002246:	b003      	add	sp, #12
 8002248:	e8bd 8ff0 	ldmia.w	sp!, {r4, r5, r6, r7, r8, r9, sl, fp, pc}
 800224c:	2501      	movs	r5, #1
 800224e:	fa05 f803 	lsl.w	r8, r5, r3
 8002252:	ea18 0202 	ands.w	r2, r8, r2
 8002256:	f000 80bb 	beq.w	80023d0 <HAL_GPIO_Init+0x1a0>
 800225a:	684e      	ldr	r6, [r1, #4]
 800225c:	2703      	movs	r7, #3
 800225e:	ea4f 0e43 	mov.w	lr, r3, lsl #1
 8002262:	f006 0503 	and.w	r5, r6, #3
 8002266:	fa07 fc0e 	lsl.w	ip, r7, lr
 800226a:	1e6f      	subs	r7, r5, #1
 800226c:	ea6f 0c0c 	mvn.w	ip, ip
 8002270:	2f01      	cmp	r7, #1
 8002272:	d834      	bhi.n	80022de <HAL_GPIO_Init+0xae>
 8002274:	6887      	ldr	r7, [r0, #8]
 8002276:	ea07 0a0c 	and.w	sl, r7, ip
 800227a:	68cf      	ldr	r7, [r1, #12]
 800227c:	fa07 f70e 	lsl.w	r7, r7, lr
 8002280:	ea47 070a 	orr.w	r7, r7, sl
 8002284:	6087      	str	r7, [r0, #8]
 8002286:	6847      	ldr	r7, [r0, #4]
 8002288:	ea27 0808 	bic.w	r8, r7, r8
 800228c:	f3c6 1700 	ubfx	r7, r6, #4, #1
 8002290:	409f      	lsls	r7, r3
 8002292:	ea47 0708 	orr.w	r7, r7, r8
 8002296:	6047      	str	r7, [r0, #4]
 8002298:	68c7      	ldr	r7, [r0, #12]
 800229a:	2d02      	cmp	r5, #2
 800229c:	ea07 080c 	and.w	r8, r7, ip
 80022a0:	688f      	ldr	r7, [r1, #8]
 80022a2:	fa07 f70e 	lsl.w	r7, r7, lr
 80022a6:	ea47 0708 	orr.w	r7, r7, r8
 80022aa:	60c7      	str	r7, [r0, #12]
 80022ac:	d119      	bne.n	80022e2 <HAL_GPIO_Init+0xb2>
 80022ae:	ea4f 08d3 	mov.w	r8, r3, lsr #3
 80022b2:	f003 0a07 	and.w	sl, r3, #7
 80022b6:	f04f 0b0f 	mov.w	fp, #15
 80022ba:	eb00 0888 	add.w	r8, r0, r8, lsl #2
 80022be:	ea4f 0a8a 	mov.w	sl, sl, lsl #2
 80022c2:	f8d8 7020 	ldr.w	r7, [r8, #32]
 80022c6:	fa0b fb0a 	lsl.w	fp, fp, sl
 80022ca:	ea27 0b0b 	bic.w	fp, r7, fp
 80022ce:	690f      	ldr	r7, [r1, #16]
 80022d0:	fa07 f70a 	lsl.w	r7, r7, sl
 80022d4:	ea47 070b 	orr.w	r7, r7, fp
 80022d8:	f8c8 7020 	str.w	r7, [r8, #32]
 80022dc:	e001      	b.n	80022e2 <HAL_GPIO_Init+0xb2>
 80022de:	2d03      	cmp	r5, #3
 80022e0:	d1da      	bne.n	8002298 <HAL_GPIO_Init+0x68>
 80022e2:	6807      	ldr	r7, [r0, #0]
 80022e4:	fa05 f50e 	lsl.w	r5, r5, lr
 80022e8:	f416 3f40 	tst.w	r6, #196608	@ 0x30000
 80022ec:	ea07 070c 	and.w	r7, r7, ip
 80022f0:	ea45 0507 	orr.w	r5, r5, r7
 80022f4:	6005      	str	r5, [r0, #0]
 80022f6:	d06b      	beq.n	80023d0 <HAL_GPIO_Init+0x1a0>
 80022f8:	f8d9 5154 	ldr.w	r5, [r9, #340]	@ 0x154
 80022fc:	f023 0703 	bic.w	r7, r3, #3
 8002300:	f003 0c03 	and.w	ip, r3, #3
 8002304:	f04f 0e0f 	mov.w	lr, #15
 8002308:	f045 0502 	orr.w	r5, r5, #2
 800230c:	f107 47b0 	add.w	r7, r7, #1476395008	@ 0x58000000
 8002310:	ea4f 0c8c 	mov.w	ip, ip, lsl #2
 8002314:	f8c9 5154 	str.w	r5, [r9, #340]	@ 0x154
 8002318:	f507 6780 	add.w	r7, r7, #1024	@ 0x400
 800231c:	f8d9 5154 	ldr.w	r5, [r9, #340]	@ 0x154
 8002320:	fa0e fe0c 	lsl.w	lr, lr, ip
 8002324:	f005 0502 	and.w	r5, r5, #2
 8002328:	9501      	str	r5, [sp, #4]
 800232a:	9d01      	ldr	r5, [sp, #4]
 800232c:	68bd      	ldr	r5, [r7, #8]
 800232e:	ea25 0e0e 	bic.w	lr, r5, lr
 8002332:	4d31      	ldr	r5, [pc, #196]	@ (80023f8 <HAL_GPIO_Init+0x1c8>)
 8002334:	42a8      	cmp	r0, r5
 8002336:	d04d      	beq.n	80023d4 <HAL_GPIO_Init+0x1a4>
 8002338:	f505 6580 	add.w	r5, r5, #1024	@ 0x400
 800233c:	42a8      	cmp	r0, r5
 800233e:	d04b      	beq.n	80023d8 <HAL_GPIO_Init+0x1a8>
 8002340:	f505 6580 	add.w	r5, r5, #1024	@ 0x400
 8002344:	42a8      	cmp	r0, r5
 8002346:	d049      	beq.n	80023dc <HAL_GPIO_Init+0x1ac>
 8002348:	f505 6580 	add.w	r5, r5, #1024	@ 0x400
 800234c:	42a8      	cmp	r0, r5
 800234e:	d047      	beq.n	80023e0 <HAL_GPIO_Init+0x1b0>
 8002350:	f505 6580 	add.w	r5, r5, #1024	@ 0x400
 8002354:	42a8      	cmp	r0, r5
 8002356:	d045      	beq.n	80023e4 <HAL_GPIO_Init+0x1b4>
 8002358:	f505 6580 	add.w	r5, r5, #1024	@ 0x400
 800235c:	42a8      	cmp	r0, r5
 800235e:	d043      	beq.n	80023e8 <HAL_GPIO_Init+0x1b8>
 8002360:	f505 6580 	add.w	r5, r5, #1024	@ 0x400
 8002364:	42a8      	cmp	r0, r5
 8002366:	d041      	beq.n	80023ec <HAL_GPIO_Init+0x1bc>
 8002368:	f505 6580 	add.w	r5, r5, #1024	@ 0x400
 800236c:	42a8      	cmp	r0, r5
 800236e:	d03f      	beq.n	80023f0 <HAL_GPIO_Init+0x1c0>
 8002370:	f505 6580 	add.w	r5, r5, #1024	@ 0x400
 8002374:	42a8      	cmp	r0, r5
 8002376:	d03d      	beq.n	80023f4 <HAL_GPIO_Init+0x1c4>
 8002378:	f505 6580 	add.w	r5, r5, #1024	@ 0x400
 800237c:	42a8      	cmp	r0, r5
 800237e:	bf14      	ite	ne
 8002380:	250a      	movne	r5, #10
 8002382:	2509      	moveq	r5, #9
 8002384:	fa05 f50c 	lsl.w	r5, r5, ip
 8002388:	f416 1f80 	tst.w	r6, #1048576	@ 0x100000
 800238c:	ea45 050e 	orr.w	r5, r5, lr
 8002390:	60bd      	str	r5, [r7, #8]
 8002392:	ea6f 0702 	mvn.w	r7, r2
 8002396:	6825      	ldr	r5, [r4, #0]
 8002398:	bf0c      	ite	eq
 800239a:	403d      	andeq	r5, r7
 800239c:	4315      	orrne	r5, r2
 800239e:	f416 1f00 	tst.w	r6, #2097152	@ 0x200000
 80023a2:	6025      	str	r5, [r4, #0]
 80023a4:	6865      	ldr	r5, [r4, #4]
 80023a6:	bf0c      	ite	eq
 80023a8:	403d      	andeq	r5, r7
 80023aa:	4315      	orrne	r5, r2
 80023ac:	f416 3f00 	tst.w	r6, #131072	@ 0x20000
 80023b0:	6065      	str	r5, [r4, #4]
 80023b2:	f8d4 5084 	ldr.w	r5, [r4, #132]	@ 0x84
 80023b6:	bf0c      	ite	eq
 80023b8:	403d      	andeq	r5, r7
 80023ba:	4315      	orrne	r5, r2
 80023bc:	03f6      	lsls	r6, r6, #15
 80023be:	f8c4 5084 	str.w	r5, [r4, #132]	@ 0x84
 80023c2:	f8d4 5080 	ldr.w	r5, [r4, #128]	@ 0x80
 80023c6:	bf54      	ite	pl
 80023c8:	403d      	andpl	r5, r7
 80023ca:	4315      	orrmi	r5, r2
 80023cc:	f8c4 5080 	str.w	r5, [r4, #128]	@ 0x80
 80023d0:	3301      	adds	r3, #1
 80023d2:	e734      	b.n	800223e <HAL_GPIO_Init+0xe>
 80023d4:	2500      	movs	r5, #0
 80023d6:	e7d5      	b.n	8002384 <HAL_GPIO_Init+0x154>
 80023d8:	2501      	movs	r5, #1
 80023da:	e7d3      	b.n	8002384 <HAL_GPIO_Init+0x154>
 80023dc:	2502      	movs	r5, #2
 80023de:	e7d1      	b.n	8002384 <HAL_GPIO_Init+0x154>
 80023e0:	2503      	movs	r5, #3
 80023e2:	e7cf      	b.n	8002384 <HAL_GPIO_Init+0x154>
 80023e4:	2504      	movs	r5, #4
 80023e6:	e7cd      	b.n	8002384 <HAL_GPIO_Init+0x154>
 80023e8:	2505      	movs	r5, #5
 80023ea:	e7cb      	b.n	8002384 <HAL_GPIO_Init+0x154>
 80023ec:	2506      	movs	r5, #6
 80023ee:	e7c9      	b.n	8002384 <HAL_GPIO_Init+0x154>
 80023f0:	2507      	movs	r5, #7
 80023f2:	e7c7      	b.n	8002384 <HAL_GPIO_Init+0x154>
 80023f4:	2508      	movs	r5, #8
 80023f6:	e7c5      	b.n	8002384 <HAL_GPIO_Init+0x154>
 80023f8:	58020000 	.word	0x58020000
 80023fc:	58024400 	.word	0x58024400

08002400 <HAL_GPIO_WritePin>:
 8002400:	b10a      	cbz	r2, 8002406 <HAL_GPIO_WritePin+0x6>
 8002402:	6181      	str	r1, [r0, #24]
 8002404:	4770      	bx	lr
 8002406:	0409      	lsls	r1, r1, #16
 8002408:	e7fb      	b.n	8002402 <HAL_GPIO_WritePin+0x2>
	...

0800240c <HAL_PWREx_ConfigSupply>:
 800240c:	b570      	push	{r4, r5, r6, lr}
 800240e:	4d1c      	ldr	r5, [pc, #112]	@ (8002480 <HAL_PWREx_ConfigSupply+0x74>)
 8002410:	4604      	mov	r4, r0
 8002412:	68eb      	ldr	r3, [r5, #12]
 8002414:	f003 0307 	and.w	r3, r3, #7
 8002418:	2b06      	cmp	r3, #6
 800241a:	d006      	beq.n	800242a <HAL_PWREx_ConfigSupply+0x1e>
 800241c:	68e8      	ldr	r0, [r5, #12]
 800241e:	f000 003f 	and.w	r0, r0, #63	@ 0x3f
 8002422:	1b00      	subs	r0, r0, r4
 8002424:	bf18      	it	ne
 8002426:	2001      	movne	r0, #1
 8002428:	bd70      	pop	{r4, r5, r6, pc}
 800242a:	68eb      	ldr	r3, [r5, #12]
 800242c:	f023 033f 	bic.w	r3, r3, #63	@ 0x3f
 8002430:	4303      	orrs	r3, r0
 8002432:	60eb      	str	r3, [r5, #12]
 8002434:	f7ff fbfe 	bl	8001c34 <HAL_GetTick>
 8002438:	4606      	mov	r6, r0
 800243a:	686b      	ldr	r3, [r5, #4]
 800243c:	049a      	lsls	r2, r3, #18
 800243e:	d508      	bpl.n	8002452 <HAL_PWREx_ConfigSupply+0x46>
 8002440:	f1a4 031d 	sub.w	r3, r4, #29
 8002444:	2b01      	cmp	r3, #1
 8002446:	d90c      	bls.n	8002462 <HAL_PWREx_ConfigSupply+0x56>
 8002448:	3c2d      	subs	r4, #45	@ 0x2d
 800244a:	2c01      	cmp	r4, #1
 800244c:	d909      	bls.n	8002462 <HAL_PWREx_ConfigSupply+0x56>
 800244e:	2000      	movs	r0, #0
 8002450:	e7ea      	b.n	8002428 <HAL_PWREx_ConfigSupply+0x1c>
 8002452:	f7ff fbef 	bl	8001c34 <HAL_GetTick>
 8002456:	1b80      	subs	r0, r0, r6
 8002458:	f5b0 7f7a 	cmp.w	r0, #1000	@ 0x3e8
 800245c:	d9ed      	bls.n	800243a <HAL_PWREx_ConfigSupply+0x2e>
 800245e:	2001      	movs	r0, #1
 8002460:	e7e2      	b.n	8002428 <HAL_PWREx_ConfigSupply+0x1c>
 8002462:	f7ff fbe7 	bl	8001c34 <HAL_GetTick>
 8002466:	4d06      	ldr	r5, [pc, #24]	@ (8002480 <HAL_PWREx_ConfigSupply+0x74>)
 8002468:	4604      	mov	r4, r0
 800246a:	68eb      	ldr	r3, [r5, #12]
 800246c:	03db      	lsls	r3, r3, #15
 800246e:	d4ee      	bmi.n	800244e <HAL_PWREx_ConfigSupply+0x42>
 8002470:	f7ff fbe0 	bl	8001c34 <HAL_GetTick>
 8002474:	1b00      	subs	r0, r0, r4
 8002476:	f5b0 7f7a 	cmp.w	r0, #1000	@ 0x3e8
 800247a:	d9f6      	bls.n	800246a <HAL_PWREx_ConfigSupply+0x5e>
 800247c:	e7ef      	b.n	800245e <HAL_PWREx_ConfigSupply+0x52>
 800247e:	bf00      	nop
 8002480:	58024800 	.word	0x58024800

08002484 <HAL_RCC_OscConfig>:
 8002484:	b5f8      	push	{r3, r4, r5, r6, r7, lr}
 8002486:	4604      	mov	r4, r0
 8002488:	2800      	cmp	r0, #0
 800248a:	d069      	beq.n	8002560 <HAL_RCC_OscConfig+0xdc>
 800248c:	6803      	ldr	r3, [r0, #0]
 800248e:	07d8      	lsls	r0, r3, #31
 8002490:	d453      	bmi.n	800253a <HAL_RCC_OscConfig+0xb6>
 8002492:	6823      	ldr	r3, [r4, #0]
 8002494:	0799      	lsls	r1, r3, #30
 8002496:	f100 80b8 	bmi.w	800260a <HAL_RCC_OscConfig+0x186>
 800249a:	6823      	ldr	r3, [r4, #0]
 800249c:	06da      	lsls	r2, r3, #27
 800249e:	d51c      	bpl.n	80024da <HAL_RCC_OscConfig+0x56>
 80024a0:	4a96      	ldr	r2, [pc, #600]	@ (80026fc <HAL_RCC_OscConfig+0x278>)
 80024a2:	6913      	ldr	r3, [r2, #16]
 80024a4:	6a91      	ldr	r1, [r2, #40]	@ 0x28
 80024a6:	f003 0338 	and.w	r3, r3, #56	@ 0x38
 80024aa:	2b08      	cmp	r3, #8
 80024ac:	d007      	beq.n	80024be <HAL_RCC_OscConfig+0x3a>
 80024ae:	2b18      	cmp	r3, #24
 80024b0:	f040 80f8 	bne.w	80026a4 <HAL_RCC_OscConfig+0x220>
 80024b4:	f001 0303 	and.w	r3, r1, #3
 80024b8:	2b01      	cmp	r3, #1
 80024ba:	f040 80f3 	bne.w	80026a4 <HAL_RCC_OscConfig+0x220>
 80024be:	6813      	ldr	r3, [r2, #0]
 80024c0:	05db      	lsls	r3, r3, #23
 80024c2:	d502      	bpl.n	80024ca <HAL_RCC_OscConfig+0x46>
 80024c4:	69e3      	ldr	r3, [r4, #28]
 80024c6:	2b80      	cmp	r3, #128	@ 0x80
 80024c8:	d14a      	bne.n	8002560 <HAL_RCC_OscConfig+0xdc>
 80024ca:	4a8c      	ldr	r2, [pc, #560]	@ (80026fc <HAL_RCC_OscConfig+0x278>)
 80024cc:	6a21      	ldr	r1, [r4, #32]
 80024ce:	68d3      	ldr	r3, [r2, #12]
 80024d0:	f023 537c 	bic.w	r3, r3, #1056964608	@ 0x3f000000
 80024d4:	ea43 6301 	orr.w	r3, r3, r1, lsl #24
 80024d8:	60d3      	str	r3, [r2, #12]
 80024da:	6823      	ldr	r3, [r4, #0]
 80024dc:	0719      	lsls	r1, r3, #28
 80024de:	f100 8111 	bmi.w	8002704 <HAL_RCC_OscConfig+0x280>
 80024e2:	6823      	ldr	r3, [r4, #0]
 80024e4:	069a      	lsls	r2, r3, #26
 80024e6:	f100 8132 	bmi.w	800274e <HAL_RCC_OscConfig+0x2ca>
 80024ea:	6823      	ldr	r3, [r4, #0]
 80024ec:	075d      	lsls	r5, r3, #29
 80024ee:	d51e      	bpl.n	800252e <HAL_RCC_OscConfig+0xaa>
 80024f0:	4d83      	ldr	r5, [pc, #524]	@ (8002700 <HAL_RCC_OscConfig+0x27c>)
 80024f2:	682b      	ldr	r3, [r5, #0]
 80024f4:	f443 7380 	orr.w	r3, r3, #256	@ 0x100
 80024f8:	602b      	str	r3, [r5, #0]
 80024fa:	f7ff fb9b 	bl	8001c34 <HAL_GetTick>
 80024fe:	4606      	mov	r6, r0
 8002500:	682b      	ldr	r3, [r5, #0]
 8002502:	05da      	lsls	r2, r3, #23
 8002504:	f140 8148 	bpl.w	8002798 <HAL_RCC_OscConfig+0x314>
 8002508:	68a3      	ldr	r3, [r4, #8]
 800250a:	4d7c      	ldr	r5, [pc, #496]	@ (80026fc <HAL_RCC_OscConfig+0x278>)
 800250c:	2b01      	cmp	r3, #1
 800250e:	f040 814a 	bne.w	80027a6 <HAL_RCC_OscConfig+0x322>
 8002512:	6f2b      	ldr	r3, [r5, #112]	@ 0x70
 8002514:	f043 0301 	orr.w	r3, r3, #1
 8002518:	672b      	str	r3, [r5, #112]	@ 0x70
 800251a:	f241 3788 	movw	r7, #5000	@ 0x1388
 800251e:	f7ff fb89 	bl	8001c34 <HAL_GetTick>
 8002522:	4e76      	ldr	r6, [pc, #472]	@ (80026fc <HAL_RCC_OscConfig+0x278>)
 8002524:	4605      	mov	r5, r0
 8002526:	6f33      	ldr	r3, [r6, #112]	@ 0x70
 8002528:	079b      	lsls	r3, r3, #30
 800252a:	f140 8178 	bpl.w	800281e <HAL_RCC_OscConfig+0x39a>
 800252e:	6a61      	ldr	r1, [r4, #36]	@ 0x24
 8002530:	2900      	cmp	r1, #0
 8002532:	f040 817b 	bne.w	800282c <HAL_RCC_OscConfig+0x3a8>
 8002536:	2000      	movs	r0, #0
 8002538:	e02a      	b.n	8002590 <HAL_RCC_OscConfig+0x10c>
 800253a:	4a70      	ldr	r2, [pc, #448]	@ (80026fc <HAL_RCC_OscConfig+0x278>)
 800253c:	6913      	ldr	r3, [r2, #16]
 800253e:	6a91      	ldr	r1, [r2, #40]	@ 0x28
 8002540:	f003 0338 	and.w	r3, r3, #56	@ 0x38
 8002544:	2b10      	cmp	r3, #16
 8002546:	d005      	beq.n	8002554 <HAL_RCC_OscConfig+0xd0>
 8002548:	2b18      	cmp	r3, #24
 800254a:	d10b      	bne.n	8002564 <HAL_RCC_OscConfig+0xe0>
 800254c:	f001 0303 	and.w	r3, r1, #3
 8002550:	2b02      	cmp	r3, #2
 8002552:	d107      	bne.n	8002564 <HAL_RCC_OscConfig+0xe0>
 8002554:	6813      	ldr	r3, [r2, #0]
 8002556:	039a      	lsls	r2, r3, #14
 8002558:	d59b      	bpl.n	8002492 <HAL_RCC_OscConfig+0xe>
 800255a:	6863      	ldr	r3, [r4, #4]
 800255c:	2b00      	cmp	r3, #0
 800255e:	d198      	bne.n	8002492 <HAL_RCC_OscConfig+0xe>
 8002560:	2001      	movs	r0, #1
 8002562:	e015      	b.n	8002590 <HAL_RCC_OscConfig+0x10c>
 8002564:	6863      	ldr	r3, [r4, #4]
 8002566:	4d65      	ldr	r5, [pc, #404]	@ (80026fc <HAL_RCC_OscConfig+0x278>)
 8002568:	f5b3 3f80 	cmp.w	r3, #65536	@ 0x10000
 800256c:	d111      	bne.n	8002592 <HAL_RCC_OscConfig+0x10e>
 800256e:	682b      	ldr	r3, [r5, #0]
 8002570:	f443 3380 	orr.w	r3, r3, #65536	@ 0x10000
 8002574:	602b      	str	r3, [r5, #0]
 8002576:	f7ff fb5d 	bl	8001c34 <HAL_GetTick>
 800257a:	4e60      	ldr	r6, [pc, #384]	@ (80026fc <HAL_RCC_OscConfig+0x278>)
 800257c:	4605      	mov	r5, r0
 800257e:	6833      	ldr	r3, [r6, #0]
 8002580:	039b      	lsls	r3, r3, #14
 8002582:	d486      	bmi.n	8002492 <HAL_RCC_OscConfig+0xe>
 8002584:	f7ff fb56 	bl	8001c34 <HAL_GetTick>
 8002588:	1b40      	subs	r0, r0, r5
 800258a:	2864      	cmp	r0, #100	@ 0x64
 800258c:	d9f7      	bls.n	800257e <HAL_RCC_OscConfig+0xfa>
 800258e:	2003      	movs	r0, #3
 8002590:	bdf8      	pop	{r3, r4, r5, r6, r7, pc}
 8002592:	b9c3      	cbnz	r3, 80025c6 <HAL_RCC_OscConfig+0x142>
 8002594:	682b      	ldr	r3, [r5, #0]
 8002596:	f423 3380 	bic.w	r3, r3, #65536	@ 0x10000
 800259a:	602b      	str	r3, [r5, #0]
 800259c:	682b      	ldr	r3, [r5, #0]
 800259e:	f423 1380 	bic.w	r3, r3, #1048576	@ 0x100000
 80025a2:	602b      	str	r3, [r5, #0]
 80025a4:	682b      	ldr	r3, [r5, #0]
 80025a6:	f423 2380 	bic.w	r3, r3, #262144	@ 0x40000
 80025aa:	602b      	str	r3, [r5, #0]
 80025ac:	f7ff fb42 	bl	8001c34 <HAL_GetTick>
 80025b0:	4606      	mov	r6, r0
 80025b2:	682b      	ldr	r3, [r5, #0]
 80025b4:	039f      	lsls	r7, r3, #14
 80025b6:	f57f af6c 	bpl.w	8002492 <HAL_RCC_OscConfig+0xe>
 80025ba:	f7ff fb3b 	bl	8001c34 <HAL_GetTick>
 80025be:	1b80      	subs	r0, r0, r6
 80025c0:	2864      	cmp	r0, #100	@ 0x64
 80025c2:	d9f6      	bls.n	80025b2 <HAL_RCC_OscConfig+0x12e>
 80025c4:	e7e3      	b.n	800258e <HAL_RCC_OscConfig+0x10a>
 80025c6:	f5b3 2fa0 	cmp.w	r3, #327680	@ 0x50000
 80025ca:	d108      	bne.n	80025de <HAL_RCC_OscConfig+0x15a>
 80025cc:	682b      	ldr	r3, [r5, #0]
 80025ce:	f443 2380 	orr.w	r3, r3, #262144	@ 0x40000
 80025d2:	602b      	str	r3, [r5, #0]
 80025d4:	682b      	ldr	r3, [r5, #0]
 80025d6:	f423 1380 	bic.w	r3, r3, #1048576	@ 0x100000
 80025da:	602b      	str	r3, [r5, #0]
 80025dc:	e7c7      	b.n	800256e <HAL_RCC_OscConfig+0xea>
 80025de:	f5b3 1fa8 	cmp.w	r3, #1376256	@ 0x150000
 80025e2:	682b      	ldr	r3, [r5, #0]
 80025e4:	d106      	bne.n	80025f4 <HAL_RCC_OscConfig+0x170>
 80025e6:	f443 2380 	orr.w	r3, r3, #262144	@ 0x40000
 80025ea:	602b      	str	r3, [r5, #0]
 80025ec:	682b      	ldr	r3, [r5, #0]
 80025ee:	f443 1380 	orr.w	r3, r3, #1048576	@ 0x100000
 80025f2:	e7f2      	b.n	80025da <HAL_RCC_OscConfig+0x156>
 80025f4:	f423 3380 	bic.w	r3, r3, #65536	@ 0x10000
 80025f8:	602b      	str	r3, [r5, #0]
 80025fa:	682b      	ldr	r3, [r5, #0]
 80025fc:	f423 2380 	bic.w	r3, r3, #262144	@ 0x40000
 8002600:	602b      	str	r3, [r5, #0]
 8002602:	682b      	ldr	r3, [r5, #0]
 8002604:	f423 1380 	bic.w	r3, r3, #1048576	@ 0x100000
 8002608:	e7b4      	b.n	8002574 <HAL_RCC_OscConfig+0xf0>
 800260a:	493c      	ldr	r1, [pc, #240]	@ (80026fc <HAL_RCC_OscConfig+0x278>)
 800260c:	68e2      	ldr	r2, [r4, #12]
 800260e:	690b      	ldr	r3, [r1, #16]
 8002610:	6a88      	ldr	r0, [r1, #40]	@ 0x28
 8002612:	f013 0338 	ands.w	r3, r3, #56	@ 0x38
 8002616:	d003      	beq.n	8002620 <HAL_RCC_OscConfig+0x19c>
 8002618:	2b18      	cmp	r3, #24
 800261a:	d120      	bne.n	800265e <HAL_RCC_OscConfig+0x1da>
 800261c:	0780      	lsls	r0, r0, #30
 800261e:	d11e      	bne.n	800265e <HAL_RCC_OscConfig+0x1da>
 8002620:	680b      	ldr	r3, [r1, #0]
 8002622:	075b      	lsls	r3, r3, #29
 8002624:	d501      	bpl.n	800262a <HAL_RCC_OscConfig+0x1a6>
 8002626:	2a00      	cmp	r2, #0
 8002628:	d09a      	beq.n	8002560 <HAL_RCC_OscConfig+0xdc>
 800262a:	4d34      	ldr	r5, [pc, #208]	@ (80026fc <HAL_RCC_OscConfig+0x278>)
 800262c:	682b      	ldr	r3, [r5, #0]
 800262e:	f023 0319 	bic.w	r3, r3, #25
 8002632:	4313      	orrs	r3, r2
 8002634:	602b      	str	r3, [r5, #0]
 8002636:	f7ff fafd 	bl	8001c34 <HAL_GetTick>
 800263a:	4606      	mov	r6, r0
 800263c:	682b      	ldr	r3, [r5, #0]
 800263e:	075f      	lsls	r7, r3, #29
 8002640:	d507      	bpl.n	8002652 <HAL_RCC_OscConfig+0x1ce>
 8002642:	686b      	ldr	r3, [r5, #4]
 8002644:	6922      	ldr	r2, [r4, #16]
 8002646:	f023 43fe 	bic.w	r3, r3, #2130706432	@ 0x7f000000
 800264a:	ea43 6302 	orr.w	r3, r3, r2, lsl #24
 800264e:	606b      	str	r3, [r5, #4]
 8002650:	e723      	b.n	800249a <HAL_RCC_OscConfig+0x16>
 8002652:	f7ff faef 	bl	8001c34 <HAL_GetTick>
 8002656:	1b80      	subs	r0, r0, r6
 8002658:	2802      	cmp	r0, #2
 800265a:	d9ef      	bls.n	800263c <HAL_RCC_OscConfig+0x1b8>
 800265c:	e797      	b.n	800258e <HAL_RCC_OscConfig+0x10a>
 800265e:	4d27      	ldr	r5, [pc, #156]	@ (80026fc <HAL_RCC_OscConfig+0x278>)
 8002660:	682b      	ldr	r3, [r5, #0]
 8002662:	b17a      	cbz	r2, 8002684 <HAL_RCC_OscConfig+0x200>
 8002664:	f023 0319 	bic.w	r3, r3, #25
 8002668:	4313      	orrs	r3, r2
 800266a:	602b      	str	r3, [r5, #0]
 800266c:	f7ff fae2 	bl	8001c34 <HAL_GetTick>
 8002670:	4606      	mov	r6, r0
 8002672:	682b      	ldr	r3, [r5, #0]
 8002674:	0758      	lsls	r0, r3, #29
 8002676:	d4e4      	bmi.n	8002642 <HAL_RCC_OscConfig+0x1be>
 8002678:	f7ff fadc 	bl	8001c34 <HAL_GetTick>
 800267c:	1b80      	subs	r0, r0, r6
 800267e:	2802      	cmp	r0, #2
 8002680:	d9f7      	bls.n	8002672 <HAL_RCC_OscConfig+0x1ee>
 8002682:	e784      	b.n	800258e <HAL_RCC_OscConfig+0x10a>
 8002684:	f023 0301 	bic.w	r3, r3, #1
 8002688:	602b      	str	r3, [r5, #0]
 800268a:	f7ff fad3 	bl	8001c34 <HAL_GetTick>
 800268e:	4606      	mov	r6, r0
 8002690:	682b      	ldr	r3, [r5, #0]
 8002692:	0759      	lsls	r1, r3, #29
 8002694:	f57f af01 	bpl.w	800249a <HAL_RCC_OscConfig+0x16>
 8002698:	f7ff facc 	bl	8001c34 <HAL_GetTick>
 800269c:	1b80      	subs	r0, r0, r6
 800269e:	2802      	cmp	r0, #2
 80026a0:	d9f6      	bls.n	8002690 <HAL_RCC_OscConfig+0x20c>
 80026a2:	e774      	b.n	800258e <HAL_RCC_OscConfig+0x10a>
 80026a4:	69e3      	ldr	r3, [r4, #28]
 80026a6:	4d15      	ldr	r5, [pc, #84]	@ (80026fc <HAL_RCC_OscConfig+0x278>)
 80026a8:	b1bb      	cbz	r3, 80026da <HAL_RCC_OscConfig+0x256>
 80026aa:	682b      	ldr	r3, [r5, #0]
 80026ac:	f043 0380 	orr.w	r3, r3, #128	@ 0x80
 80026b0:	602b      	str	r3, [r5, #0]
 80026b2:	f7ff fabf 	bl	8001c34 <HAL_GetTick>
 80026b6:	4606      	mov	r6, r0
 80026b8:	682b      	ldr	r3, [r5, #0]
 80026ba:	05df      	lsls	r7, r3, #23
 80026bc:	d507      	bpl.n	80026ce <HAL_RCC_OscConfig+0x24a>
 80026be:	68eb      	ldr	r3, [r5, #12]
 80026c0:	6a22      	ldr	r2, [r4, #32]
 80026c2:	f023 537c 	bic.w	r3, r3, #1056964608	@ 0x3f000000
 80026c6:	ea43 6302 	orr.w	r3, r3, r2, lsl #24
 80026ca:	60eb      	str	r3, [r5, #12]
 80026cc:	e705      	b.n	80024da <HAL_RCC_OscConfig+0x56>
 80026ce:	f7ff fab1 	bl	8001c34 <HAL_GetTick>
 80026d2:	1b80      	subs	r0, r0, r6
 80026d4:	2802      	cmp	r0, #2
 80026d6:	d9ef      	bls.n	80026b8 <HAL_RCC_OscConfig+0x234>
 80026d8:	e759      	b.n	800258e <HAL_RCC_OscConfig+0x10a>
 80026da:	682b      	ldr	r3, [r5, #0]
 80026dc:	f023 0380 	bic.w	r3, r3, #128	@ 0x80
 80026e0:	602b      	str	r3, [r5, #0]
 80026e2:	f7ff faa7 	bl	8001c34 <HAL_GetTick>
 80026e6:	4606      	mov	r6, r0
 80026e8:	682b      	ldr	r3, [r5, #0]
 80026ea:	05d8      	lsls	r0, r3, #23
 80026ec:	f57f aef5 	bpl.w	80024da <HAL_RCC_OscConfig+0x56>
 80026f0:	f7ff faa0 	bl	8001c34 <HAL_GetTick>
 80026f4:	1b80      	subs	r0, r0, r6
 80026f6:	2802      	cmp	r0, #2
 80026f8:	d9f6      	bls.n	80026e8 <HAL_RCC_OscConfig+0x264>
 80026fa:	e748      	b.n	800258e <HAL_RCC_OscConfig+0x10a>
 80026fc:	58024400 	.word	0x58024400
 8002700:	58024800 	.word	0x58024800
 8002704:	6963      	ldr	r3, [r4, #20]
 8002706:	4d8a      	ldr	r5, [pc, #552]	@ (8002930 <HAL_RCC_OscConfig+0x4ac>)
 8002708:	b183      	cbz	r3, 800272c <HAL_RCC_OscConfig+0x2a8>
 800270a:	6f6b      	ldr	r3, [r5, #116]	@ 0x74
 800270c:	f043 0301 	orr.w	r3, r3, #1
 8002710:	676b      	str	r3, [r5, #116]	@ 0x74
 8002712:	f7ff fa8f 	bl	8001c34 <HAL_GetTick>
 8002716:	4606      	mov	r6, r0
 8002718:	6f6b      	ldr	r3, [r5, #116]	@ 0x74
 800271a:	079b      	lsls	r3, r3, #30
 800271c:	f53f aee1 	bmi.w	80024e2 <HAL_RCC_OscConfig+0x5e>
 8002720:	f7ff fa88 	bl	8001c34 <HAL_GetTick>
 8002724:	1b80      	subs	r0, r0, r6
 8002726:	2802      	cmp	r0, #2
 8002728:	d9f6      	bls.n	8002718 <HAL_RCC_OscConfig+0x294>
 800272a:	e730      	b.n	800258e <HAL_RCC_OscConfig+0x10a>
 800272c:	6f6b      	ldr	r3, [r5, #116]	@ 0x74
 800272e:	f023 0301 	bic.w	r3, r3, #1
 8002732:	676b      	str	r3, [r5, #116]	@ 0x74
 8002734:	f7ff fa7e 	bl	8001c34 <HAL_GetTick>
 8002738:	4606      	mov	r6, r0
 800273a:	6f6b      	ldr	r3, [r5, #116]	@ 0x74
 800273c:	079f      	lsls	r7, r3, #30
 800273e:	f57f aed0 	bpl.w	80024e2 <HAL_RCC_OscConfig+0x5e>
 8002742:	f7ff fa77 	bl	8001c34 <HAL_GetTick>
 8002746:	1b80      	subs	r0, r0, r6
 8002748:	2802      	cmp	r0, #2
 800274a:	d9f6      	bls.n	800273a <HAL_RCC_OscConfig+0x2b6>
 800274c:	e71f      	b.n	800258e <HAL_RCC_OscConfig+0x10a>
 800274e:	69a3      	ldr	r3, [r4, #24]
 8002750:	4d77      	ldr	r5, [pc, #476]	@ (8002930 <HAL_RCC_OscConfig+0x4ac>)
 8002752:	b183      	cbz	r3, 8002776 <HAL_RCC_OscConfig+0x2f2>
 8002754:	682b      	ldr	r3, [r5, #0]
 8002756:	f443 5380 	orr.w	r3, r3, #4096	@ 0x1000
 800275a:	602b      	str	r3, [r5, #0]
 800275c:	f7ff fa6a 	bl	8001c34 <HAL_GetTick>
 8002760:	4606      	mov	r6, r0
 8002762:	682b      	ldr	r3, [r5, #0]
 8002764:	0498      	lsls	r0, r3, #18
 8002766:	f53f aec0 	bmi.w	80024ea <HAL_RCC_OscConfig+0x66>
 800276a:	f7ff fa63 	bl	8001c34 <HAL_GetTick>
 800276e:	1b80      	subs	r0, r0, r6
 8002770:	2802      	cmp	r0, #2
 8002772:	d9f6      	bls.n	8002762 <HAL_RCC_OscConfig+0x2de>
 8002774:	e70b      	b.n	800258e <HAL_RCC_OscConfig+0x10a>
 8002776:	682b      	ldr	r3, [r5, #0]
 8002778:	f423 5380 	bic.w	r3, r3, #4096	@ 0x1000
 800277c:	602b      	str	r3, [r5, #0]
 800277e:	f7ff fa59 	bl	8001c34 <HAL_GetTick>
 8002782:	4606      	mov	r6, r0
 8002784:	682b      	ldr	r3, [r5, #0]
 8002786:	0499      	lsls	r1, r3, #18
 8002788:	f57f aeaf 	bpl.w	80024ea <HAL_RCC_OscConfig+0x66>
 800278c:	f7ff fa52 	bl	8001c34 <HAL_GetTick>
 8002790:	1b80      	subs	r0, r0, r6
 8002792:	2802      	cmp	r0, #2
 8002794:	d9f6      	bls.n	8002784 <HAL_RCC_OscConfig+0x300>
 8002796:	e6fa      	b.n	800258e <HAL_RCC_OscConfig+0x10a>
 8002798:	f7ff fa4c 	bl	8001c34 <HAL_GetTick>
 800279c:	1b80      	subs	r0, r0, r6
 800279e:	2864      	cmp	r0, #100	@ 0x64
 80027a0:	f67f aeae 	bls.w	8002500 <HAL_RCC_OscConfig+0x7c>
 80027a4:	e6f3      	b.n	800258e <HAL_RCC_OscConfig+0x10a>
 80027a6:	b9d3      	cbnz	r3, 80027de <HAL_RCC_OscConfig+0x35a>
 80027a8:	6f2b      	ldr	r3, [r5, #112]	@ 0x70
 80027aa:	f241 3788 	movw	r7, #5000	@ 0x1388
 80027ae:	f023 0301 	bic.w	r3, r3, #1
 80027b2:	672b      	str	r3, [r5, #112]	@ 0x70
 80027b4:	6f2b      	ldr	r3, [r5, #112]	@ 0x70
 80027b6:	f023 0380 	bic.w	r3, r3, #128	@ 0x80
 80027ba:	672b      	str	r3, [r5, #112]	@ 0x70
 80027bc:	6f2b      	ldr	r3, [r5, #112]	@ 0x70
 80027be:	f023 0304 	bic.w	r3, r3, #4
 80027c2:	672b      	str	r3, [r5, #112]	@ 0x70
 80027c4:	f7ff fa36 	bl	8001c34 <HAL_GetTick>
 80027c8:	4606      	mov	r6, r0
 80027ca:	6f2b      	ldr	r3, [r5, #112]	@ 0x70
 80027cc:	0798      	lsls	r0, r3, #30
 80027ce:	f57f aeae 	bpl.w	800252e <HAL_RCC_OscConfig+0xaa>
 80027d2:	f7ff fa2f 	bl	8001c34 <HAL_GetTick>
 80027d6:	1b80      	subs	r0, r0, r6
 80027d8:	42b8      	cmp	r0, r7
 80027da:	d9f6      	bls.n	80027ca <HAL_RCC_OscConfig+0x346>
 80027dc:	e6d7      	b.n	800258e <HAL_RCC_OscConfig+0x10a>
 80027de:	2b05      	cmp	r3, #5
 80027e0:	d108      	bne.n	80027f4 <HAL_RCC_OscConfig+0x370>
 80027e2:	6f2b      	ldr	r3, [r5, #112]	@ 0x70
 80027e4:	f043 0304 	orr.w	r3, r3, #4
 80027e8:	672b      	str	r3, [r5, #112]	@ 0x70
 80027ea:	6f2b      	ldr	r3, [r5, #112]	@ 0x70
 80027ec:	f023 0380 	bic.w	r3, r3, #128	@ 0x80
 80027f0:	672b      	str	r3, [r5, #112]	@ 0x70
 80027f2:	e68e      	b.n	8002512 <HAL_RCC_OscConfig+0x8e>
 80027f4:	2b85      	cmp	r3, #133	@ 0x85
 80027f6:	6f2b      	ldr	r3, [r5, #112]	@ 0x70
 80027f8:	d106      	bne.n	8002808 <HAL_RCC_OscConfig+0x384>
 80027fa:	f043 0304 	orr.w	r3, r3, #4
 80027fe:	672b      	str	r3, [r5, #112]	@ 0x70
 8002800:	6f2b      	ldr	r3, [r5, #112]	@ 0x70
 8002802:	f043 0380 	orr.w	r3, r3, #128	@ 0x80
 8002806:	e7f3      	b.n	80027f0 <HAL_RCC_OscConfig+0x36c>
 8002808:	f023 0301 	bic.w	r3, r3, #1
 800280c:	672b      	str	r3, [r5, #112]	@ 0x70
 800280e:	6f2b      	ldr	r3, [r5, #112]	@ 0x70
 8002810:	f023 0304 	bic.w	r3, r3, #4
 8002814:	672b      	str	r3, [r5, #112]	@ 0x70
 8002816:	6f2b      	ldr	r3, [r5, #112]	@ 0x70
 8002818:	f023 0380 	bic.w	r3, r3, #128	@ 0x80
 800281c:	e67c      	b.n	8002518 <HAL_RCC_OscConfig+0x94>
 800281e:	f7ff fa09 	bl	8001c34 <HAL_GetTick>
 8002822:	1b40      	subs	r0, r0, r5
 8002824:	42b8      	cmp	r0, r7
 8002826:	f67f ae7e 	bls.w	8002526 <HAL_RCC_OscConfig+0xa2>
 800282a:	e6b0      	b.n	800258e <HAL_RCC_OscConfig+0x10a>
 800282c:	4d40      	ldr	r5, [pc, #256]	@ (8002930 <HAL_RCC_OscConfig+0x4ac>)
 800282e:	692b      	ldr	r3, [r5, #16]
 8002830:	f003 0338 	and.w	r3, r3, #56	@ 0x38
 8002834:	2b18      	cmp	r3, #24
 8002836:	d07d      	beq.n	8002934 <HAL_RCC_OscConfig+0x4b0>
 8002838:	682b      	ldr	r3, [r5, #0]
 800283a:	2902      	cmp	r1, #2
 800283c:	f023 7380 	bic.w	r3, r3, #16777216	@ 0x1000000
 8002840:	602b      	str	r3, [r5, #0]
 8002842:	d167      	bne.n	8002914 <HAL_RCC_OscConfig+0x490>
 8002844:	f7ff f9f6 	bl	8001c34 <HAL_GetTick>
 8002848:	4606      	mov	r6, r0
 800284a:	682b      	ldr	r3, [r5, #0]
 800284c:	0199      	lsls	r1, r3, #6
 800284e:	d45b      	bmi.n	8002908 <HAL_RCC_OscConfig+0x484>
 8002850:	6aab      	ldr	r3, [r5, #40]	@ 0x28
 8002852:	6aa2      	ldr	r2, [r4, #40]	@ 0x28
 8002854:	f423 737c 	bic.w	r3, r3, #1008	@ 0x3f0
 8002858:	f023 0303 	bic.w	r3, r3, #3
 800285c:	4313      	orrs	r3, r2
 800285e:	6ae2      	ldr	r2, [r4, #44]	@ 0x2c
 8002860:	ea43 1302 	orr.w	r3, r3, r2, lsl #4
 8002864:	62ab      	str	r3, [r5, #40]	@ 0x28
 8002866:	6b63      	ldr	r3, [r4, #52]	@ 0x34
 8002868:	6ba2      	ldr	r2, [r4, #56]	@ 0x38
 800286a:	3b01      	subs	r3, #1
 800286c:	3a01      	subs	r2, #1
 800286e:	025b      	lsls	r3, r3, #9
 8002870:	0412      	lsls	r2, r2, #16
 8002872:	b29b      	uxth	r3, r3
 8002874:	f402 02fe 	and.w	r2, r2, #8323072	@ 0x7f0000
 8002878:	4313      	orrs	r3, r2
 800287a:	6b22      	ldr	r2, [r4, #48]	@ 0x30
 800287c:	3a01      	subs	r2, #1
 800287e:	f3c2 0208 	ubfx	r2, r2, #0, #9
 8002882:	4313      	orrs	r3, r2
 8002884:	6be2      	ldr	r2, [r4, #60]	@ 0x3c
 8002886:	3a01      	subs	r2, #1
 8002888:	0612      	lsls	r2, r2, #24
 800288a:	f002 42fe 	and.w	r2, r2, #2130706432	@ 0x7f000000
 800288e:	4313      	orrs	r3, r2
 8002890:	632b      	str	r3, [r5, #48]	@ 0x30
 8002892:	6aeb      	ldr	r3, [r5, #44]	@ 0x2c
 8002894:	f023 0301 	bic.w	r3, r3, #1
 8002898:	62eb      	str	r3, [r5, #44]	@ 0x2c
 800289a:	6b6b      	ldr	r3, [r5, #52]	@ 0x34
 800289c:	6ca2      	ldr	r2, [r4, #72]	@ 0x48
 800289e:	f423 437f 	bic.w	r3, r3, #65280	@ 0xff00
 80028a2:	f023 03f8 	bic.w	r3, r3, #248	@ 0xf8
 80028a6:	ea43 03c2 	orr.w	r3, r3, r2, lsl #3
 80028aa:	636b      	str	r3, [r5, #52]	@ 0x34
 80028ac:	6aeb      	ldr	r3, [r5, #44]	@ 0x2c
 80028ae:	6c22      	ldr	r2, [r4, #64]	@ 0x40
 80028b0:	f023 030c 	bic.w	r3, r3, #12
 80028b4:	4313      	orrs	r3, r2
 80028b6:	62eb      	str	r3, [r5, #44]	@ 0x2c
 80028b8:	6aeb      	ldr	r3, [r5, #44]	@ 0x2c
 80028ba:	6c62      	ldr	r2, [r4, #68]	@ 0x44
 80028bc:	f023 0302 	bic.w	r3, r3, #2
 80028c0:	4313      	orrs	r3, r2
 80028c2:	62eb      	str	r3, [r5, #44]	@ 0x2c
 80028c4:	6aeb      	ldr	r3, [r5, #44]	@ 0x2c
 80028c6:	f443 3380 	orr.w	r3, r3, #65536	@ 0x10000
 80028ca:	62eb      	str	r3, [r5, #44]	@ 0x2c
 80028cc:	6aeb      	ldr	r3, [r5, #44]	@ 0x2c
 80028ce:	f443 3300 	orr.w	r3, r3, #131072	@ 0x20000
 80028d2:	62eb      	str	r3, [r5, #44]	@ 0x2c
 80028d4:	6aeb      	ldr	r3, [r5, #44]	@ 0x2c
 80028d6:	f443 2380 	orr.w	r3, r3, #262144	@ 0x40000
 80028da:	62eb      	str	r3, [r5, #44]	@ 0x2c
 80028dc:	6aeb      	ldr	r3, [r5, #44]	@ 0x2c
 80028de:	f043 0301 	orr.w	r3, r3, #1
 80028e2:	62eb      	str	r3, [r5, #44]	@ 0x2c
 80028e4:	682b      	ldr	r3, [r5, #0]
 80028e6:	f043 7380 	orr.w	r3, r3, #16777216	@ 0x1000000
 80028ea:	602b      	str	r3, [r5, #0]
 80028ec:	f7ff f9a2 	bl	8001c34 <HAL_GetTick>
 80028f0:	4d0f      	ldr	r5, [pc, #60]	@ (8002930 <HAL_RCC_OscConfig+0x4ac>)
 80028f2:	4604      	mov	r4, r0
 80028f4:	682b      	ldr	r3, [r5, #0]
 80028f6:	019a      	lsls	r2, r3, #6
 80028f8:	f53f ae1d 	bmi.w	8002536 <HAL_RCC_OscConfig+0xb2>
 80028fc:	f7ff f99a 	bl	8001c34 <HAL_GetTick>
 8002900:	1b00      	subs	r0, r0, r4
 8002902:	2802      	cmp	r0, #2
 8002904:	d9f6      	bls.n	80028f4 <HAL_RCC_OscConfig+0x470>
 8002906:	e642      	b.n	800258e <HAL_RCC_OscConfig+0x10a>
 8002908:	f7ff f994 	bl	8001c34 <HAL_GetTick>
 800290c:	1b80      	subs	r0, r0, r6
 800290e:	2802      	cmp	r0, #2
 8002910:	d99b      	bls.n	800284a <HAL_RCC_OscConfig+0x3c6>
 8002912:	e63c      	b.n	800258e <HAL_RCC_OscConfig+0x10a>
 8002914:	f7ff f98e 	bl	8001c34 <HAL_GetTick>
 8002918:	4604      	mov	r4, r0
 800291a:	682b      	ldr	r3, [r5, #0]
 800291c:	019b      	lsls	r3, r3, #6
 800291e:	f57f ae0a 	bpl.w	8002536 <HAL_RCC_OscConfig+0xb2>
 8002922:	f7ff f987 	bl	8001c34 <HAL_GetTick>
 8002926:	1b00      	subs	r0, r0, r4
 8002928:	2802      	cmp	r0, #2
 800292a:	d9f6      	bls.n	800291a <HAL_RCC_OscConfig+0x496>
 800292c:	e62f      	b.n	800258e <HAL_RCC_OscConfig+0x10a>
 800292e:	bf00      	nop
 8002930:	58024400 	.word	0x58024400
 8002934:	2901      	cmp	r1, #1
 8002936:	6aaa      	ldr	r2, [r5, #40]	@ 0x28
 8002938:	6b2b      	ldr	r3, [r5, #48]	@ 0x30
 800293a:	f43f ae11 	beq.w	8002560 <HAL_RCC_OscConfig+0xdc>
 800293e:	f002 0103 	and.w	r1, r2, #3
 8002942:	6aa0      	ldr	r0, [r4, #40]	@ 0x28
 8002944:	4281      	cmp	r1, r0
 8002946:	f47f ae0b 	bne.w	8002560 <HAL_RCC_OscConfig+0xdc>
 800294a:	f3c2 1205 	ubfx	r2, r2, #4, #6
 800294e:	6ae1      	ldr	r1, [r4, #44]	@ 0x2c
 8002950:	428a      	cmp	r2, r1
 8002952:	f47f ae05 	bne.w	8002560 <HAL_RCC_OscConfig+0xdc>
 8002956:	6b22      	ldr	r2, [r4, #48]	@ 0x30
 8002958:	f3c3 0108 	ubfx	r1, r3, #0, #9
 800295c:	3a01      	subs	r2, #1
 800295e:	4291      	cmp	r1, r2
 8002960:	f47f adfe 	bne.w	8002560 <HAL_RCC_OscConfig+0xdc>
 8002964:	6b62      	ldr	r2, [r4, #52]	@ 0x34
 8002966:	f3c3 2146 	ubfx	r1, r3, #9, #7
 800296a:	3a01      	subs	r2, #1
 800296c:	4291      	cmp	r1, r2
 800296e:	f47f adf7 	bne.w	8002560 <HAL_RCC_OscConfig+0xdc>
 8002972:	6ba2      	ldr	r2, [r4, #56]	@ 0x38
 8002974:	f3c3 4106 	ubfx	r1, r3, #16, #7
 8002978:	3a01      	subs	r2, #1
 800297a:	4291      	cmp	r1, r2
 800297c:	f47f adf0 	bne.w	8002560 <HAL_RCC_OscConfig+0xdc>
 8002980:	6be2      	ldr	r2, [r4, #60]	@ 0x3c
 8002982:	f3c3 6306 	ubfx	r3, r3, #24, #7
 8002986:	3a01      	subs	r2, #1
 8002988:	4293      	cmp	r3, r2
 800298a:	f47f ade9 	bne.w	8002560 <HAL_RCC_OscConfig+0xdc>
 800298e:	6b6b      	ldr	r3, [r5, #52]	@ 0x34
 8002990:	6ca2      	ldr	r2, [r4, #72]	@ 0x48
 8002992:	f3c3 03cc 	ubfx	r3, r3, #3, #13
 8002996:	429a      	cmp	r2, r3
 8002998:	f43f adcd 	beq.w	8002536 <HAL_RCC_OscConfig+0xb2>
 800299c:	4d0c      	ldr	r5, [pc, #48]	@ (80029d0 <HAL_RCC_OscConfig+0x54c>)
 800299e:	6aeb      	ldr	r3, [r5, #44]	@ 0x2c
 80029a0:	f023 0301 	bic.w	r3, r3, #1
 80029a4:	62eb      	str	r3, [r5, #44]	@ 0x2c
 80029a6:	f7ff f945 	bl	8001c34 <HAL_GetTick>
 80029aa:	4606      	mov	r6, r0
 80029ac:	f7ff f942 	bl	8001c34 <HAL_GetTick>
 80029b0:	42b0      	cmp	r0, r6
 80029b2:	d0fb      	beq.n	80029ac <HAL_RCC_OscConfig+0x528>
 80029b4:	6b6b      	ldr	r3, [r5, #52]	@ 0x34
 80029b6:	6ca2      	ldr	r2, [r4, #72]	@ 0x48
 80029b8:	f423 437f 	bic.w	r3, r3, #65280	@ 0xff00
 80029bc:	f023 03f8 	bic.w	r3, r3, #248	@ 0xf8
 80029c0:	ea43 03c2 	orr.w	r3, r3, r2, lsl #3
 80029c4:	636b      	str	r3, [r5, #52]	@ 0x34
 80029c6:	6aeb      	ldr	r3, [r5, #44]	@ 0x2c
 80029c8:	f043 0301 	orr.w	r3, r3, #1
 80029cc:	62eb      	str	r3, [r5, #44]	@ 0x2c
 80029ce:	e5b2      	b.n	8002536 <HAL_RCC_OscConfig+0xb2>
 80029d0:	58024400 	.word	0x58024400

080029d4 <HAL_RCC_GetSysClockFreq>:
 80029d4:	4b49      	ldr	r3, [pc, #292]	@ (8002afc <HAL_RCC_GetSysClockFreq+0x128>)
 80029d6:	691a      	ldr	r2, [r3, #16]
 80029d8:	f002 0238 	and.w	r2, r2, #56	@ 0x38
 80029dc:	2a10      	cmp	r2, #16
 80029de:	b530      	push	{r4, r5, lr}
 80029e0:	f000 8088 	beq.w	8002af4 <HAL_RCC_GetSysClockFreq+0x120>
 80029e4:	2a18      	cmp	r2, #24
 80029e6:	d00c      	beq.n	8002a02 <HAL_RCC_GetSysClockFreq+0x2e>
 80029e8:	2a00      	cmp	r2, #0
 80029ea:	f040 8085 	bne.w	8002af8 <HAL_RCC_GetSysClockFreq+0x124>
 80029ee:	681a      	ldr	r2, [r3, #0]
 80029f0:	4843      	ldr	r0, [pc, #268]	@ (8002b00 <HAL_RCC_GetSysClockFreq+0x12c>)
 80029f2:	f012 0f20 	tst.w	r2, #32
 80029f6:	d003      	beq.n	8002a00 <HAL_RCC_GetSysClockFreq+0x2c>
 80029f8:	681b      	ldr	r3, [r3, #0]
 80029fa:	f3c3 03c1 	ubfx	r3, r3, #3, #2
 80029fe:	40d8      	lsrs	r0, r3
 8002a00:	bd30      	pop	{r4, r5, pc}
 8002a02:	6a99      	ldr	r1, [r3, #40]	@ 0x28
 8002a04:	6a9d      	ldr	r5, [r3, #40]	@ 0x28
 8002a06:	6adc      	ldr	r4, [r3, #44]	@ 0x2c
 8002a08:	f415 7f7c 	tst.w	r5, #1008	@ 0x3f0
 8002a0c:	f3c5 1005 	ubfx	r0, r5, #4, #6
 8002a10:	6b5a      	ldr	r2, [r3, #52]	@ 0x34
 8002a12:	d0f5      	beq.n	8002a00 <HAL_RCC_GetSysClockFreq+0x2c>
 8002a14:	f3c2 02cc 	ubfx	r2, r2, #3, #13
 8002a18:	f004 0401 	and.w	r4, r4, #1
 8002a1c:	f001 0103 	and.w	r1, r1, #3
 8002a20:	ee07 0a90 	vmov	s15, r0
 8002a24:	4362      	muls	r2, r4
 8002a26:	eeb7 6a00 	vmov.f32	s12, #112	@ 0x3f800000  1.0
 8002a2a:	2901      	cmp	r1, #1
 8002a2c:	eeb8 7ae7 	vcvt.f32.s32	s14, s15
 8002a30:	ee06 2a90 	vmov	s13, r2
 8002a34:	eefa 6ae9 	vcvt.f32.s32	s13, s13, #13
 8002a38:	d04e      	beq.n	8002ad8 <HAL_RCC_GetSysClockFreq+0x104>
 8002a3a:	2902      	cmp	r1, #2
 8002a3c:	d03e      	beq.n	8002abc <HAL_RCC_GetSysClockFreq+0xe8>
 8002a3e:	2900      	cmp	r1, #0
 8002a40:	d14a      	bne.n	8002ad8 <HAL_RCC_GetSysClockFreq+0x104>
 8002a42:	681a      	ldr	r2, [r3, #0]
 8002a44:	0692      	lsls	r2, r2, #26
 8002a46:	d527      	bpl.n	8002a98 <HAL_RCC_GetSysClockFreq+0xc4>
 8002a48:	6819      	ldr	r1, [r3, #0]
 8002a4a:	4a2d      	ldr	r2, [pc, #180]	@ (8002b00 <HAL_RCC_GetSysClockFreq+0x12c>)
 8002a4c:	f3c1 01c1 	ubfx	r1, r1, #3, #2
 8002a50:	6b1b      	ldr	r3, [r3, #48]	@ 0x30
 8002a52:	40ca      	lsrs	r2, r1
 8002a54:	f3c3 0308 	ubfx	r3, r3, #0, #9
 8002a58:	ee07 2a90 	vmov	s15, r2
 8002a5c:	eef8 5ae7 	vcvt.f32.s32	s11, s15
 8002a60:	eec5 7a87 	vdiv.f32	s15, s11, s14
 8002a64:	ee07 3a10 	vmov	s14, r3
 8002a68:	eeb8 7ac7 	vcvt.f32.s32	s14, s14
 8002a6c:	ee37 7a26 	vadd.f32	s14, s14, s13
 8002a70:	ee37 7a06 	vadd.f32	s14, s14, s12
 8002a74:	ee67 7a87 	vmul.f32	s15, s15, s14
 8002a78:	4b20      	ldr	r3, [pc, #128]	@ (8002afc <HAL_RCC_GetSysClockFreq+0x128>)
 8002a7a:	6b1b      	ldr	r3, [r3, #48]	@ 0x30
 8002a7c:	f3c3 2346 	ubfx	r3, r3, #9, #7
 8002a80:	3301      	adds	r3, #1
 8002a82:	ee07 3a10 	vmov	s14, r3
 8002a86:	eef8 6ac7 	vcvt.f32.s32	s13, s14
 8002a8a:	ee87 7aa6 	vdiv.f32	s14, s15, s13
 8002a8e:	eefc 7ac7 	vcvt.u32.f32	s15, s14
 8002a92:	ee17 0a90 	vmov	r0, s15
 8002a96:	e7b3      	b.n	8002a00 <HAL_RCC_GetSysClockFreq+0x2c>
 8002a98:	6b1b      	ldr	r3, [r3, #48]	@ 0x30
 8002a9a:	f3c3 0308 	ubfx	r3, r3, #0, #9
 8002a9e:	ee07 3a90 	vmov	s15, r3
 8002aa2:	eef8 7ae7 	vcvt.f32.s32	s15, s15
 8002aa6:	ee77 7aa6 	vadd.f32	s15, s15, s13
 8002aaa:	ee77 7a86 	vadd.f32	s15, s15, s12
 8002aae:	ed9f 6a15 	vldr	s12, [pc, #84]	@ 8002b04 <HAL_RCC_GetSysClockFreq+0x130>
 8002ab2:	eec6 6a07 	vdiv.f32	s13, s12, s14
 8002ab6:	ee67 7aa6 	vmul.f32	s15, s15, s13
 8002aba:	e7dd      	b.n	8002a78 <HAL_RCC_GetSysClockFreq+0xa4>
 8002abc:	6b1b      	ldr	r3, [r3, #48]	@ 0x30
 8002abe:	f3c3 0308 	ubfx	r3, r3, #0, #9
 8002ac2:	ee07 3a90 	vmov	s15, r3
 8002ac6:	eef8 7ae7 	vcvt.f32.s32	s15, s15
 8002aca:	ee77 7aa6 	vadd.f32	s15, s15, s13
 8002ace:	ee77 7a86 	vadd.f32	s15, s15, s12
 8002ad2:	ed9f 6a0d 	vldr	s12, [pc, #52]	@ 8002b08 <HAL_RCC_GetSysClockFreq+0x134>
 8002ad6:	e7ec      	b.n	8002ab2 <HAL_RCC_GetSysClockFreq+0xde>
 8002ad8:	6b1b      	ldr	r3, [r3, #48]	@ 0x30
 8002ada:	f3c3 0308 	ubfx	r3, r3, #0, #9
 8002ade:	ee07 3a90 	vmov	s15, r3
 8002ae2:	eef8 7ae7 	vcvt.f32.s32	s15, s15
 8002ae6:	ee77 7aa6 	vadd.f32	s15, s15, s13
 8002aea:	ee77 7a86 	vadd.f32	s15, s15, s12
 8002aee:	ed9f 6a07 	vldr	s12, [pc, #28]	@ 8002b0c <HAL_RCC_GetSysClockFreq+0x138>
 8002af2:	e7de      	b.n	8002ab2 <HAL_RCC_GetSysClockFreq+0xde>
 8002af4:	4806      	ldr	r0, [pc, #24]	@ (8002b10 <HAL_RCC_GetSysClockFreq+0x13c>)
 8002af6:	e783      	b.n	8002a00 <HAL_RCC_GetSysClockFreq+0x2c>
 8002af8:	4806      	ldr	r0, [pc, #24]	@ (8002b14 <HAL_RCC_GetSysClockFreq+0x140>)
 8002afa:	e781      	b.n	8002a00 <HAL_RCC_GetSysClockFreq+0x2c>
 8002afc:	58024400 	.word	0x58024400
 8002b00:	03d09000 	.word	0x03d09000
 8002b04:	4c742400 	.word	0x4c742400
 8002b08:	4af42400 	.word	0x4af42400
 8002b0c:	4a742400 	.word	0x4a742400
 8002b10:	007a1200 	.word	0x007a1200
 8002b14:	003d0900 	.word	0x003d0900

08002b18 <HAL_RCC_ClockConfig>:
 8002b18:	e92d 41f0 	stmdb	sp!, {r4, r5, r6, r7, r8, lr}
 8002b1c:	460d      	mov	r5, r1
 8002b1e:	4604      	mov	r4, r0
 8002b20:	b910      	cbnz	r0, 8002b28 <HAL_RCC_ClockConfig+0x10>
 8002b22:	2001      	movs	r0, #1
 8002b24:	e8bd 81f0 	ldmia.w	sp!, {r4, r5, r6, r7, r8, pc}
 8002b28:	4a88      	ldr	r2, [pc, #544]	@ (8002d4c <HAL_RCC_ClockConfig+0x234>)
 8002b2a:	6813      	ldr	r3, [r2, #0]
 8002b2c:	f003 030f 	and.w	r3, r3, #15
 8002b30:	428b      	cmp	r3, r1
 8002b32:	f0c0 8093 	bcc.w	8002c5c <HAL_RCC_ClockConfig+0x144>
 8002b36:	6823      	ldr	r3, [r4, #0]
 8002b38:	075f      	lsls	r7, r3, #29
 8002b3a:	f100 809b 	bmi.w	8002c74 <HAL_RCC_ClockConfig+0x15c>
 8002b3e:	071e      	lsls	r6, r3, #28
 8002b40:	d50b      	bpl.n	8002b5a <HAL_RCC_ClockConfig+0x42>
 8002b42:	4983      	ldr	r1, [pc, #524]	@ (8002d50 <HAL_RCC_ClockConfig+0x238>)
 8002b44:	6960      	ldr	r0, [r4, #20]
 8002b46:	69ca      	ldr	r2, [r1, #28]
 8002b48:	f002 0270 	and.w	r2, r2, #112	@ 0x70
 8002b4c:	4290      	cmp	r0, r2
 8002b4e:	d904      	bls.n	8002b5a <HAL_RCC_ClockConfig+0x42>
 8002b50:	69ca      	ldr	r2, [r1, #28]
 8002b52:	f022 0270 	bic.w	r2, r2, #112	@ 0x70
 8002b56:	4302      	orrs	r2, r0
 8002b58:	61ca      	str	r2, [r1, #28]
 8002b5a:	06d8      	lsls	r0, r3, #27
 8002b5c:	d50b      	bpl.n	8002b76 <HAL_RCC_ClockConfig+0x5e>
 8002b5e:	497c      	ldr	r1, [pc, #496]	@ (8002d50 <HAL_RCC_ClockConfig+0x238>)
 8002b60:	69a0      	ldr	r0, [r4, #24]
 8002b62:	69ca      	ldr	r2, [r1, #28]
 8002b64:	f402 62e0 	and.w	r2, r2, #1792	@ 0x700
 8002b68:	4290      	cmp	r0, r2
 8002b6a:	d904      	bls.n	8002b76 <HAL_RCC_ClockConfig+0x5e>
 8002b6c:	69ca      	ldr	r2, [r1, #28]
 8002b6e:	f422 62e0 	bic.w	r2, r2, #1792	@ 0x700
 8002b72:	4302      	orrs	r2, r0
 8002b74:	61ca      	str	r2, [r1, #28]
 8002b76:	0699      	lsls	r1, r3, #26
 8002b78:	d50b      	bpl.n	8002b92 <HAL_RCC_ClockConfig+0x7a>
 8002b7a:	4975      	ldr	r1, [pc, #468]	@ (8002d50 <HAL_RCC_ClockConfig+0x238>)
 8002b7c:	69e0      	ldr	r0, [r4, #28]
 8002b7e:	6a0a      	ldr	r2, [r1, #32]
 8002b80:	f002 0270 	and.w	r2, r2, #112	@ 0x70
 8002b84:	4290      	cmp	r0, r2
 8002b86:	d904      	bls.n	8002b92 <HAL_RCC_ClockConfig+0x7a>
 8002b88:	6a0a      	ldr	r2, [r1, #32]
 8002b8a:	f022 0270 	bic.w	r2, r2, #112	@ 0x70
 8002b8e:	4302      	orrs	r2, r0
 8002b90:	620a      	str	r2, [r1, #32]
 8002b92:	079a      	lsls	r2, r3, #30
 8002b94:	d50b      	bpl.n	8002bae <HAL_RCC_ClockConfig+0x96>
 8002b96:	496e      	ldr	r1, [pc, #440]	@ (8002d50 <HAL_RCC_ClockConfig+0x238>)
 8002b98:	68e0      	ldr	r0, [r4, #12]
 8002b9a:	698a      	ldr	r2, [r1, #24]
 8002b9c:	f002 020f 	and.w	r2, r2, #15
 8002ba0:	4290      	cmp	r0, r2
 8002ba2:	d904      	bls.n	8002bae <HAL_RCC_ClockConfig+0x96>
 8002ba4:	698a      	ldr	r2, [r1, #24]
 8002ba6:	f022 020f 	bic.w	r2, r2, #15
 8002baa:	4302      	orrs	r2, r0
 8002bac:	618a      	str	r2, [r1, #24]
 8002bae:	07df      	lsls	r7, r3, #31
 8002bb0:	d46e      	bmi.n	8002c90 <HAL_RCC_ClockConfig+0x178>
 8002bb2:	6823      	ldr	r3, [r4, #0]
 8002bb4:	079e      	lsls	r6, r3, #30
 8002bb6:	f100 80a1 	bmi.w	8002cfc <HAL_RCC_ClockConfig+0x1e4>
 8002bba:	4964      	ldr	r1, [pc, #400]	@ (8002d4c <HAL_RCC_ClockConfig+0x234>)
 8002bbc:	680a      	ldr	r2, [r1, #0]
 8002bbe:	f002 020f 	and.w	r2, r2, #15
 8002bc2:	42aa      	cmp	r2, r5
 8002bc4:	f200 80a8 	bhi.w	8002d18 <HAL_RCC_ClockConfig+0x200>
 8002bc8:	0758      	lsls	r0, r3, #29
 8002bca:	f100 80b1 	bmi.w	8002d30 <HAL_RCC_ClockConfig+0x218>
 8002bce:	0719      	lsls	r1, r3, #28
 8002bd0:	d50b      	bpl.n	8002bea <HAL_RCC_ClockConfig+0xd2>
 8002bd2:	495f      	ldr	r1, [pc, #380]	@ (8002d50 <HAL_RCC_ClockConfig+0x238>)
 8002bd4:	6960      	ldr	r0, [r4, #20]
 8002bd6:	69ca      	ldr	r2, [r1, #28]
 8002bd8:	f002 0270 	and.w	r2, r2, #112	@ 0x70
 8002bdc:	4290      	cmp	r0, r2
 8002bde:	d204      	bcs.n	8002bea <HAL_RCC_ClockConfig+0xd2>
 8002be0:	69ca      	ldr	r2, [r1, #28]
 8002be2:	f022 0270 	bic.w	r2, r2, #112	@ 0x70
 8002be6:	4302      	orrs	r2, r0
 8002be8:	61ca      	str	r2, [r1, #28]
 8002bea:	06da      	lsls	r2, r3, #27
 8002bec:	d50b      	bpl.n	8002c06 <HAL_RCC_ClockConfig+0xee>
 8002bee:	4958      	ldr	r1, [pc, #352]	@ (8002d50 <HAL_RCC_ClockConfig+0x238>)
 8002bf0:	69a0      	ldr	r0, [r4, #24]
 8002bf2:	69ca      	ldr	r2, [r1, #28]
 8002bf4:	f402 62e0 	and.w	r2, r2, #1792	@ 0x700
 8002bf8:	4290      	cmp	r0, r2
 8002bfa:	d204      	bcs.n	8002c06 <HAL_RCC_ClockConfig+0xee>
 8002bfc:	69ca      	ldr	r2, [r1, #28]
 8002bfe:	f422 62e0 	bic.w	r2, r2, #1792	@ 0x700
 8002c02:	4302      	orrs	r2, r0
 8002c04:	61ca      	str	r2, [r1, #28]
 8002c06:	069b      	lsls	r3, r3, #26
 8002c08:	d50b      	bpl.n	8002c22 <HAL_RCC_ClockConfig+0x10a>
 8002c0a:	4a51      	ldr	r2, [pc, #324]	@ (8002d50 <HAL_RCC_ClockConfig+0x238>)
 8002c0c:	69e1      	ldr	r1, [r4, #28]
 8002c0e:	6a13      	ldr	r3, [r2, #32]
 8002c10:	f003 0370 	and.w	r3, r3, #112	@ 0x70
 8002c14:	4299      	cmp	r1, r3
 8002c16:	d204      	bcs.n	8002c22 <HAL_RCC_ClockConfig+0x10a>
 8002c18:	6a13      	ldr	r3, [r2, #32]
 8002c1a:	f023 0370 	bic.w	r3, r3, #112	@ 0x70
 8002c1e:	430b      	orrs	r3, r1
 8002c20:	6213      	str	r3, [r2, #32]
 8002c22:	f7ff fed7 	bl	80029d4 <HAL_RCC_GetSysClockFreq>
 8002c26:	494a      	ldr	r1, [pc, #296]	@ (8002d50 <HAL_RCC_ClockConfig+0x238>)
 8002c28:	4a4a      	ldr	r2, [pc, #296]	@ (8002d54 <HAL_RCC_ClockConfig+0x23c>)
 8002c2a:	698b      	ldr	r3, [r1, #24]
 8002c2c:	f3c3 2303 	ubfx	r3, r3, #8, #4
 8002c30:	5cd3      	ldrb	r3, [r2, r3]
 8002c32:	f003 031f 	and.w	r3, r3, #31
 8002c36:	40d8      	lsrs	r0, r3
 8002c38:	698b      	ldr	r3, [r1, #24]
 8002c3a:	f003 030f 	and.w	r3, r3, #15
 8002c3e:	5cd3      	ldrb	r3, [r2, r3]
 8002c40:	4a45      	ldr	r2, [pc, #276]	@ (8002d58 <HAL_RCC_ClockConfig+0x240>)
 8002c42:	f003 031f 	and.w	r3, r3, #31
 8002c46:	fa20 f303 	lsr.w	r3, r0, r3
 8002c4a:	6013      	str	r3, [r2, #0]
 8002c4c:	4b43      	ldr	r3, [pc, #268]	@ (8002d5c <HAL_RCC_ClockConfig+0x244>)
 8002c4e:	6018      	str	r0, [r3, #0]
 8002c50:	4b43      	ldr	r3, [pc, #268]	@ (8002d60 <HAL_RCC_ClockConfig+0x248>)
 8002c52:	e8bd 41f0 	ldmia.w	sp!, {r4, r5, r6, r7, r8, lr}
 8002c56:	6818      	ldr	r0, [r3, #0]
 8002c58:	f7fe bf8c 	b.w	8001b74 <HAL_InitTick>
 8002c5c:	6813      	ldr	r3, [r2, #0]
 8002c5e:	f023 030f 	bic.w	r3, r3, #15
 8002c62:	430b      	orrs	r3, r1
 8002c64:	6013      	str	r3, [r2, #0]
 8002c66:	6813      	ldr	r3, [r2, #0]
 8002c68:	f003 030f 	and.w	r3, r3, #15
 8002c6c:	428b      	cmp	r3, r1
 8002c6e:	f47f af58 	bne.w	8002b22 <HAL_RCC_ClockConfig+0xa>
 8002c72:	e760      	b.n	8002b36 <HAL_RCC_ClockConfig+0x1e>
 8002c74:	4936      	ldr	r1, [pc, #216]	@ (8002d50 <HAL_RCC_ClockConfig+0x238>)
 8002c76:	6920      	ldr	r0, [r4, #16]
 8002c78:	698a      	ldr	r2, [r1, #24]
 8002c7a:	f002 0270 	and.w	r2, r2, #112	@ 0x70
 8002c7e:	4290      	cmp	r0, r2
 8002c80:	f67f af5d 	bls.w	8002b3e <HAL_RCC_ClockConfig+0x26>
 8002c84:	698a      	ldr	r2, [r1, #24]
 8002c86:	f022 0270 	bic.w	r2, r2, #112	@ 0x70
 8002c8a:	4302      	orrs	r2, r0
 8002c8c:	618a      	str	r2, [r1, #24]
 8002c8e:	e756      	b.n	8002b3e <HAL_RCC_ClockConfig+0x26>
 8002c90:	4b2f      	ldr	r3, [pc, #188]	@ (8002d50 <HAL_RCC_ClockConfig+0x238>)
 8002c92:	68a1      	ldr	r1, [r4, #8]
 8002c94:	699a      	ldr	r2, [r3, #24]
 8002c96:	f422 6270 	bic.w	r2, r2, #3840	@ 0xf00
 8002c9a:	430a      	orrs	r2, r1
 8002c9c:	619a      	str	r2, [r3, #24]
 8002c9e:	6861      	ldr	r1, [r4, #4]
 8002ca0:	681a      	ldr	r2, [r3, #0]
 8002ca2:	2902      	cmp	r1, #2
 8002ca4:	d11d      	bne.n	8002ce2 <HAL_RCC_ClockConfig+0x1ca>
 8002ca6:	f412 3f00 	tst.w	r2, #131072	@ 0x20000
 8002caa:	f43f af3a 	beq.w	8002b22 <HAL_RCC_ClockConfig+0xa>
 8002cae:	691a      	ldr	r2, [r3, #16]
 8002cb0:	f241 3888 	movw	r8, #5000	@ 0x1388
 8002cb4:	4f26      	ldr	r7, [pc, #152]	@ (8002d50 <HAL_RCC_ClockConfig+0x238>)
 8002cb6:	f022 0207 	bic.w	r2, r2, #7
 8002cba:	430a      	orrs	r2, r1
 8002cbc:	611a      	str	r2, [r3, #16]
 8002cbe:	f7fe ffb9 	bl	8001c34 <HAL_GetTick>
 8002cc2:	4606      	mov	r6, r0
 8002cc4:	693b      	ldr	r3, [r7, #16]
 8002cc6:	6862      	ldr	r2, [r4, #4]
 8002cc8:	f003 0338 	and.w	r3, r3, #56	@ 0x38
 8002ccc:	ebb3 0fc2 	cmp.w	r3, r2, lsl #3
 8002cd0:	f43f af6f 	beq.w	8002bb2 <HAL_RCC_ClockConfig+0x9a>
 8002cd4:	f7fe ffae 	bl	8001c34 <HAL_GetTick>
 8002cd8:	1b80      	subs	r0, r0, r6
 8002cda:	4540      	cmp	r0, r8
 8002cdc:	d9f2      	bls.n	8002cc4 <HAL_RCC_ClockConfig+0x1ac>
 8002cde:	2003      	movs	r0, #3
 8002ce0:	e720      	b.n	8002b24 <HAL_RCC_ClockConfig+0xc>
 8002ce2:	2903      	cmp	r1, #3
 8002ce4:	d102      	bne.n	8002cec <HAL_RCC_ClockConfig+0x1d4>
 8002ce6:	f012 7f00 	tst.w	r2, #33554432	@ 0x2000000
 8002cea:	e7de      	b.n	8002caa <HAL_RCC_ClockConfig+0x192>
 8002cec:	2901      	cmp	r1, #1
 8002cee:	d102      	bne.n	8002cf6 <HAL_RCC_ClockConfig+0x1de>
 8002cf0:	f412 7f80 	tst.w	r2, #256	@ 0x100
 8002cf4:	e7d9      	b.n	8002caa <HAL_RCC_ClockConfig+0x192>
 8002cf6:	f012 0f04 	tst.w	r2, #4
 8002cfa:	e7d6      	b.n	8002caa <HAL_RCC_ClockConfig+0x192>
 8002cfc:	4914      	ldr	r1, [pc, #80]	@ (8002d50 <HAL_RCC_ClockConfig+0x238>)
 8002cfe:	68e0      	ldr	r0, [r4, #12]
 8002d00:	698a      	ldr	r2, [r1, #24]
 8002d02:	f002 020f 	and.w	r2, r2, #15
 8002d06:	4290      	cmp	r0, r2
 8002d08:	f4bf af57 	bcs.w	8002bba <HAL_RCC_ClockConfig+0xa2>
 8002d0c:	698a      	ldr	r2, [r1, #24]
 8002d0e:	f022 020f 	bic.w	r2, r2, #15
 8002d12:	4302      	orrs	r2, r0
 8002d14:	618a      	str	r2, [r1, #24]
 8002d16:	e750      	b.n	8002bba <HAL_RCC_ClockConfig+0xa2>
 8002d18:	680a      	ldr	r2, [r1, #0]
 8002d1a:	f022 020f 	bic.w	r2, r2, #15
 8002d1e:	432a      	orrs	r2, r5
 8002d20:	600a      	str	r2, [r1, #0]
 8002d22:	680a      	ldr	r2, [r1, #0]
 8002d24:	f002 020f 	and.w	r2, r2, #15
 8002d28:	42aa      	cmp	r2, r5
 8002d2a:	f47f aefa 	bne.w	8002b22 <HAL_RCC_ClockConfig+0xa>
 8002d2e:	e74b      	b.n	8002bc8 <HAL_RCC_ClockConfig+0xb0>
 8002d30:	4907      	ldr	r1, [pc, #28]	@ (8002d50 <HAL_RCC_ClockConfig+0x238>)
 8002d32:	6920      	ldr	r0, [r4, #16]
 8002d34:	698a      	ldr	r2, [r1, #24]
 8002d36:	f002 0270 	and.w	r2, r2, #112	@ 0x70
 8002d3a:	4290      	cmp	r0, r2
 8002d3c:	f4bf af47 	bcs.w	8002bce <HAL_RCC_ClockConfig+0xb6>
 8002d40:	698a      	ldr	r2, [r1, #24]
 8002d42:	f022 0270 	bic.w	r2, r2, #112	@ 0x70
 8002d46:	4302      	orrs	r2, r0
 8002d48:	618a      	str	r2, [r1, #24]
 8002d4a:	e740      	b.n	8002bce <HAL_RCC_ClockConfig+0xb6>
 8002d4c:	52002000 	.word	0x52002000
 8002d50:	58024400 	.word	0x58024400
 8002d54:	08005e63 	.word	0x08005e63
 8002d58:	24000000 	.word	0x24000000
 8002d5c:	24000004 	.word	0x24000004
 8002d60:	2400000c 	.word	0x2400000c

08002d64 <HAL_RCC_GetHCLKFreq>:
 8002d64:	b508      	push	{r3, lr}
 8002d66:	f7ff fe35 	bl	80029d4 <HAL_RCC_GetSysClockFreq>
 8002d6a:	4a0b      	ldr	r2, [pc, #44]	@ (8002d98 <HAL_RCC_GetHCLKFreq+0x34>)
 8002d6c:	490b      	ldr	r1, [pc, #44]	@ (8002d9c <HAL_RCC_GetHCLKFreq+0x38>)
 8002d6e:	6993      	ldr	r3, [r2, #24]
 8002d70:	6992      	ldr	r2, [r2, #24]
 8002d72:	f3c3 2303 	ubfx	r3, r3, #8, #4
 8002d76:	f002 020f 	and.w	r2, r2, #15
 8002d7a:	5ccb      	ldrb	r3, [r1, r3]
 8002d7c:	f003 031f 	and.w	r3, r3, #31
 8002d80:	fa20 f303 	lsr.w	r3, r0, r3
 8002d84:	5c88      	ldrb	r0, [r1, r2]
 8002d86:	4a06      	ldr	r2, [pc, #24]	@ (8002da0 <HAL_RCC_GetHCLKFreq+0x3c>)
 8002d88:	f000 001f 	and.w	r0, r0, #31
 8002d8c:	fa23 f000 	lsr.w	r0, r3, r0
 8002d90:	6010      	str	r0, [r2, #0]
 8002d92:	4a04      	ldr	r2, [pc, #16]	@ (8002da4 <HAL_RCC_GetHCLKFreq+0x40>)
 8002d94:	6013      	str	r3, [r2, #0]
 8002d96:	bd08      	pop	{r3, pc}
 8002d98:	58024400 	.word	0x58024400
 8002d9c:	08005e63 	.word	0x08005e63
 8002da0:	24000000 	.word	0x24000000
 8002da4:	24000004 	.word	0x24000004

08002da8 <HAL_RCC_GetPCLK1Freq>:
 8002da8:	b508      	push	{r3, lr}
 8002daa:	f7ff ffdb 	bl	8002d64 <HAL_RCC_GetHCLKFreq>
 8002dae:	4b05      	ldr	r3, [pc, #20]	@ (8002dc4 <HAL_RCC_GetPCLK1Freq+0x1c>)
 8002db0:	4a05      	ldr	r2, [pc, #20]	@ (8002dc8 <HAL_RCC_GetPCLK1Freq+0x20>)
 8002db2:	69db      	ldr	r3, [r3, #28]
 8002db4:	f3c3 1302 	ubfx	r3, r3, #4, #3
 8002db8:	5cd3      	ldrb	r3, [r2, r3]
 8002dba:	f003 031f 	and.w	r3, r3, #31
 8002dbe:	40d8      	lsrs	r0, r3
 8002dc0:	bd08      	pop	{r3, pc}
 8002dc2:	bf00      	nop
 8002dc4:	58024400 	.word	0x58024400
 8002dc8:	08005e63 	.word	0x08005e63

08002dcc <HAL_RCC_GetPCLK2Freq>:
 8002dcc:	b508      	push	{r3, lr}
 8002dce:	f7ff ffc9 	bl	8002d64 <HAL_RCC_GetHCLKFreq>
 8002dd2:	4b05      	ldr	r3, [pc, #20]	@ (8002de8 <HAL_RCC_GetPCLK2Freq+0x1c>)
 8002dd4:	4a05      	ldr	r2, [pc, #20]	@ (8002dec <HAL_RCC_GetPCLK2Freq+0x20>)
 8002dd6:	69db      	ldr	r3, [r3, #28]
 8002dd8:	f3c3 2302 	ubfx	r3, r3, #8, #3
 8002ddc:	5cd3      	ldrb	r3, [r2, r3]
 8002dde:	f003 031f 	and.w	r3, r3, #31
 8002de2:	40d8      	lsrs	r0, r3
 8002de4:	bd08      	pop	{r3, pc}
 8002de6:	bf00      	nop
 8002de8:	58024400 	.word	0x58024400
 8002dec:	08005e63 	.word	0x08005e63

08002df0 <RCCEx_PLL2_Config>:
 8002df0:	b5f8      	push	{r3, r4, r5, r6, r7, lr}
 8002df2:	4c3a      	ldr	r4, [pc, #232]	@ (8002edc <RCCEx_PLL2_Config+0xec>)
 8002df4:	4606      	mov	r6, r0
 8002df6:	460d      	mov	r5, r1
 8002df8:	6aa3      	ldr	r3, [r4, #40]	@ 0x28
 8002dfa:	f003 0303 	and.w	r3, r3, #3
 8002dfe:	2b03      	cmp	r3, #3
 8002e00:	d069      	beq.n	8002ed6 <RCCEx_PLL2_Config+0xe6>
 8002e02:	6823      	ldr	r3, [r4, #0]
 8002e04:	f023 6380 	bic.w	r3, r3, #67108864	@ 0x4000000
 8002e08:	6023      	str	r3, [r4, #0]
 8002e0a:	f7fe ff13 	bl	8001c34 <HAL_GetTick>
 8002e0e:	4607      	mov	r7, r0
 8002e10:	6823      	ldr	r3, [r4, #0]
 8002e12:	011a      	lsls	r2, r3, #4
 8002e14:	d44b      	bmi.n	8002eae <RCCEx_PLL2_Config+0xbe>
 8002e16:	6aa3      	ldr	r3, [r4, #40]	@ 0x28
 8002e18:	6832      	ldr	r2, [r6, #0]
 8002e1a:	f423 337c 	bic.w	r3, r3, #258048	@ 0x3f000
 8002e1e:	ea43 3302 	orr.w	r3, r3, r2, lsl #12
 8002e22:	62a3      	str	r3, [r4, #40]	@ 0x28
 8002e24:	68b3      	ldr	r3, [r6, #8]
 8002e26:	68f2      	ldr	r2, [r6, #12]
 8002e28:	3b01      	subs	r3, #1
 8002e2a:	3a01      	subs	r2, #1
 8002e2c:	025b      	lsls	r3, r3, #9
 8002e2e:	0412      	lsls	r2, r2, #16
 8002e30:	b29b      	uxth	r3, r3
 8002e32:	f402 02fe 	and.w	r2, r2, #8323072	@ 0x7f0000
 8002e36:	4313      	orrs	r3, r2
 8002e38:	6872      	ldr	r2, [r6, #4]
 8002e3a:	3a01      	subs	r2, #1
 8002e3c:	f3c2 0208 	ubfx	r2, r2, #0, #9
 8002e40:	4313      	orrs	r3, r2
 8002e42:	6932      	ldr	r2, [r6, #16]
 8002e44:	3a01      	subs	r2, #1
 8002e46:	0612      	lsls	r2, r2, #24
 8002e48:	f002 42fe 	and.w	r2, r2, #2130706432	@ 0x7f000000
 8002e4c:	4313      	orrs	r3, r2
 8002e4e:	63a3      	str	r3, [r4, #56]	@ 0x38
 8002e50:	6ae3      	ldr	r3, [r4, #44]	@ 0x2c
 8002e52:	6972      	ldr	r2, [r6, #20]
 8002e54:	f023 03c0 	bic.w	r3, r3, #192	@ 0xc0
 8002e58:	4313      	orrs	r3, r2
 8002e5a:	62e3      	str	r3, [r4, #44]	@ 0x2c
 8002e5c:	6ae3      	ldr	r3, [r4, #44]	@ 0x2c
 8002e5e:	69b2      	ldr	r2, [r6, #24]
 8002e60:	f023 0320 	bic.w	r3, r3, #32
 8002e64:	4313      	orrs	r3, r2
 8002e66:	62e3      	str	r3, [r4, #44]	@ 0x2c
 8002e68:	6ae3      	ldr	r3, [r4, #44]	@ 0x2c
 8002e6a:	f023 0310 	bic.w	r3, r3, #16
 8002e6e:	62e3      	str	r3, [r4, #44]	@ 0x2c
 8002e70:	6be3      	ldr	r3, [r4, #60]	@ 0x3c
 8002e72:	69f2      	ldr	r2, [r6, #28]
 8002e74:	f423 437f 	bic.w	r3, r3, #65280	@ 0xff00
 8002e78:	f023 03f8 	bic.w	r3, r3, #248	@ 0xf8
 8002e7c:	ea43 03c2 	orr.w	r3, r3, r2, lsl #3
 8002e80:	63e3      	str	r3, [r4, #60]	@ 0x3c
 8002e82:	6ae3      	ldr	r3, [r4, #44]	@ 0x2c
 8002e84:	f043 0310 	orr.w	r3, r3, #16
 8002e88:	62e3      	str	r3, [r4, #44]	@ 0x2c
 8002e8a:	6ae3      	ldr	r3, [r4, #44]	@ 0x2c
 8002e8c:	b9b5      	cbnz	r5, 8002ebc <RCCEx_PLL2_Config+0xcc>
 8002e8e:	f443 2300 	orr.w	r3, r3, #524288	@ 0x80000
 8002e92:	62e3      	str	r3, [r4, #44]	@ 0x2c
 8002e94:	4c11      	ldr	r4, [pc, #68]	@ (8002edc <RCCEx_PLL2_Config+0xec>)
 8002e96:	6823      	ldr	r3, [r4, #0]
 8002e98:	f043 6380 	orr.w	r3, r3, #67108864	@ 0x4000000
 8002e9c:	6023      	str	r3, [r4, #0]
 8002e9e:	f7fe fec9 	bl	8001c34 <HAL_GetTick>
 8002ea2:	4605      	mov	r5, r0
 8002ea4:	6823      	ldr	r3, [r4, #0]
 8002ea6:	011b      	lsls	r3, r3, #4
 8002ea8:	d50f      	bpl.n	8002eca <RCCEx_PLL2_Config+0xda>
 8002eaa:	2000      	movs	r0, #0
 8002eac:	e005      	b.n	8002eba <RCCEx_PLL2_Config+0xca>
 8002eae:	f7fe fec1 	bl	8001c34 <HAL_GetTick>
 8002eb2:	1bc0      	subs	r0, r0, r7
 8002eb4:	2802      	cmp	r0, #2
 8002eb6:	d9ab      	bls.n	8002e10 <RCCEx_PLL2_Config+0x20>
 8002eb8:	2003      	movs	r0, #3
 8002eba:	bdf8      	pop	{r3, r4, r5, r6, r7, pc}
 8002ebc:	2d01      	cmp	r5, #1
 8002ebe:	bf0c      	ite	eq
 8002ec0:	f443 1380 	orreq.w	r3, r3, #1048576	@ 0x100000
 8002ec4:	f443 1300 	orrne.w	r3, r3, #2097152	@ 0x200000
 8002ec8:	e7e3      	b.n	8002e92 <RCCEx_PLL2_Config+0xa2>
 8002eca:	f7fe feb3 	bl	8001c34 <HAL_GetTick>
 8002ece:	1b40      	subs	r0, r0, r5
 8002ed0:	2802      	cmp	r0, #2
 8002ed2:	d9e7      	bls.n	8002ea4 <RCCEx_PLL2_Config+0xb4>
 8002ed4:	e7f0      	b.n	8002eb8 <RCCEx_PLL2_Config+0xc8>
 8002ed6:	2001      	movs	r0, #1
 8002ed8:	e7ef      	b.n	8002eba <RCCEx_PLL2_Config+0xca>
 8002eda:	bf00      	nop
 8002edc:	58024400 	.word	0x58024400

08002ee0 <RCCEx_PLL3_Config>:
 8002ee0:	b5f8      	push	{r3, r4, r5, r6, r7, lr}
 8002ee2:	4c3a      	ldr	r4, [pc, #232]	@ (8002fcc <RCCEx_PLL3_Config+0xec>)
 8002ee4:	4606      	mov	r6, r0
 8002ee6:	460d      	mov	r5, r1
 8002ee8:	6aa3      	ldr	r3, [r4, #40]	@ 0x28
 8002eea:	f003 0303 	and.w	r3, r3, #3
 8002eee:	2b03      	cmp	r3, #3
 8002ef0:	d069      	beq.n	8002fc6 <RCCEx_PLL3_Config+0xe6>
 8002ef2:	6823      	ldr	r3, [r4, #0]
 8002ef4:	f023 5380 	bic.w	r3, r3, #268435456	@ 0x10000000
 8002ef8:	6023      	str	r3, [r4, #0]
 8002efa:	f7fe fe9b 	bl	8001c34 <HAL_GetTick>
 8002efe:	4607      	mov	r7, r0
 8002f00:	6823      	ldr	r3, [r4, #0]
 8002f02:	009a      	lsls	r2, r3, #2
 8002f04:	d44b      	bmi.n	8002f9e <RCCEx_PLL3_Config+0xbe>
 8002f06:	6aa3      	ldr	r3, [r4, #40]	@ 0x28
 8002f08:	6832      	ldr	r2, [r6, #0]
 8002f0a:	f023 737c 	bic.w	r3, r3, #66060288	@ 0x3f00000
 8002f0e:	ea43 5302 	orr.w	r3, r3, r2, lsl #20
 8002f12:	62a3      	str	r3, [r4, #40]	@ 0x28
 8002f14:	68b3      	ldr	r3, [r6, #8]
 8002f16:	68f2      	ldr	r2, [r6, #12]
 8002f18:	3b01      	subs	r3, #1
 8002f1a:	3a01      	subs	r2, #1
 8002f1c:	025b      	lsls	r3, r3, #9
 8002f1e:	0412      	lsls	r2, r2, #16
 8002f20:	b29b      	uxth	r3, r3
 8002f22:	f402 02fe 	and.w	r2, r2, #8323072	@ 0x7f0000
 8002f26:	4313      	orrs	r3, r2
 8002f28:	6872      	ldr	r2, [r6, #4]
 8002f2a:	3a01      	subs	r2, #1
 8002f2c:	f3c2 0208 	ubfx	r2, r2, #0, #9
 8002f30:	4313      	orrs	r3, r2
 8002f32:	6932      	ldr	r2, [r6, #16]
 8002f34:	3a01      	subs	r2, #1
 8002f36:	0612      	lsls	r2, r2, #24
 8002f38:	f002 42fe 	and.w	r2, r2, #2130706432	@ 0x7f000000
 8002f3c:	4313      	orrs	r3, r2
 8002f3e:	6423      	str	r3, [r4, #64]	@ 0x40
 8002f40:	6ae3      	ldr	r3, [r4, #44]	@ 0x2c
 8002f42:	6972      	ldr	r2, [r6, #20]
 8002f44:	f423 6340 	bic.w	r3, r3, #3072	@ 0xc00
 8002f48:	4313      	orrs	r3, r2
 8002f4a:	62e3      	str	r3, [r4, #44]	@ 0x2c
 8002f4c:	6ae3      	ldr	r3, [r4, #44]	@ 0x2c
 8002f4e:	69b2      	ldr	r2, [r6, #24]
 8002f50:	f423 7300 	bic.w	r3, r3, #512	@ 0x200
 8002f54:	4313      	orrs	r3, r2
 8002f56:	62e3      	str	r3, [r4, #44]	@ 0x2c
 8002f58:	6ae3      	ldr	r3, [r4, #44]	@ 0x2c
 8002f5a:	f423 7380 	bic.w	r3, r3, #256	@ 0x100
 8002f5e:	62e3      	str	r3, [r4, #44]	@ 0x2c
 8002f60:	6c63      	ldr	r3, [r4, #68]	@ 0x44
 8002f62:	69f2      	ldr	r2, [r6, #28]
 8002f64:	f423 437f 	bic.w	r3, r3, #65280	@ 0xff00
 8002f68:	f023 03f8 	bic.w	r3, r3, #248	@ 0xf8
 8002f6c:	ea43 03c2 	orr.w	r3, r3, r2, lsl #3
 8002f70:	6463      	str	r3, [r4, #68]	@ 0x44
 8002f72:	6ae3      	ldr	r3, [r4, #44]	@ 0x2c
 8002f74:	f443 7380 	orr.w	r3, r3, #256	@ 0x100
 8002f78:	62e3      	str	r3, [r4, #44]	@ 0x2c
 8002f7a:	6ae3      	ldr	r3, [r4, #44]	@ 0x2c
 8002f7c:	b9b5      	cbnz	r5, 8002fac <RCCEx_PLL3_Config+0xcc>
 8002f7e:	f443 0380 	orr.w	r3, r3, #4194304	@ 0x400000
 8002f82:	62e3      	str	r3, [r4, #44]	@ 0x2c
 8002f84:	4c11      	ldr	r4, [pc, #68]	@ (8002fcc <RCCEx_PLL3_Config+0xec>)
 8002f86:	6823      	ldr	r3, [r4, #0]
 8002f88:	f043 5380 	orr.w	r3, r3, #268435456	@ 0x10000000
 8002f8c:	6023      	str	r3, [r4, #0]
 8002f8e:	f7fe fe51 	bl	8001c34 <HAL_GetTick>
 8002f92:	4605      	mov	r5, r0
 8002f94:	6823      	ldr	r3, [r4, #0]
 8002f96:	009b      	lsls	r3, r3, #2
 8002f98:	d50f      	bpl.n	8002fba <RCCEx_PLL3_Config+0xda>
 8002f9a:	2000      	movs	r0, #0
 8002f9c:	e005      	b.n	8002faa <RCCEx_PLL3_Config+0xca>
 8002f9e:	f7fe fe49 	bl	8001c34 <HAL_GetTick>
 8002fa2:	1bc0      	subs	r0, r0, r7
 8002fa4:	2802      	cmp	r0, #2
 8002fa6:	d9ab      	bls.n	8002f00 <RCCEx_PLL3_Config+0x20>
 8002fa8:	2003      	movs	r0, #3
 8002faa:	bdf8      	pop	{r3, r4, r5, r6, r7, pc}
 8002fac:	2d01      	cmp	r5, #1
 8002fae:	bf0c      	ite	eq
 8002fb0:	f443 0300 	orreq.w	r3, r3, #8388608	@ 0x800000
 8002fb4:	f043 7380 	orrne.w	r3, r3, #16777216	@ 0x1000000
 8002fb8:	e7e3      	b.n	8002f82 <RCCEx_PLL3_Config+0xa2>
 8002fba:	f7fe fe3b 	bl	8001c34 <HAL_GetTick>
 8002fbe:	1b40      	subs	r0, r0, r5
 8002fc0:	2802      	cmp	r0, #2
 8002fc2:	d9e7      	bls.n	8002f94 <RCCEx_PLL3_Config+0xb4>
 8002fc4:	e7f0      	b.n	8002fa8 <RCCEx_PLL3_Config+0xc8>
 8002fc6:	2001      	movs	r0, #1
 8002fc8:	e7ef      	b.n	8002faa <RCCEx_PLL3_Config+0xca>
 8002fca:	bf00      	nop
 8002fcc:	58024400 	.word	0x58024400

08002fd0 <HAL_RCCEx_PeriphCLKConfig>:
 8002fd0:	e92d 43f8 	stmdb	sp!, {r3, r4, r5, r6, r7, r8, r9, lr}
 8002fd4:	6803      	ldr	r3, [r0, #0]
 8002fd6:	4605      	mov	r5, r0
 8002fd8:	0119      	lsls	r1, r3, #4
 8002fda:	d51e      	bpl.n	800301a <HAL_RCCEx_PeriphCLKConfig+0x4a>
 8002fdc:	6ec3      	ldr	r3, [r0, #108]	@ 0x6c
 8002fde:	f5b3 1f00 	cmp.w	r3, #2097152	@ 0x200000
 8002fe2:	d02a      	beq.n	800303a <HAL_RCCEx_PeriphCLKConfig+0x6a>
 8002fe4:	d80f      	bhi.n	8003006 <HAL_RCCEx_PeriphCLKConfig+0x36>
 8002fe6:	b1d3      	cbz	r3, 800301e <HAL_RCCEx_PeriphCLKConfig+0x4e>
 8002fe8:	f5b3 1f80 	cmp.w	r3, #1048576	@ 0x100000
 8002fec:	d01d      	beq.n	800302a <HAL_RCCEx_PeriphCLKConfig+0x5a>
 8002fee:	2601      	movs	r6, #1
 8002ff0:	682b      	ldr	r3, [r5, #0]
 8002ff2:	05da      	lsls	r2, r3, #23
 8002ff4:	d54f      	bpl.n	8003096 <HAL_RCCEx_PeriphCLKConfig+0xc6>
 8002ff6:	6dab      	ldr	r3, [r5, #88]	@ 0x58
 8002ff8:	2b04      	cmp	r3, #4
 8002ffa:	d84b      	bhi.n	8003094 <HAL_RCCEx_PeriphCLKConfig+0xc4>
 8002ffc:	e8df f003 	tbb	[pc, r3]
 8003000:	27443d22 	.word	0x27443d22
 8003004:	27          	.byte	0x27
 8003005:	00          	.byte	0x00
 8003006:	f5b3 1f40 	cmp.w	r3, #3145728	@ 0x300000
 800300a:	d1f0      	bne.n	8002fee <HAL_RCCEx_PeriphCLKConfig+0x1e>
 800300c:	4a98      	ldr	r2, [pc, #608]	@ (8003270 <HAL_RCCEx_PeriphCLKConfig+0x2a0>)
 800300e:	6ee9      	ldr	r1, [r5, #108]	@ 0x6c
 8003010:	6d13      	ldr	r3, [r2, #80]	@ 0x50
 8003012:	f423 1340 	bic.w	r3, r3, #3145728	@ 0x300000
 8003016:	430b      	orrs	r3, r1
 8003018:	6513      	str	r3, [r2, #80]	@ 0x50
 800301a:	2600      	movs	r6, #0
 800301c:	e7e8      	b.n	8002ff0 <HAL_RCCEx_PeriphCLKConfig+0x20>
 800301e:	4a94      	ldr	r2, [pc, #592]	@ (8003270 <HAL_RCCEx_PeriphCLKConfig+0x2a0>)
 8003020:	6ad3      	ldr	r3, [r2, #44]	@ 0x2c
 8003022:	f443 3300 	orr.w	r3, r3, #131072	@ 0x20000
 8003026:	62d3      	str	r3, [r2, #44]	@ 0x2c
 8003028:	e7f0      	b.n	800300c <HAL_RCCEx_PeriphCLKConfig+0x3c>
 800302a:	2102      	movs	r1, #2
 800302c:	3008      	adds	r0, #8
 800302e:	f7ff fedf 	bl	8002df0 <RCCEx_PLL2_Config>
 8003032:	4606      	mov	r6, r0
 8003034:	2800      	cmp	r0, #0
 8003036:	d1db      	bne.n	8002ff0 <HAL_RCCEx_PeriphCLKConfig+0x20>
 8003038:	e7e8      	b.n	800300c <HAL_RCCEx_PeriphCLKConfig+0x3c>
 800303a:	2102      	movs	r1, #2
 800303c:	3028      	adds	r0, #40	@ 0x28
 800303e:	f7ff ff4f 	bl	8002ee0 <RCCEx_PLL3_Config>
 8003042:	e7f6      	b.n	8003032 <HAL_RCCEx_PeriphCLKConfig+0x62>
 8003044:	4a8a      	ldr	r2, [pc, #552]	@ (8003270 <HAL_RCCEx_PeriphCLKConfig+0x2a0>)
 8003046:	6ad3      	ldr	r3, [r2, #44]	@ 0x2c
 8003048:	f443 3300 	orr.w	r3, r3, #131072	@ 0x20000
 800304c:	62d3      	str	r3, [r2, #44]	@ 0x2c
 800304e:	4634      	mov	r4, r6
 8003050:	bb1c      	cbnz	r4, 800309a <HAL_RCCEx_PeriphCLKConfig+0xca>
 8003052:	4a87      	ldr	r2, [pc, #540]	@ (8003270 <HAL_RCCEx_PeriphCLKConfig+0x2a0>)
 8003054:	6da9      	ldr	r1, [r5, #88]	@ 0x58
 8003056:	6d13      	ldr	r3, [r2, #80]	@ 0x50
 8003058:	f023 0307 	bic.w	r3, r3, #7
 800305c:	430b      	orrs	r3, r1
 800305e:	6513      	str	r3, [r2, #80]	@ 0x50
 8003060:	682b      	ldr	r3, [r5, #0]
 8003062:	059b      	lsls	r3, r3, #22
 8003064:	d52a      	bpl.n	80030bc <HAL_RCCEx_PeriphCLKConfig+0xec>
 8003066:	6deb      	ldr	r3, [r5, #92]	@ 0x5c
 8003068:	2b80      	cmp	r3, #128	@ 0x80
 800306a:	d044      	beq.n	80030f6 <HAL_RCCEx_PeriphCLKConfig+0x126>
 800306c:	d817      	bhi.n	800309e <HAL_RCCEx_PeriphCLKConfig+0xce>
 800306e:	b3ab      	cbz	r3, 80030dc <HAL_RCCEx_PeriphCLKConfig+0x10c>
 8003070:	2b40      	cmp	r3, #64	@ 0x40
 8003072:	d039      	beq.n	80030e8 <HAL_RCCEx_PeriphCLKConfig+0x118>
 8003074:	2601      	movs	r6, #1
 8003076:	4634      	mov	r4, r6
 8003078:	e020      	b.n	80030bc <HAL_RCCEx_PeriphCLKConfig+0xec>
 800307a:	2100      	movs	r1, #0
 800307c:	f105 0008 	add.w	r0, r5, #8
 8003080:	f7ff feb6 	bl	8002df0 <RCCEx_PLL2_Config>
 8003084:	4604      	mov	r4, r0
 8003086:	e7e3      	b.n	8003050 <HAL_RCCEx_PeriphCLKConfig+0x80>
 8003088:	2100      	movs	r1, #0
 800308a:	f105 0028 	add.w	r0, r5, #40	@ 0x28
 800308e:	f7ff ff27 	bl	8002ee0 <RCCEx_PLL3_Config>
 8003092:	e7f7      	b.n	8003084 <HAL_RCCEx_PeriphCLKConfig+0xb4>
 8003094:	2601      	movs	r6, #1
 8003096:	4634      	mov	r4, r6
 8003098:	e7e2      	b.n	8003060 <HAL_RCCEx_PeriphCLKConfig+0x90>
 800309a:	4626      	mov	r6, r4
 800309c:	e7e0      	b.n	8003060 <HAL_RCCEx_PeriphCLKConfig+0x90>
 800309e:	f023 0240 	bic.w	r2, r3, #64	@ 0x40
 80030a2:	f5b2 7f80 	cmp.w	r2, #256	@ 0x100
 80030a6:	d001      	beq.n	80030ac <HAL_RCCEx_PeriphCLKConfig+0xdc>
 80030a8:	2bc0      	cmp	r3, #192	@ 0xc0
 80030aa:	d1e3      	bne.n	8003074 <HAL_RCCEx_PeriphCLKConfig+0xa4>
 80030ac:	bb4c      	cbnz	r4, 8003102 <HAL_RCCEx_PeriphCLKConfig+0x132>
 80030ae:	4a70      	ldr	r2, [pc, #448]	@ (8003270 <HAL_RCCEx_PeriphCLKConfig+0x2a0>)
 80030b0:	6de9      	ldr	r1, [r5, #92]	@ 0x5c
 80030b2:	6d13      	ldr	r3, [r2, #80]	@ 0x50
 80030b4:	f423 73e0 	bic.w	r3, r3, #448	@ 0x1c0
 80030b8:	430b      	orrs	r3, r1
 80030ba:	6513      	str	r3, [r2, #80]	@ 0x50
 80030bc:	682b      	ldr	r3, [r5, #0]
 80030be:	055f      	lsls	r7, r3, #21
 80030c0:	d531      	bpl.n	8003126 <HAL_RCCEx_PeriphCLKConfig+0x156>
 80030c2:	6e2b      	ldr	r3, [r5, #96]	@ 0x60
 80030c4:	f5b3 6f80 	cmp.w	r3, #1024	@ 0x400
 80030c8:	d047      	beq.n	800315a <HAL_RCCEx_PeriphCLKConfig+0x18a>
 80030ca:	d81c      	bhi.n	8003106 <HAL_RCCEx_PeriphCLKConfig+0x136>
 80030cc:	2b00      	cmp	r3, #0
 80030ce:	d037      	beq.n	8003140 <HAL_RCCEx_PeriphCLKConfig+0x170>
 80030d0:	f5b3 7f00 	cmp.w	r3, #512	@ 0x200
 80030d4:	d03a      	beq.n	800314c <HAL_RCCEx_PeriphCLKConfig+0x17c>
 80030d6:	2601      	movs	r6, #1
 80030d8:	4634      	mov	r4, r6
 80030da:	e024      	b.n	8003126 <HAL_RCCEx_PeriphCLKConfig+0x156>
 80030dc:	4a64      	ldr	r2, [pc, #400]	@ (8003270 <HAL_RCCEx_PeriphCLKConfig+0x2a0>)
 80030de:	6ad3      	ldr	r3, [r2, #44]	@ 0x2c
 80030e0:	f443 3300 	orr.w	r3, r3, #131072	@ 0x20000
 80030e4:	62d3      	str	r3, [r2, #44]	@ 0x2c
 80030e6:	e7e1      	b.n	80030ac <HAL_RCCEx_PeriphCLKConfig+0xdc>
 80030e8:	2100      	movs	r1, #0
 80030ea:	f105 0008 	add.w	r0, r5, #8
 80030ee:	f7ff fe7f 	bl	8002df0 <RCCEx_PLL2_Config>
 80030f2:	4604      	mov	r4, r0
 80030f4:	e7da      	b.n	80030ac <HAL_RCCEx_PeriphCLKConfig+0xdc>
 80030f6:	2100      	movs	r1, #0
 80030f8:	f105 0028 	add.w	r0, r5, #40	@ 0x28
 80030fc:	f7ff fef0 	bl	8002ee0 <RCCEx_PLL3_Config>
 8003100:	e7f7      	b.n	80030f2 <HAL_RCCEx_PeriphCLKConfig+0x122>
 8003102:	4626      	mov	r6, r4
 8003104:	e7da      	b.n	80030bc <HAL_RCCEx_PeriphCLKConfig+0xec>
 8003106:	f423 7200 	bic.w	r2, r3, #512	@ 0x200
 800310a:	f5b2 6f00 	cmp.w	r2, #2048	@ 0x800
 800310e:	d002      	beq.n	8003116 <HAL_RCCEx_PeriphCLKConfig+0x146>
 8003110:	f5b3 6fc0 	cmp.w	r3, #1536	@ 0x600
 8003114:	d1df      	bne.n	80030d6 <HAL_RCCEx_PeriphCLKConfig+0x106>
 8003116:	bb34      	cbnz	r4, 8003166 <HAL_RCCEx_PeriphCLKConfig+0x196>
 8003118:	4a55      	ldr	r2, [pc, #340]	@ (8003270 <HAL_RCCEx_PeriphCLKConfig+0x2a0>)
 800311a:	6e29      	ldr	r1, [r5, #96]	@ 0x60
 800311c:	6d13      	ldr	r3, [r2, #80]	@ 0x50
 800311e:	f423 6360 	bic.w	r3, r3, #3584	@ 0xe00
 8003122:	430b      	orrs	r3, r1
 8003124:	6513      	str	r3, [r2, #80]	@ 0x50
 8003126:	682b      	ldr	r3, [r5, #0]
 8003128:	0198      	lsls	r0, r3, #6
 800312a:	d528      	bpl.n	800317e <HAL_RCCEx_PeriphCLKConfig+0x1ae>
 800312c:	6ceb      	ldr	r3, [r5, #76]	@ 0x4c
 800312e:	2b20      	cmp	r3, #32
 8003130:	d03b      	beq.n	80031aa <HAL_RCCEx_PeriphCLKConfig+0x1da>
 8003132:	d81a      	bhi.n	800316a <HAL_RCCEx_PeriphCLKConfig+0x19a>
 8003134:	b1db      	cbz	r3, 800316e <HAL_RCCEx_PeriphCLKConfig+0x19e>
 8003136:	2b10      	cmp	r3, #16
 8003138:	d031      	beq.n	800319e <HAL_RCCEx_PeriphCLKConfig+0x1ce>
 800313a:	2601      	movs	r6, #1
 800313c:	4634      	mov	r4, r6
 800313e:	e01e      	b.n	800317e <HAL_RCCEx_PeriphCLKConfig+0x1ae>
 8003140:	4a4b      	ldr	r2, [pc, #300]	@ (8003270 <HAL_RCCEx_PeriphCLKConfig+0x2a0>)
 8003142:	6ad3      	ldr	r3, [r2, #44]	@ 0x2c
 8003144:	f443 3300 	orr.w	r3, r3, #131072	@ 0x20000
 8003148:	62d3      	str	r3, [r2, #44]	@ 0x2c
 800314a:	e7e4      	b.n	8003116 <HAL_RCCEx_PeriphCLKConfig+0x146>
 800314c:	2100      	movs	r1, #0
 800314e:	f105 0008 	add.w	r0, r5, #8
 8003152:	f7ff fe4d 	bl	8002df0 <RCCEx_PLL2_Config>
 8003156:	4604      	mov	r4, r0
 8003158:	e7dd      	b.n	8003116 <HAL_RCCEx_PeriphCLKConfig+0x146>
 800315a:	2100      	movs	r1, #0
 800315c:	f105 0028 	add.w	r0, r5, #40	@ 0x28
 8003160:	f7ff febe 	bl	8002ee0 <RCCEx_PLL3_Config>
 8003164:	e7f7      	b.n	8003156 <HAL_RCCEx_PeriphCLKConfig+0x186>
 8003166:	4626      	mov	r6, r4
 8003168:	e7dd      	b.n	8003126 <HAL_RCCEx_PeriphCLKConfig+0x156>
 800316a:	2b30      	cmp	r3, #48	@ 0x30
 800316c:	d1e5      	bne.n	800313a <HAL_RCCEx_PeriphCLKConfig+0x16a>
 800316e:	bb1c      	cbnz	r4, 80031b8 <HAL_RCCEx_PeriphCLKConfig+0x1e8>
 8003170:	4a3f      	ldr	r2, [pc, #252]	@ (8003270 <HAL_RCCEx_PeriphCLKConfig+0x2a0>)
 8003172:	6ce9      	ldr	r1, [r5, #76]	@ 0x4c
 8003174:	6cd3      	ldr	r3, [r2, #76]	@ 0x4c
 8003176:	f023 0330 	bic.w	r3, r3, #48	@ 0x30
 800317a:	430b      	orrs	r3, r1
 800317c:	64d3      	str	r3, [r2, #76]	@ 0x4c
 800317e:	682b      	ldr	r3, [r5, #0]
 8003180:	04d9      	lsls	r1, r3, #19
 8003182:	d52a      	bpl.n	80031da <HAL_RCCEx_PeriphCLKConfig+0x20a>
 8003184:	6e6b      	ldr	r3, [r5, #100]	@ 0x64
 8003186:	f5b3 5f00 	cmp.w	r3, #8192	@ 0x2000
 800318a:	d07a      	beq.n	8003282 <HAL_RCCEx_PeriphCLKConfig+0x2b2>
 800318c:	d816      	bhi.n	80031bc <HAL_RCCEx_PeriphCLKConfig+0x1ec>
 800318e:	2b00      	cmp	r3, #0
 8003190:	d068      	beq.n	8003264 <HAL_RCCEx_PeriphCLKConfig+0x294>
 8003192:	f5b3 5f80 	cmp.w	r3, #4096	@ 0x1000
 8003196:	d06d      	beq.n	8003274 <HAL_RCCEx_PeriphCLKConfig+0x2a4>
 8003198:	2601      	movs	r6, #1
 800319a:	4634      	mov	r4, r6
 800319c:	e01d      	b.n	80031da <HAL_RCCEx_PeriphCLKConfig+0x20a>
 800319e:	4a34      	ldr	r2, [pc, #208]	@ (8003270 <HAL_RCCEx_PeriphCLKConfig+0x2a0>)
 80031a0:	6ad3      	ldr	r3, [r2, #44]	@ 0x2c
 80031a2:	f443 3300 	orr.w	r3, r3, #131072	@ 0x20000
 80031a6:	62d3      	str	r3, [r2, #44]	@ 0x2c
 80031a8:	e7e1      	b.n	800316e <HAL_RCCEx_PeriphCLKConfig+0x19e>
 80031aa:	2102      	movs	r1, #2
 80031ac:	f105 0008 	add.w	r0, r5, #8
 80031b0:	f7ff fe1e 	bl	8002df0 <RCCEx_PLL2_Config>
 80031b4:	4604      	mov	r4, r0
 80031b6:	e7da      	b.n	800316e <HAL_RCCEx_PeriphCLKConfig+0x19e>
 80031b8:	4626      	mov	r6, r4
 80031ba:	e7e0      	b.n	800317e <HAL_RCCEx_PeriphCLKConfig+0x1ae>
 80031bc:	f5b3 5f40 	cmp.w	r3, #12288	@ 0x3000
 80031c0:	d002      	beq.n	80031c8 <HAL_RCCEx_PeriphCLKConfig+0x1f8>
 80031c2:	f5b3 4f80 	cmp.w	r3, #16384	@ 0x4000
 80031c6:	d1e7      	bne.n	8003198 <HAL_RCCEx_PeriphCLKConfig+0x1c8>
 80031c8:	2c00      	cmp	r4, #0
 80031ca:	d160      	bne.n	800328e <HAL_RCCEx_PeriphCLKConfig+0x2be>
 80031cc:	4a28      	ldr	r2, [pc, #160]	@ (8003270 <HAL_RCCEx_PeriphCLKConfig+0x2a0>)
 80031ce:	6e69      	ldr	r1, [r5, #100]	@ 0x64
 80031d0:	6d13      	ldr	r3, [r2, #80]	@ 0x50
 80031d2:	f423 43e0 	bic.w	r3, r3, #28672	@ 0x7000
 80031d6:	430b      	orrs	r3, r1
 80031d8:	6513      	str	r3, [r2, #80]	@ 0x50
 80031da:	682b      	ldr	r3, [r5, #0]
 80031dc:	049a      	lsls	r2, r3, #18
 80031de:	d50b      	bpl.n	80031f8 <HAL_RCCEx_PeriphCLKConfig+0x228>
 80031e0:	6eab      	ldr	r3, [r5, #104]	@ 0x68
 80031e2:	f5b3 3f00 	cmp.w	r3, #131072	@ 0x20000
 80031e6:	d06c      	beq.n	80032c2 <HAL_RCCEx_PeriphCLKConfig+0x2f2>
 80031e8:	d853      	bhi.n	8003292 <HAL_RCCEx_PeriphCLKConfig+0x2c2>
 80031ea:	2b00      	cmp	r3, #0
 80031ec:	d059      	beq.n	80032a2 <HAL_RCCEx_PeriphCLKConfig+0x2d2>
 80031ee:	f5b3 3f80 	cmp.w	r3, #65536	@ 0x10000
 80031f2:	d05f      	beq.n	80032b4 <HAL_RCCEx_PeriphCLKConfig+0x2e4>
 80031f4:	2601      	movs	r6, #1
 80031f6:	4634      	mov	r4, r6
 80031f8:	682b      	ldr	r3, [r5, #0]
 80031fa:	045b      	lsls	r3, r3, #17
 80031fc:	d50d      	bpl.n	800321a <HAL_RCCEx_PeriphCLKConfig+0x24a>
 80031fe:	f8d5 30b0 	ldr.w	r3, [r5, #176]	@ 0xb0
 8003202:	f1b3 5f00 	cmp.w	r3, #536870912	@ 0x20000000
 8003206:	f000 8082 	beq.w	800330e <HAL_RCCEx_PeriphCLKConfig+0x33e>
 800320a:	d862      	bhi.n	80032d2 <HAL_RCCEx_PeriphCLKConfig+0x302>
 800320c:	2b00      	cmp	r3, #0
 800320e:	d06a      	beq.n	80032e6 <HAL_RCCEx_PeriphCLKConfig+0x316>
 8003210:	f1b3 5f80 	cmp.w	r3, #268435456	@ 0x10000000
 8003214:	d074      	beq.n	8003300 <HAL_RCCEx_PeriphCLKConfig+0x330>
 8003216:	2601      	movs	r6, #1
 8003218:	4634      	mov	r4, r6
 800321a:	682b      	ldr	r3, [r5, #0]
 800321c:	041f      	lsls	r7, r3, #16
 800321e:	d513      	bpl.n	8003248 <HAL_RCCEx_PeriphCLKConfig+0x278>
 8003220:	6fab      	ldr	r3, [r5, #120]	@ 0x78
 8003222:	f1b3 5f80 	cmp.w	r3, #268435456	@ 0x10000000
 8003226:	d07a      	beq.n	800331e <HAL_RCCEx_PeriphCLKConfig+0x34e>
 8003228:	f1b3 5f00 	cmp.w	r3, #536870912	@ 0x20000000
 800322c:	d07d      	beq.n	800332a <HAL_RCCEx_PeriphCLKConfig+0x35a>
 800322e:	2b00      	cmp	r3, #0
 8003230:	f040 8082 	bne.w	8003338 <HAL_RCCEx_PeriphCLKConfig+0x368>
 8003234:	2c00      	cmp	r4, #0
 8003236:	f040 8082 	bne.w	800333e <HAL_RCCEx_PeriphCLKConfig+0x36e>
 800323a:	4a0d      	ldr	r2, [pc, #52]	@ (8003270 <HAL_RCCEx_PeriphCLKConfig+0x2a0>)
 800323c:	6fa9      	ldr	r1, [r5, #120]	@ 0x78
 800323e:	6d13      	ldr	r3, [r2, #80]	@ 0x50
 8003240:	f023 5340 	bic.w	r3, r3, #805306368	@ 0x30000000
 8003244:	430b      	orrs	r3, r1
 8003246:	6513      	str	r3, [r2, #80]	@ 0x50
 8003248:	682b      	ldr	r3, [r5, #0]
 800324a:	01d8      	lsls	r0, r3, #7
 800324c:	f140 8087 	bpl.w	800335e <HAL_RCCEx_PeriphCLKConfig+0x38e>
 8003250:	6cab      	ldr	r3, [r5, #72]	@ 0x48
 8003252:	2b03      	cmp	r3, #3
 8003254:	f200 80e1 	bhi.w	800341a <HAL_RCCEx_PeriphCLKConfig+0x44a>
 8003258:	e8df f013 	tbh	[pc, r3, lsl #1]
 800325c:	00730078 	.word	0x00730078
 8003260:	007800d8 	.word	0x007800d8
 8003264:	4a02      	ldr	r2, [pc, #8]	@ (8003270 <HAL_RCCEx_PeriphCLKConfig+0x2a0>)
 8003266:	6ad3      	ldr	r3, [r2, #44]	@ 0x2c
 8003268:	f443 3300 	orr.w	r3, r3, #131072	@ 0x20000
 800326c:	62d3      	str	r3, [r2, #44]	@ 0x2c
 800326e:	e7ab      	b.n	80031c8 <HAL_RCCEx_PeriphCLKConfig+0x1f8>
 8003270:	58024400 	.word	0x58024400
 8003274:	2100      	movs	r1, #0
 8003276:	f105 0008 	add.w	r0, r5, #8
 800327a:	f7ff fdb9 	bl	8002df0 <RCCEx_PLL2_Config>
 800327e:	4604      	mov	r4, r0
 8003280:	e7a2      	b.n	80031c8 <HAL_RCCEx_PeriphCLKConfig+0x1f8>
 8003282:	2100      	movs	r1, #0
 8003284:	f105 0028 	add.w	r0, r5, #40	@ 0x28
 8003288:	f7ff fe2a 	bl	8002ee0 <RCCEx_PLL3_Config>
 800328c:	e7f7      	b.n	800327e <HAL_RCCEx_PeriphCLKConfig+0x2ae>
 800328e:	4626      	mov	r6, r4
 8003290:	e7a3      	b.n	80031da <HAL_RCCEx_PeriphCLKConfig+0x20a>
 8003292:	f423 3280 	bic.w	r2, r3, #65536	@ 0x10000
 8003296:	f5b2 2f80 	cmp.w	r2, #262144	@ 0x40000
 800329a:	d002      	beq.n	80032a2 <HAL_RCCEx_PeriphCLKConfig+0x2d2>
 800329c:	f5b3 3f40 	cmp.w	r3, #196608	@ 0x30000
 80032a0:	d1a8      	bne.n	80031f4 <HAL_RCCEx_PeriphCLKConfig+0x224>
 80032a2:	b9a4      	cbnz	r4, 80032ce <HAL_RCCEx_PeriphCLKConfig+0x2fe>
 80032a4:	4a94      	ldr	r2, [pc, #592]	@ (80034f8 <HAL_RCCEx_PeriphCLKConfig+0x528>)
 80032a6:	6ea9      	ldr	r1, [r5, #104]	@ 0x68
 80032a8:	6d13      	ldr	r3, [r2, #80]	@ 0x50
 80032aa:	f423 23e0 	bic.w	r3, r3, #458752	@ 0x70000
 80032ae:	430b      	orrs	r3, r1
 80032b0:	6513      	str	r3, [r2, #80]	@ 0x50
 80032b2:	e7a1      	b.n	80031f8 <HAL_RCCEx_PeriphCLKConfig+0x228>
 80032b4:	2101      	movs	r1, #1
 80032b6:	f105 0008 	add.w	r0, r5, #8
 80032ba:	f7ff fd99 	bl	8002df0 <RCCEx_PLL2_Config>
 80032be:	4604      	mov	r4, r0
 80032c0:	e7ef      	b.n	80032a2 <HAL_RCCEx_PeriphCLKConfig+0x2d2>
 80032c2:	2101      	movs	r1, #1
 80032c4:	f105 0028 	add.w	r0, r5, #40	@ 0x28
 80032c8:	f7ff fe0a 	bl	8002ee0 <RCCEx_PLL3_Config>
 80032cc:	e7f7      	b.n	80032be <HAL_RCCEx_PeriphCLKConfig+0x2ee>
 80032ce:	4626      	mov	r6, r4
 80032d0:	e792      	b.n	80031f8 <HAL_RCCEx_PeriphCLKConfig+0x228>
 80032d2:	f1b3 4fa0 	cmp.w	r3, #1342177280	@ 0x50000000
 80032d6:	d006      	beq.n	80032e6 <HAL_RCCEx_PeriphCLKConfig+0x316>
 80032d8:	d80f      	bhi.n	80032fa <HAL_RCCEx_PeriphCLKConfig+0x32a>
 80032da:	f1b3 5f40 	cmp.w	r3, #805306368	@ 0x30000000
 80032de:	d002      	beq.n	80032e6 <HAL_RCCEx_PeriphCLKConfig+0x316>
 80032e0:	f1b3 4f80 	cmp.w	r3, #1073741824	@ 0x40000000
 80032e4:	d197      	bne.n	8003216 <HAL_RCCEx_PeriphCLKConfig+0x246>
 80032e6:	b9c4      	cbnz	r4, 800331a <HAL_RCCEx_PeriphCLKConfig+0x34a>
 80032e8:	4a83      	ldr	r2, [pc, #524]	@ (80034f8 <HAL_RCCEx_PeriphCLKConfig+0x528>)
 80032ea:	f8d5 10b0 	ldr.w	r1, [r5, #176]	@ 0xb0
 80032ee:	6d93      	ldr	r3, [r2, #88]	@ 0x58
 80032f0:	f023 43e0 	bic.w	r3, r3, #1879048192	@ 0x70000000
 80032f4:	430b      	orrs	r3, r1
 80032f6:	6593      	str	r3, [r2, #88]	@ 0x58
 80032f8:	e78f      	b.n	800321a <HAL_RCCEx_PeriphCLKConfig+0x24a>
 80032fa:	f1b3 4fc0 	cmp.w	r3, #1610612736	@ 0x60000000
 80032fe:	e7f1      	b.n	80032e4 <HAL_RCCEx_PeriphCLKConfig+0x314>
 8003300:	2101      	movs	r1, #1
 8003302:	f105 0008 	add.w	r0, r5, #8
 8003306:	f7ff fd73 	bl	8002df0 <RCCEx_PLL2_Config>
 800330a:	4604      	mov	r4, r0
 800330c:	e7eb      	b.n	80032e6 <HAL_RCCEx_PeriphCLKConfig+0x316>
 800330e:	2101      	movs	r1, #1
 8003310:	f105 0028 	add.w	r0, r5, #40	@ 0x28
 8003314:	f7ff fde4 	bl	8002ee0 <RCCEx_PLL3_Config>
 8003318:	e7f7      	b.n	800330a <HAL_RCCEx_PeriphCLKConfig+0x33a>
 800331a:	4626      	mov	r6, r4
 800331c:	e77d      	b.n	800321a <HAL_RCCEx_PeriphCLKConfig+0x24a>
 800331e:	4a76      	ldr	r2, [pc, #472]	@ (80034f8 <HAL_RCCEx_PeriphCLKConfig+0x528>)
 8003320:	6ad3      	ldr	r3, [r2, #44]	@ 0x2c
 8003322:	f443 3300 	orr.w	r3, r3, #131072	@ 0x20000
 8003326:	62d3      	str	r3, [r2, #44]	@ 0x2c
 8003328:	e784      	b.n	8003234 <HAL_RCCEx_PeriphCLKConfig+0x264>
 800332a:	2101      	movs	r1, #1
 800332c:	f105 0008 	add.w	r0, r5, #8
 8003330:	f7ff fd5e 	bl	8002df0 <RCCEx_PLL2_Config>
 8003334:	4604      	mov	r4, r0
 8003336:	e77d      	b.n	8003234 <HAL_RCCEx_PeriphCLKConfig+0x264>
 8003338:	2601      	movs	r6, #1
 800333a:	4634      	mov	r4, r6
 800333c:	e784      	b.n	8003248 <HAL_RCCEx_PeriphCLKConfig+0x278>
 800333e:	4626      	mov	r6, r4
 8003340:	e782      	b.n	8003248 <HAL_RCCEx_PeriphCLKConfig+0x278>
 8003342:	4a6d      	ldr	r2, [pc, #436]	@ (80034f8 <HAL_RCCEx_PeriphCLKConfig+0x528>)
 8003344:	6ad3      	ldr	r3, [r2, #44]	@ 0x2c
 8003346:	f443 3300 	orr.w	r3, r3, #131072	@ 0x20000
 800334a:	62d3      	str	r3, [r2, #44]	@ 0x2c
 800334c:	2c00      	cmp	r4, #0
 800334e:	d167      	bne.n	8003420 <HAL_RCCEx_PeriphCLKConfig+0x450>
 8003350:	4a69      	ldr	r2, [pc, #420]	@ (80034f8 <HAL_RCCEx_PeriphCLKConfig+0x528>)
 8003352:	6ca9      	ldr	r1, [r5, #72]	@ 0x48
 8003354:	6cd3      	ldr	r3, [r2, #76]	@ 0x4c
 8003356:	f023 0303 	bic.w	r3, r3, #3
 800335a:	430b      	orrs	r3, r1
 800335c:	64d3      	str	r3, [r2, #76]	@ 0x4c
 800335e:	682b      	ldr	r3, [r5, #0]
 8003360:	0259      	lsls	r1, r3, #9
 8003362:	d539      	bpl.n	80033d8 <HAL_RCCEx_PeriphCLKConfig+0x408>
 8003364:	4f65      	ldr	r7, [pc, #404]	@ (80034fc <HAL_RCCEx_PeriphCLKConfig+0x52c>)
 8003366:	683b      	ldr	r3, [r7, #0]
 8003368:	f443 7380 	orr.w	r3, r3, #256	@ 0x100
 800336c:	603b      	str	r3, [r7, #0]
 800336e:	f7fe fc61 	bl	8001c34 <HAL_GetTick>
 8003372:	4680      	mov	r8, r0
 8003374:	683b      	ldr	r3, [r7, #0]
 8003376:	05da      	lsls	r2, r3, #23
 8003378:	d554      	bpl.n	8003424 <HAL_RCCEx_PeriphCLKConfig+0x454>
 800337a:	2c00      	cmp	r4, #0
 800337c:	d170      	bne.n	8003460 <HAL_RCCEx_PeriphCLKConfig+0x490>
 800337e:	4b5e      	ldr	r3, [pc, #376]	@ (80034f8 <HAL_RCCEx_PeriphCLKConfig+0x528>)
 8003380:	f8d5 00b4 	ldr.w	r0, [r5, #180]	@ 0xb4
 8003384:	6f1a      	ldr	r2, [r3, #112]	@ 0x70
 8003386:	4042      	eors	r2, r0
 8003388:	f412 7f40 	tst.w	r2, #768	@ 0x300
 800338c:	d00b      	beq.n	80033a6 <HAL_RCCEx_PeriphCLKConfig+0x3d6>
 800338e:	6f1a      	ldr	r2, [r3, #112]	@ 0x70
 8003390:	6f19      	ldr	r1, [r3, #112]	@ 0x70
 8003392:	f422 7240 	bic.w	r2, r2, #768	@ 0x300
 8003396:	f441 3180 	orr.w	r1, r1, #65536	@ 0x10000
 800339a:	6719      	str	r1, [r3, #112]	@ 0x70
 800339c:	6f19      	ldr	r1, [r3, #112]	@ 0x70
 800339e:	f421 3180 	bic.w	r1, r1, #65536	@ 0x10000
 80033a2:	6719      	str	r1, [r3, #112]	@ 0x70
 80033a4:	671a      	str	r2, [r3, #112]	@ 0x70
 80033a6:	f5b0 7f80 	cmp.w	r0, #256	@ 0x100
 80033aa:	d044      	beq.n	8003436 <HAL_RCCEx_PeriphCLKConfig+0x466>
 80033ac:	f8d5 30b4 	ldr.w	r3, [r5, #180]	@ 0xb4
 80033b0:	4951      	ldr	r1, [pc, #324]	@ (80034f8 <HAL_RCCEx_PeriphCLKConfig+0x528>)
 80033b2:	f403 7240 	and.w	r2, r3, #768	@ 0x300
 80033b6:	f5b2 7f40 	cmp.w	r2, #768	@ 0x300
 80033ba:	d14d      	bne.n	8003458 <HAL_RCCEx_PeriphCLKConfig+0x488>
 80033bc:	6908      	ldr	r0, [r1, #16]
 80033be:	4a50      	ldr	r2, [pc, #320]	@ (8003500 <HAL_RCCEx_PeriphCLKConfig+0x530>)
 80033c0:	f420 507c 	bic.w	r0, r0, #16128	@ 0x3f00
 80033c4:	ea02 1213 	and.w	r2, r2, r3, lsr #4
 80033c8:	4302      	orrs	r2, r0
 80033ca:	610a      	str	r2, [r1, #16]
 80033cc:	f3c3 030b 	ubfx	r3, r3, #0, #12
 80033d0:	4a49      	ldr	r2, [pc, #292]	@ (80034f8 <HAL_RCCEx_PeriphCLKConfig+0x528>)
 80033d2:	6f11      	ldr	r1, [r2, #112]	@ 0x70
 80033d4:	430b      	orrs	r3, r1
 80033d6:	6713      	str	r3, [r2, #112]	@ 0x70
 80033d8:	682b      	ldr	r3, [r5, #0]
 80033da:	07d8      	lsls	r0, r3, #31
 80033dc:	d50a      	bpl.n	80033f4 <HAL_RCCEx_PeriphCLKConfig+0x424>
 80033de:	f8d5 3084 	ldr.w	r3, [r5, #132]	@ 0x84
 80033e2:	2b10      	cmp	r3, #16
 80033e4:	d055      	beq.n	8003492 <HAL_RCCEx_PeriphCLKConfig+0x4c2>
 80033e6:	d83d      	bhi.n	8003464 <HAL_RCCEx_PeriphCLKConfig+0x494>
 80033e8:	2b00      	cmp	r3, #0
 80033ea:	d041      	beq.n	8003470 <HAL_RCCEx_PeriphCLKConfig+0x4a0>
 80033ec:	2b08      	cmp	r3, #8
 80033ee:	d049      	beq.n	8003484 <HAL_RCCEx_PeriphCLKConfig+0x4b4>
 80033f0:	2601      	movs	r6, #1
 80033f2:	4634      	mov	r4, r6
 80033f4:	682b      	ldr	r3, [r5, #0]
 80033f6:	0799      	lsls	r1, r3, #30
 80033f8:	d562      	bpl.n	80034c0 <HAL_RCCEx_PeriphCLKConfig+0x4f0>
 80033fa:	f8d5 3080 	ldr.w	r3, [r5, #128]	@ 0x80
 80033fe:	2b05      	cmp	r3, #5
 8003400:	d874      	bhi.n	80034ec <HAL_RCCEx_PeriphCLKConfig+0x51c>
 8003402:	e8df f003 	tbb	[pc, r3]
 8003406:	4e54      	.short	0x4e54
 8003408:	5454546d 	.word	0x5454546d
 800340c:	2102      	movs	r1, #2
 800340e:	f105 0008 	add.w	r0, r5, #8
 8003412:	f7ff fced 	bl	8002df0 <RCCEx_PLL2_Config>
 8003416:	4604      	mov	r4, r0
 8003418:	e798      	b.n	800334c <HAL_RCCEx_PeriphCLKConfig+0x37c>
 800341a:	2601      	movs	r6, #1
 800341c:	4634      	mov	r4, r6
 800341e:	e79e      	b.n	800335e <HAL_RCCEx_PeriphCLKConfig+0x38e>
 8003420:	4626      	mov	r6, r4
 8003422:	e79c      	b.n	800335e <HAL_RCCEx_PeriphCLKConfig+0x38e>
 8003424:	f7fe fc06 	bl	8001c34 <HAL_GetTick>
 8003428:	eba0 0008 	sub.w	r0, r0, r8
 800342c:	2864      	cmp	r0, #100	@ 0x64
 800342e:	d9a1      	bls.n	8003374 <HAL_RCCEx_PeriphCLKConfig+0x3a4>
 8003430:	2603      	movs	r6, #3
 8003432:	4634      	mov	r4, r6
 8003434:	e7d0      	b.n	80033d8 <HAL_RCCEx_PeriphCLKConfig+0x408>
 8003436:	f7fe fbfd 	bl	8001c34 <HAL_GetTick>
 800343a:	f8df 80bc 	ldr.w	r8, [pc, #188]	@ 80034f8 <HAL_RCCEx_PeriphCLKConfig+0x528>
 800343e:	4607      	mov	r7, r0
 8003440:	f241 3988 	movw	r9, #5000	@ 0x1388
 8003444:	f8d8 3070 	ldr.w	r3, [r8, #112]	@ 0x70
 8003448:	079b      	lsls	r3, r3, #30
 800344a:	d4af      	bmi.n	80033ac <HAL_RCCEx_PeriphCLKConfig+0x3dc>
 800344c:	f7fe fbf2 	bl	8001c34 <HAL_GetTick>
 8003450:	1bc0      	subs	r0, r0, r7
 8003452:	4548      	cmp	r0, r9
 8003454:	d9f6      	bls.n	8003444 <HAL_RCCEx_PeriphCLKConfig+0x474>
 8003456:	e7eb      	b.n	8003430 <HAL_RCCEx_PeriphCLKConfig+0x460>
 8003458:	690a      	ldr	r2, [r1, #16]
 800345a:	f422 527c 	bic.w	r2, r2, #16128	@ 0x3f00
 800345e:	e7b4      	b.n	80033ca <HAL_RCCEx_PeriphCLKConfig+0x3fa>
 8003460:	4626      	mov	r6, r4
 8003462:	e7b9      	b.n	80033d8 <HAL_RCCEx_PeriphCLKConfig+0x408>
 8003464:	f023 0208 	bic.w	r2, r3, #8
 8003468:	2a20      	cmp	r2, #32
 800346a:	d001      	beq.n	8003470 <HAL_RCCEx_PeriphCLKConfig+0x4a0>
 800346c:	2b18      	cmp	r3, #24
 800346e:	d1bf      	bne.n	80033f0 <HAL_RCCEx_PeriphCLKConfig+0x420>
 8003470:	b9ac      	cbnz	r4, 800349e <HAL_RCCEx_PeriphCLKConfig+0x4ce>
 8003472:	4a21      	ldr	r2, [pc, #132]	@ (80034f8 <HAL_RCCEx_PeriphCLKConfig+0x528>)
 8003474:	f8d5 1084 	ldr.w	r1, [r5, #132]	@ 0x84
 8003478:	6d53      	ldr	r3, [r2, #84]	@ 0x54
 800347a:	f023 0338 	bic.w	r3, r3, #56	@ 0x38
 800347e:	430b      	orrs	r3, r1
 8003480:	6553      	str	r3, [r2, #84]	@ 0x54
 8003482:	e7b7      	b.n	80033f4 <HAL_RCCEx_PeriphCLKConfig+0x424>
 8003484:	2101      	movs	r1, #1
 8003486:	f105 0008 	add.w	r0, r5, #8
 800348a:	f7ff fcb1 	bl	8002df0 <RCCEx_PLL2_Config>
 800348e:	4604      	mov	r4, r0
 8003490:	e7ee      	b.n	8003470 <HAL_RCCEx_PeriphCLKConfig+0x4a0>
 8003492:	2101      	movs	r1, #1
 8003494:	f105 0028 	add.w	r0, r5, #40	@ 0x28
 8003498:	f7ff fd22 	bl	8002ee0 <RCCEx_PLL3_Config>
 800349c:	e7f7      	b.n	800348e <HAL_RCCEx_PeriphCLKConfig+0x4be>
 800349e:	4626      	mov	r6, r4
 80034a0:	e7a8      	b.n	80033f4 <HAL_RCCEx_PeriphCLKConfig+0x424>
 80034a2:	2101      	movs	r1, #1
 80034a4:	f105 0008 	add.w	r0, r5, #8
 80034a8:	f7ff fca2 	bl	8002df0 <RCCEx_PLL2_Config>
 80034ac:	4604      	mov	r4, r0
 80034ae:	bb04      	cbnz	r4, 80034f2 <HAL_RCCEx_PeriphCLKConfig+0x522>
 80034b0:	4a11      	ldr	r2, [pc, #68]	@ (80034f8 <HAL_RCCEx_PeriphCLKConfig+0x528>)
 80034b2:	f8d5 1080 	ldr.w	r1, [r5, #128]	@ 0x80
 80034b6:	6d53      	ldr	r3, [r2, #84]	@ 0x54
 80034b8:	f023 0307 	bic.w	r3, r3, #7
 80034bc:	430b      	orrs	r3, r1
 80034be:	6553      	str	r3, [r2, #84]	@ 0x54
 80034c0:	682b      	ldr	r3, [r5, #0]
 80034c2:	075a      	lsls	r2, r3, #29
 80034c4:	d52f      	bpl.n	8003526 <HAL_RCCEx_PeriphCLKConfig+0x556>
 80034c6:	f8d5 309c 	ldr.w	r3, [r5, #156]	@ 0x9c
 80034ca:	2b05      	cmp	r3, #5
 80034cc:	f200 8171 	bhi.w	80037b2 <HAL_RCCEx_PeriphCLKConfig+0x7e2>
 80034d0:	e8df f013 	tbh	[pc, r3, lsl #1]
 80034d4:	0018001e 	.word	0x0018001e
 80034d8:	001e0169 	.word	0x001e0169
 80034dc:	001e001e 	.word	0x001e001e
 80034e0:	2101      	movs	r1, #1
 80034e2:	f105 0028 	add.w	r0, r5, #40	@ 0x28
 80034e6:	f7ff fcfb 	bl	8002ee0 <RCCEx_PLL3_Config>
 80034ea:	e7df      	b.n	80034ac <HAL_RCCEx_PeriphCLKConfig+0x4dc>
 80034ec:	2601      	movs	r6, #1
 80034ee:	4634      	mov	r4, r6
 80034f0:	e7e6      	b.n	80034c0 <HAL_RCCEx_PeriphCLKConfig+0x4f0>
 80034f2:	4626      	mov	r6, r4
 80034f4:	e7e4      	b.n	80034c0 <HAL_RCCEx_PeriphCLKConfig+0x4f0>
 80034f6:	bf00      	nop
 80034f8:	58024400 	.word	0x58024400
 80034fc:	58024800 	.word	0x58024800
 8003500:	00ffffcf 	.word	0x00ffffcf
 8003504:	2101      	movs	r1, #1
 8003506:	f105 0008 	add.w	r0, r5, #8
 800350a:	f7ff fc71 	bl	8002df0 <RCCEx_PLL2_Config>
 800350e:	4604      	mov	r4, r0
 8003510:	2c00      	cmp	r4, #0
 8003512:	f040 8151 	bne.w	80037b8 <HAL_RCCEx_PeriphCLKConfig+0x7e8>
 8003516:	4aa9      	ldr	r2, [pc, #676]	@ (80037bc <HAL_RCCEx_PeriphCLKConfig+0x7ec>)
 8003518:	f8d5 109c 	ldr.w	r1, [r5, #156]	@ 0x9c
 800351c:	6d93      	ldr	r3, [r2, #88]	@ 0x58
 800351e:	f023 0307 	bic.w	r3, r3, #7
 8003522:	430b      	orrs	r3, r1
 8003524:	6593      	str	r3, [r2, #88]	@ 0x58
 8003526:	682b      	ldr	r3, [r5, #0]
 8003528:	069b      	lsls	r3, r3, #26
 800352a:	d510      	bpl.n	800354e <HAL_RCCEx_PeriphCLKConfig+0x57e>
 800352c:	f8d5 3098 	ldr.w	r3, [r5, #152]	@ 0x98
 8003530:	f1b3 5f00 	cmp.w	r3, #536870912	@ 0x20000000
 8003534:	f000 815e 	beq.w	80037f4 <HAL_RCCEx_PeriphCLKConfig+0x824>
 8003538:	f200 8142 	bhi.w	80037c0 <HAL_RCCEx_PeriphCLKConfig+0x7f0>
 800353c:	2b00      	cmp	r3, #0
 800353e:	f000 8148 	beq.w	80037d2 <HAL_RCCEx_PeriphCLKConfig+0x802>
 8003542:	f1b3 5f80 	cmp.w	r3, #268435456	@ 0x10000000
 8003546:	f000 814e 	beq.w	80037e6 <HAL_RCCEx_PeriphCLKConfig+0x816>
 800354a:	2601      	movs	r6, #1
 800354c:	4634      	mov	r4, r6
 800354e:	682b      	ldr	r3, [r5, #0]
 8003550:	065f      	lsls	r7, r3, #25
 8003552:	d510      	bpl.n	8003576 <HAL_RCCEx_PeriphCLKConfig+0x5a6>
 8003554:	f8d5 30a4 	ldr.w	r3, [r5, #164]	@ 0xa4
 8003558:	f5b3 6f00 	cmp.w	r3, #2048	@ 0x800
 800355c:	f000 816c 	beq.w	8003838 <HAL_RCCEx_PeriphCLKConfig+0x868>
 8003560:	f200 8150 	bhi.w	8003804 <HAL_RCCEx_PeriphCLKConfig+0x834>
 8003564:	2b00      	cmp	r3, #0
 8003566:	f000 8156 	beq.w	8003816 <HAL_RCCEx_PeriphCLKConfig+0x846>
 800356a:	f5b3 6f80 	cmp.w	r3, #1024	@ 0x400
 800356e:	f000 815c 	beq.w	800382a <HAL_RCCEx_PeriphCLKConfig+0x85a>
 8003572:	2601      	movs	r6, #1
 8003574:	4634      	mov	r4, r6
 8003576:	682b      	ldr	r3, [r5, #0]
 8003578:	0618      	lsls	r0, r3, #24
 800357a:	d510      	bpl.n	800359e <HAL_RCCEx_PeriphCLKConfig+0x5ce>
 800357c:	f8d5 30a8 	ldr.w	r3, [r5, #168]	@ 0xa8
 8003580:	f5b3 4f80 	cmp.w	r3, #16384	@ 0x4000
 8003584:	f000 817a 	beq.w	800387c <HAL_RCCEx_PeriphCLKConfig+0x8ac>
 8003588:	f200 815e 	bhi.w	8003848 <HAL_RCCEx_PeriphCLKConfig+0x878>
 800358c:	2b00      	cmp	r3, #0
 800358e:	f000 8164 	beq.w	800385a <HAL_RCCEx_PeriphCLKConfig+0x88a>
 8003592:	f5b3 5f00 	cmp.w	r3, #8192	@ 0x2000
 8003596:	f000 816a 	beq.w	800386e <HAL_RCCEx_PeriphCLKConfig+0x89e>
 800359a:	2601      	movs	r6, #1
 800359c:	4634      	mov	r4, r6
 800359e:	682b      	ldr	r3, [r5, #0]
 80035a0:	0719      	lsls	r1, r3, #28
 80035a2:	d514      	bpl.n	80035ce <HAL_RCCEx_PeriphCLKConfig+0x5fe>
 80035a4:	f8d5 308c 	ldr.w	r3, [r5, #140]	@ 0x8c
 80035a8:	f5b3 5f80 	cmp.w	r3, #4096	@ 0x1000
 80035ac:	d107      	bne.n	80035be <HAL_RCCEx_PeriphCLKConfig+0x5ee>
 80035ae:	2102      	movs	r1, #2
 80035b0:	f105 0028 	add.w	r0, r5, #40	@ 0x28
 80035b4:	f7ff fc94 	bl	8002ee0 <RCCEx_PLL3_Config>
 80035b8:	2800      	cmp	r0, #0
 80035ba:	bf18      	it	ne
 80035bc:	2601      	movne	r6, #1
 80035be:	4a7f      	ldr	r2, [pc, #508]	@ (80037bc <HAL_RCCEx_PeriphCLKConfig+0x7ec>)
 80035c0:	f8d5 108c 	ldr.w	r1, [r5, #140]	@ 0x8c
 80035c4:	6d53      	ldr	r3, [r2, #84]	@ 0x54
 80035c6:	f423 5340 	bic.w	r3, r3, #12288	@ 0x3000
 80035ca:	430b      	orrs	r3, r1
 80035cc:	6553      	str	r3, [r2, #84]	@ 0x54
 80035ce:	682b      	ldr	r3, [r5, #0]
 80035d0:	06da      	lsls	r2, r3, #27
 80035d2:	d514      	bpl.n	80035fe <HAL_RCCEx_PeriphCLKConfig+0x62e>
 80035d4:	f8d5 30a0 	ldr.w	r3, [r5, #160]	@ 0xa0
 80035d8:	f5b3 7f80 	cmp.w	r3, #256	@ 0x100
 80035dc:	d107      	bne.n	80035ee <HAL_RCCEx_PeriphCLKConfig+0x61e>
 80035de:	2102      	movs	r1, #2
 80035e0:	f105 0028 	add.w	r0, r5, #40	@ 0x28
 80035e4:	f7ff fc7c 	bl	8002ee0 <RCCEx_PLL3_Config>
 80035e8:	2800      	cmp	r0, #0
 80035ea:	bf18      	it	ne
 80035ec:	2601      	movne	r6, #1
 80035ee:	4a73      	ldr	r2, [pc, #460]	@ (80037bc <HAL_RCCEx_PeriphCLKConfig+0x7ec>)
 80035f0:	f8d5 10a0 	ldr.w	r1, [r5, #160]	@ 0xa0
 80035f4:	6d93      	ldr	r3, [r2, #88]	@ 0x58
 80035f6:	f423 7340 	bic.w	r3, r3, #768	@ 0x300
 80035fa:	430b      	orrs	r3, r1
 80035fc:	6593      	str	r3, [r2, #88]	@ 0x58
 80035fe:	682b      	ldr	r3, [r5, #0]
 8003600:	031b      	lsls	r3, r3, #12
 8003602:	d51b      	bpl.n	800363c <HAL_RCCEx_PeriphCLKConfig+0x66c>
 8003604:	f8d5 10ac 	ldr.w	r1, [r5, #172]	@ 0xac
 8003608:	f5b1 3f80 	cmp.w	r1, #65536	@ 0x10000
 800360c:	f000 813e 	beq.w	800388c <HAL_RCCEx_PeriphCLKConfig+0x8bc>
 8003610:	f5b1 3f00 	cmp.w	r1, #131072	@ 0x20000
 8003614:	d007      	beq.n	8003626 <HAL_RCCEx_PeriphCLKConfig+0x656>
 8003616:	2900      	cmp	r1, #0
 8003618:	f040 813e 	bne.w	8003898 <HAL_RCCEx_PeriphCLKConfig+0x8c8>
 800361c:	f105 0008 	add.w	r0, r5, #8
 8003620:	f7ff fbe6 	bl	8002df0 <RCCEx_PLL2_Config>
 8003624:	4604      	mov	r4, r0
 8003626:	2c00      	cmp	r4, #0
 8003628:	f040 8139 	bne.w	800389e <HAL_RCCEx_PeriphCLKConfig+0x8ce>
 800362c:	4a63      	ldr	r2, [pc, #396]	@ (80037bc <HAL_RCCEx_PeriphCLKConfig+0x7ec>)
 800362e:	f8d5 10ac 	ldr.w	r1, [r5, #172]	@ 0xac
 8003632:	6d93      	ldr	r3, [r2, #88]	@ 0x58
 8003634:	f423 3340 	bic.w	r3, r3, #196608	@ 0x30000
 8003638:	430b      	orrs	r3, r1
 800363a:	6593      	str	r3, [r2, #88]	@ 0x58
 800363c:	682b      	ldr	r3, [r5, #0]
 800363e:	035f      	lsls	r7, r3, #13
 8003640:	d50f      	bpl.n	8003662 <HAL_RCCEx_PeriphCLKConfig+0x692>
 8003642:	f8d5 3090 	ldr.w	r3, [r5, #144]	@ 0x90
 8003646:	f5b3 1f00 	cmp.w	r3, #2097152	@ 0x200000
 800364a:	f000 8139 	beq.w	80038c0 <HAL_RCCEx_PeriphCLKConfig+0x8f0>
 800364e:	f5b3 1f40 	cmp.w	r3, #3145728	@ 0x300000
 8003652:	f000 812b 	beq.w	80038ac <HAL_RCCEx_PeriphCLKConfig+0x8dc>
 8003656:	f5b3 1f80 	cmp.w	r3, #1048576	@ 0x100000
 800365a:	f000 8122 	beq.w	80038a2 <HAL_RCCEx_PeriphCLKConfig+0x8d2>
 800365e:	2601      	movs	r6, #1
 8003660:	4634      	mov	r4, r6
 8003662:	682b      	ldr	r3, [r5, #0]
 8003664:	03d8      	lsls	r0, r3, #15
 8003666:	d509      	bpl.n	800367c <HAL_RCCEx_PeriphCLKConfig+0x6ac>
 8003668:	6d2b      	ldr	r3, [r5, #80]	@ 0x50
 800366a:	2b00      	cmp	r3, #0
 800366c:	f000 8131 	beq.w	80038d2 <HAL_RCCEx_PeriphCLKConfig+0x902>
 8003670:	f5b3 3f80 	cmp.w	r3, #65536	@ 0x10000
 8003674:	f000 813b 	beq.w	80038ee <HAL_RCCEx_PeriphCLKConfig+0x91e>
 8003678:	2601      	movs	r6, #1
 800367a:	4634      	mov	r4, r6
 800367c:	682b      	ldr	r3, [r5, #0]
 800367e:	0099      	lsls	r1, r3, #2
 8003680:	d507      	bpl.n	8003692 <HAL_RCCEx_PeriphCLKConfig+0x6c2>
 8003682:	2102      	movs	r1, #2
 8003684:	f105 0028 	add.w	r0, r5, #40	@ 0x28
 8003688:	f7ff fc2a 	bl	8002ee0 <RCCEx_PLL3_Config>
 800368c:	2800      	cmp	r0, #0
 800368e:	bf18      	it	ne
 8003690:	2601      	movne	r6, #1
 8003692:	e9d5 3100 	ldrd	r3, r1, [r5]
 8003696:	039a      	lsls	r2, r3, #14
 8003698:	f140 8141 	bpl.w	800391e <HAL_RCCEx_PeriphCLKConfig+0x94e>
 800369c:	f8d5 0088 	ldr.w	r0, [r5, #136]	@ 0x88
 80036a0:	f5b0 7f80 	cmp.w	r0, #256	@ 0x100
 80036a4:	f000 813d 	beq.w	8003922 <HAL_RCCEx_PeriphCLKConfig+0x952>
 80036a8:	f200 812a 	bhi.w	8003900 <HAL_RCCEx_PeriphCLKConfig+0x930>
 80036ac:	2800      	cmp	r0, #0
 80036ae:	f000 812d 	beq.w	800390c <HAL_RCCEx_PeriphCLKConfig+0x93c>
 80036b2:	2401      	movs	r4, #1
 80036b4:	02df      	lsls	r7, r3, #11
 80036b6:	d506      	bpl.n	80036c6 <HAL_RCCEx_PeriphCLKConfig+0x6f6>
 80036b8:	4840      	ldr	r0, [pc, #256]	@ (80037bc <HAL_RCCEx_PeriphCLKConfig+0x7ec>)
 80036ba:	6fee      	ldr	r6, [r5, #124]	@ 0x7c
 80036bc:	6d02      	ldr	r2, [r0, #80]	@ 0x50
 80036be:	f022 4200 	bic.w	r2, r2, #2147483648	@ 0x80000000
 80036c2:	4332      	orrs	r2, r6
 80036c4:	6502      	str	r2, [r0, #80]	@ 0x50
 80036c6:	029e      	lsls	r6, r3, #10
 80036c8:	d506      	bpl.n	80036d8 <HAL_RCCEx_PeriphCLKConfig+0x708>
 80036ca:	483c      	ldr	r0, [pc, #240]	@ (80037bc <HAL_RCCEx_PeriphCLKConfig+0x7ec>)
 80036cc:	6f2e      	ldr	r6, [r5, #112]	@ 0x70
 80036ce:	6d02      	ldr	r2, [r0, #80]	@ 0x50
 80036d0:	f022 7280 	bic.w	r2, r2, #16777216	@ 0x1000000
 80036d4:	4332      	orrs	r2, r6
 80036d6:	6502      	str	r2, [r0, #80]	@ 0x50
 80036d8:	0518      	lsls	r0, r3, #20
 80036da:	d506      	bpl.n	80036ea <HAL_RCCEx_PeriphCLKConfig+0x71a>
 80036dc:	4837      	ldr	r0, [pc, #220]	@ (80037bc <HAL_RCCEx_PeriphCLKConfig+0x7ec>)
 80036de:	6f6e      	ldr	r6, [r5, #116]	@ 0x74
 80036e0:	6d82      	ldr	r2, [r0, #88]	@ 0x58
 80036e2:	f022 6200 	bic.w	r2, r2, #134217728	@ 0x8000000
 80036e6:	4332      	orrs	r2, r6
 80036e8:	6582      	str	r2, [r0, #88]	@ 0x58
 80036ea:	005a      	lsls	r2, r3, #1
 80036ec:	d509      	bpl.n	8003702 <HAL_RCCEx_PeriphCLKConfig+0x732>
 80036ee:	4a33      	ldr	r2, [pc, #204]	@ (80037bc <HAL_RCCEx_PeriphCLKConfig+0x7ec>)
 80036f0:	6910      	ldr	r0, [r2, #16]
 80036f2:	f420 4000 	bic.w	r0, r0, #32768	@ 0x8000
 80036f6:	6110      	str	r0, [r2, #16]
 80036f8:	6910      	ldr	r0, [r2, #16]
 80036fa:	f8d5 60b8 	ldr.w	r6, [r5, #184]	@ 0xb8
 80036fe:	4330      	orrs	r0, r6
 8003700:	6110      	str	r0, [r2, #16]
 8003702:	2b00      	cmp	r3, #0
 8003704:	da06      	bge.n	8003714 <HAL_RCCEx_PeriphCLKConfig+0x744>
 8003706:	482d      	ldr	r0, [pc, #180]	@ (80037bc <HAL_RCCEx_PeriphCLKConfig+0x7ec>)
 8003708:	6d6e      	ldr	r6, [r5, #84]	@ 0x54
 800370a:	6cc2      	ldr	r2, [r0, #76]	@ 0x4c
 800370c:	f022 5240 	bic.w	r2, r2, #805306368	@ 0x30000000
 8003710:	4332      	orrs	r2, r6
 8003712:	64c2      	str	r2, [r0, #76]	@ 0x4c
 8003714:	021f      	lsls	r7, r3, #8
 8003716:	d507      	bpl.n	8003728 <HAL_RCCEx_PeriphCLKConfig+0x758>
 8003718:	4a28      	ldr	r2, [pc, #160]	@ (80037bc <HAL_RCCEx_PeriphCLKConfig+0x7ec>)
 800371a:	f8d5 0094 	ldr.w	r0, [r5, #148]	@ 0x94
 800371e:	6d53      	ldr	r3, [r2, #84]	@ 0x54
 8003720:	f423 0340 	bic.w	r3, r3, #12582912	@ 0xc00000
 8003724:	4303      	orrs	r3, r0
 8003726:	6553      	str	r3, [r2, #84]	@ 0x54
 8003728:	07ce      	lsls	r6, r1, #31
 800372a:	d506      	bpl.n	800373a <HAL_RCCEx_PeriphCLKConfig+0x76a>
 800372c:	2100      	movs	r1, #0
 800372e:	f105 0008 	add.w	r0, r5, #8
 8003732:	f7ff fb5d 	bl	8002df0 <RCCEx_PLL2_Config>
 8003736:	4607      	mov	r7, r0
 8003738:	b900      	cbnz	r0, 800373c <HAL_RCCEx_PeriphCLKConfig+0x76c>
 800373a:	4627      	mov	r7, r4
 800373c:	686b      	ldr	r3, [r5, #4]
 800373e:	079c      	lsls	r4, r3, #30
 8003740:	d506      	bpl.n	8003750 <HAL_RCCEx_PeriphCLKConfig+0x780>
 8003742:	2101      	movs	r1, #1
 8003744:	f105 0008 	add.w	r0, r5, #8
 8003748:	f7ff fb52 	bl	8002df0 <RCCEx_PLL2_Config>
 800374c:	4606      	mov	r6, r0
 800374e:	b900      	cbnz	r0, 8003752 <HAL_RCCEx_PeriphCLKConfig+0x782>
 8003750:	463e      	mov	r6, r7
 8003752:	686b      	ldr	r3, [r5, #4]
 8003754:	0758      	lsls	r0, r3, #29
 8003756:	d506      	bpl.n	8003766 <HAL_RCCEx_PeriphCLKConfig+0x796>
 8003758:	2102      	movs	r1, #2
 800375a:	f105 0008 	add.w	r0, r5, #8
 800375e:	f7ff fb47 	bl	8002df0 <RCCEx_PLL2_Config>
 8003762:	4604      	mov	r4, r0
 8003764:	b900      	cbnz	r0, 8003768 <HAL_RCCEx_PeriphCLKConfig+0x798>
 8003766:	4634      	mov	r4, r6
 8003768:	686b      	ldr	r3, [r5, #4]
 800376a:	0719      	lsls	r1, r3, #28
 800376c:	d506      	bpl.n	800377c <HAL_RCCEx_PeriphCLKConfig+0x7ac>
 800376e:	2100      	movs	r1, #0
 8003770:	f105 0028 	add.w	r0, r5, #40	@ 0x28
 8003774:	f7ff fbb4 	bl	8002ee0 <RCCEx_PLL3_Config>
 8003778:	4606      	mov	r6, r0
 800377a:	b900      	cbnz	r0, 800377e <HAL_RCCEx_PeriphCLKConfig+0x7ae>
 800377c:	4626      	mov	r6, r4
 800377e:	686b      	ldr	r3, [r5, #4]
 8003780:	06da      	lsls	r2, r3, #27
 8003782:	d506      	bpl.n	8003792 <HAL_RCCEx_PeriphCLKConfig+0x7c2>
 8003784:	2101      	movs	r1, #1
 8003786:	f105 0028 	add.w	r0, r5, #40	@ 0x28
 800378a:	f7ff fba9 	bl	8002ee0 <RCCEx_PLL3_Config>
 800378e:	4604      	mov	r4, r0
 8003790:	b900      	cbnz	r0, 8003794 <HAL_RCCEx_PeriphCLKConfig+0x7c4>
 8003792:	4634      	mov	r4, r6
 8003794:	686b      	ldr	r3, [r5, #4]
 8003796:	069b      	lsls	r3, r3, #26
 8003798:	f100 80c9 	bmi.w	800392e <HAL_RCCEx_PeriphCLKConfig+0x95e>
 800379c:	1e20      	subs	r0, r4, #0
 800379e:	bf18      	it	ne
 80037a0:	2001      	movne	r0, #1
 80037a2:	e8bd 83f8 	ldmia.w	sp!, {r3, r4, r5, r6, r7, r8, r9, pc}
 80037a6:	2101      	movs	r1, #1
 80037a8:	f105 0028 	add.w	r0, r5, #40	@ 0x28
 80037ac:	f7ff fb98 	bl	8002ee0 <RCCEx_PLL3_Config>
 80037b0:	e6ad      	b.n	800350e <HAL_RCCEx_PeriphCLKConfig+0x53e>
 80037b2:	2601      	movs	r6, #1
 80037b4:	4634      	mov	r4, r6
 80037b6:	e6b6      	b.n	8003526 <HAL_RCCEx_PeriphCLKConfig+0x556>
 80037b8:	4626      	mov	r6, r4
 80037ba:	e6b4      	b.n	8003526 <HAL_RCCEx_PeriphCLKConfig+0x556>
 80037bc:	58024400 	.word	0x58024400
 80037c0:	f023 5280 	bic.w	r2, r3, #268435456	@ 0x10000000
 80037c4:	f1b2 4f80 	cmp.w	r2, #1073741824	@ 0x40000000
 80037c8:	d003      	beq.n	80037d2 <HAL_RCCEx_PeriphCLKConfig+0x802>
 80037ca:	f1b3 5f40 	cmp.w	r3, #805306368	@ 0x30000000
 80037ce:	f47f aebc 	bne.w	800354a <HAL_RCCEx_PeriphCLKConfig+0x57a>
 80037d2:	b9ac      	cbnz	r4, 8003800 <HAL_RCCEx_PeriphCLKConfig+0x830>
 80037d4:	4a5b      	ldr	r2, [pc, #364]	@ (8003944 <HAL_RCCEx_PeriphCLKConfig+0x974>)
 80037d6:	f8d5 1098 	ldr.w	r1, [r5, #152]	@ 0x98
 80037da:	6d53      	ldr	r3, [r2, #84]	@ 0x54
 80037dc:	f023 43e0 	bic.w	r3, r3, #1879048192	@ 0x70000000
 80037e0:	430b      	orrs	r3, r1
 80037e2:	6553      	str	r3, [r2, #84]	@ 0x54
 80037e4:	e6b3      	b.n	800354e <HAL_RCCEx_PeriphCLKConfig+0x57e>
 80037e6:	2100      	movs	r1, #0
 80037e8:	f105 0008 	add.w	r0, r5, #8
 80037ec:	f7ff fb00 	bl	8002df0 <RCCEx_PLL2_Config>
 80037f0:	4604      	mov	r4, r0
 80037f2:	e7ee      	b.n	80037d2 <HAL_RCCEx_PeriphCLKConfig+0x802>
 80037f4:	2102      	movs	r1, #2
 80037f6:	f105 0028 	add.w	r0, r5, #40	@ 0x28
 80037fa:	f7ff fb71 	bl	8002ee0 <RCCEx_PLL3_Config>
 80037fe:	e7f7      	b.n	80037f0 <HAL_RCCEx_PeriphCLKConfig+0x820>
 8003800:	4626      	mov	r6, r4
 8003802:	e6a4      	b.n	800354e <HAL_RCCEx_PeriphCLKConfig+0x57e>
 8003804:	f423 6280 	bic.w	r2, r3, #1024	@ 0x400
 8003808:	f5b2 5f80 	cmp.w	r2, #4096	@ 0x1000
 800380c:	d003      	beq.n	8003816 <HAL_RCCEx_PeriphCLKConfig+0x846>
 800380e:	f5b3 6f40 	cmp.w	r3, #3072	@ 0xc00
 8003812:	f47f aeae 	bne.w	8003572 <HAL_RCCEx_PeriphCLKConfig+0x5a2>
 8003816:	b9ac      	cbnz	r4, 8003844 <HAL_RCCEx_PeriphCLKConfig+0x874>
 8003818:	4a4a      	ldr	r2, [pc, #296]	@ (8003944 <HAL_RCCEx_PeriphCLKConfig+0x974>)
 800381a:	f8d5 10a4 	ldr.w	r1, [r5, #164]	@ 0xa4
 800381e:	6d93      	ldr	r3, [r2, #88]	@ 0x58
 8003820:	f423 53e0 	bic.w	r3, r3, #7168	@ 0x1c00
 8003824:	430b      	orrs	r3, r1
 8003826:	6593      	str	r3, [r2, #88]	@ 0x58
 8003828:	e6a5      	b.n	8003576 <HAL_RCCEx_PeriphCLKConfig+0x5a6>
 800382a:	2100      	movs	r1, #0
 800382c:	f105 0008 	add.w	r0, r5, #8
 8003830:	f7ff fade 	bl	8002df0 <RCCEx_PLL2_Config>
 8003834:	4604      	mov	r4, r0
 8003836:	e7ee      	b.n	8003816 <HAL_RCCEx_PeriphCLKConfig+0x846>
 8003838:	2102      	movs	r1, #2
 800383a:	f105 0028 	add.w	r0, r5, #40	@ 0x28
 800383e:	f7ff fb4f 	bl	8002ee0 <RCCEx_PLL3_Config>
 8003842:	e7f7      	b.n	8003834 <HAL_RCCEx_PeriphCLKConfig+0x864>
 8003844:	4626      	mov	r6, r4
 8003846:	e696      	b.n	8003576 <HAL_RCCEx_PeriphCLKConfig+0x5a6>
 8003848:	f423 5200 	bic.w	r2, r3, #8192	@ 0x2000
 800384c:	f5b2 4f00 	cmp.w	r2, #32768	@ 0x8000
 8003850:	d003      	beq.n	800385a <HAL_RCCEx_PeriphCLKConfig+0x88a>
 8003852:	f5b3 4fc0 	cmp.w	r3, #24576	@ 0x6000
 8003856:	f47f aea0 	bne.w	800359a <HAL_RCCEx_PeriphCLKConfig+0x5ca>
 800385a:	b9ac      	cbnz	r4, 8003888 <HAL_RCCEx_PeriphCLKConfig+0x8b8>
 800385c:	4a39      	ldr	r2, [pc, #228]	@ (8003944 <HAL_RCCEx_PeriphCLKConfig+0x974>)
 800385e:	f8d5 10a8 	ldr.w	r1, [r5, #168]	@ 0xa8
 8003862:	6d93      	ldr	r3, [r2, #88]	@ 0x58
 8003864:	f423 4360 	bic.w	r3, r3, #57344	@ 0xe000
 8003868:	430b      	orrs	r3, r1
 800386a:	6593      	str	r3, [r2, #88]	@ 0x58
 800386c:	e697      	b.n	800359e <HAL_RCCEx_PeriphCLKConfig+0x5ce>
 800386e:	2100      	movs	r1, #0
 8003870:	f105 0008 	add.w	r0, r5, #8
 8003874:	f7ff fabc 	bl	8002df0 <RCCEx_PLL2_Config>
 8003878:	4604      	mov	r4, r0
 800387a:	e7ee      	b.n	800385a <HAL_RCCEx_PeriphCLKConfig+0x88a>
 800387c:	2102      	movs	r1, #2
 800387e:	f105 0028 	add.w	r0, r5, #40	@ 0x28
 8003882:	f7ff fb2d 	bl	8002ee0 <RCCEx_PLL3_Config>
 8003886:	e7f7      	b.n	8003878 <HAL_RCCEx_PeriphCLKConfig+0x8a8>
 8003888:	4626      	mov	r6, r4
 800388a:	e688      	b.n	800359e <HAL_RCCEx_PeriphCLKConfig+0x5ce>
 800388c:	2102      	movs	r1, #2
 800388e:	f105 0028 	add.w	r0, r5, #40	@ 0x28
 8003892:	f7ff fb25 	bl	8002ee0 <RCCEx_PLL3_Config>
 8003896:	e6c5      	b.n	8003624 <HAL_RCCEx_PeriphCLKConfig+0x654>
 8003898:	2601      	movs	r6, #1
 800389a:	4634      	mov	r4, r6
 800389c:	e6ce      	b.n	800363c <HAL_RCCEx_PeriphCLKConfig+0x66c>
 800389e:	4626      	mov	r6, r4
 80038a0:	e6cc      	b.n	800363c <HAL_RCCEx_PeriphCLKConfig+0x66c>
 80038a2:	4a28      	ldr	r2, [pc, #160]	@ (8003944 <HAL_RCCEx_PeriphCLKConfig+0x974>)
 80038a4:	6ad3      	ldr	r3, [r2, #44]	@ 0x2c
 80038a6:	f443 3300 	orr.w	r3, r3, #131072	@ 0x20000
 80038aa:	62d3      	str	r3, [r2, #44]	@ 0x2c
 80038ac:	b97c      	cbnz	r4, 80038ce <HAL_RCCEx_PeriphCLKConfig+0x8fe>
 80038ae:	4a25      	ldr	r2, [pc, #148]	@ (8003944 <HAL_RCCEx_PeriphCLKConfig+0x974>)
 80038b0:	f8d5 1090 	ldr.w	r1, [r5, #144]	@ 0x90
 80038b4:	6d53      	ldr	r3, [r2, #84]	@ 0x54
 80038b6:	f423 1340 	bic.w	r3, r3, #3145728	@ 0x300000
 80038ba:	430b      	orrs	r3, r1
 80038bc:	6553      	str	r3, [r2, #84]	@ 0x54
 80038be:	e6d0      	b.n	8003662 <HAL_RCCEx_PeriphCLKConfig+0x692>
 80038c0:	2101      	movs	r1, #1
 80038c2:	f105 0028 	add.w	r0, r5, #40	@ 0x28
 80038c6:	f7ff fb0b 	bl	8002ee0 <RCCEx_PLL3_Config>
 80038ca:	4604      	mov	r4, r0
 80038cc:	e7ee      	b.n	80038ac <HAL_RCCEx_PeriphCLKConfig+0x8dc>
 80038ce:	4626      	mov	r6, r4
 80038d0:	e6c7      	b.n	8003662 <HAL_RCCEx_PeriphCLKConfig+0x692>
 80038d2:	4a1c      	ldr	r2, [pc, #112]	@ (8003944 <HAL_RCCEx_PeriphCLKConfig+0x974>)
 80038d4:	6ad3      	ldr	r3, [r2, #44]	@ 0x2c
 80038d6:	f443 3300 	orr.w	r3, r3, #131072	@ 0x20000
 80038da:	62d3      	str	r3, [r2, #44]	@ 0x2c
 80038dc:	b974      	cbnz	r4, 80038fc <HAL_RCCEx_PeriphCLKConfig+0x92c>
 80038de:	4a19      	ldr	r2, [pc, #100]	@ (8003944 <HAL_RCCEx_PeriphCLKConfig+0x974>)
 80038e0:	6d29      	ldr	r1, [r5, #80]	@ 0x50
 80038e2:	6cd3      	ldr	r3, [r2, #76]	@ 0x4c
 80038e4:	f423 3380 	bic.w	r3, r3, #65536	@ 0x10000
 80038e8:	430b      	orrs	r3, r1
 80038ea:	64d3      	str	r3, [r2, #76]	@ 0x4c
 80038ec:	e6c6      	b.n	800367c <HAL_RCCEx_PeriphCLKConfig+0x6ac>
 80038ee:	2102      	movs	r1, #2
 80038f0:	f105 0008 	add.w	r0, r5, #8
 80038f4:	f7ff fa7c 	bl	8002df0 <RCCEx_PLL2_Config>
 80038f8:	4604      	mov	r4, r0
 80038fa:	e7ef      	b.n	80038dc <HAL_RCCEx_PeriphCLKConfig+0x90c>
 80038fc:	4626      	mov	r6, r4
 80038fe:	e6bd      	b.n	800367c <HAL_RCCEx_PeriphCLKConfig+0x6ac>
 8003900:	f420 7280 	bic.w	r2, r0, #256	@ 0x100
 8003904:	f5b2 7f00 	cmp.w	r2, #512	@ 0x200
 8003908:	f47f aed3 	bne.w	80036b2 <HAL_RCCEx_PeriphCLKConfig+0x6e2>
 800390c:	2c00      	cmp	r4, #0
 800390e:	f47f aed1 	bne.w	80036b4 <HAL_RCCEx_PeriphCLKConfig+0x6e4>
 8003912:	4c0c      	ldr	r4, [pc, #48]	@ (8003944 <HAL_RCCEx_PeriphCLKConfig+0x974>)
 8003914:	6d62      	ldr	r2, [r4, #84]	@ 0x54
 8003916:	f422 7240 	bic.w	r2, r2, #768	@ 0x300
 800391a:	4302      	orrs	r2, r0
 800391c:	6562      	str	r2, [r4, #84]	@ 0x54
 800391e:	4634      	mov	r4, r6
 8003920:	e6c8      	b.n	80036b4 <HAL_RCCEx_PeriphCLKConfig+0x6e4>
 8003922:	4f08      	ldr	r7, [pc, #32]	@ (8003944 <HAL_RCCEx_PeriphCLKConfig+0x974>)
 8003924:	6afa      	ldr	r2, [r7, #44]	@ 0x2c
 8003926:	f442 3200 	orr.w	r2, r2, #131072	@ 0x20000
 800392a:	62fa      	str	r2, [r7, #44]	@ 0x2c
 800392c:	e7ee      	b.n	800390c <HAL_RCCEx_PeriphCLKConfig+0x93c>
 800392e:	2102      	movs	r1, #2
 8003930:	f105 0028 	add.w	r0, r5, #40	@ 0x28
 8003934:	f7ff fad4 	bl	8002ee0 <RCCEx_PLL3_Config>
 8003938:	2800      	cmp	r0, #0
 800393a:	f43f af2f 	beq.w	800379c <HAL_RCCEx_PeriphCLKConfig+0x7cc>
 800393e:	2001      	movs	r0, #1
 8003940:	e72f      	b.n	80037a2 <HAL_RCCEx_PeriphCLKConfig+0x7d2>
 8003942:	bf00      	nop
 8003944:	58024400 	.word	0x58024400

08003948 <HAL_RCCEx_GetD3PCLK1Freq>:
 8003948:	b508      	push	{r3, lr}
 800394a:	f7ff fa0b 	bl	8002d64 <HAL_RCC_GetHCLKFreq>
 800394e:	4b05      	ldr	r3, [pc, #20]	@ (8003964 <HAL_RCCEx_GetD3PCLK1Freq+0x1c>)
 8003950:	4a05      	ldr	r2, [pc, #20]	@ (8003968 <HAL_RCCEx_GetD3PCLK1Freq+0x20>)
 8003952:	6a1b      	ldr	r3, [r3, #32]
 8003954:	f3c3 1302 	ubfx	r3, r3, #4, #3
 8003958:	5cd3      	ldrb	r3, [r2, r3]
 800395a:	f003 031f 	and.w	r3, r3, #31
 800395e:	40d8      	lsrs	r0, r3
 8003960:	bd08      	pop	{r3, pc}
 8003962:	bf00      	nop
 8003964:	58024400 	.word	0x58024400
 8003968:	08005e63 	.word	0x08005e63

0800396c <HAL_RCCEx_GetPLL2ClockFreq>:
 800396c:	494f      	ldr	r1, [pc, #316]	@ (8003aac <HAL_RCCEx_GetPLL2ClockFreq+0x140>)
 800396e:	b570      	push	{r4, r5, r6, lr}
 8003970:	6a8c      	ldr	r4, [r1, #40]	@ 0x28
 8003972:	6a8e      	ldr	r6, [r1, #40]	@ 0x28
 8003974:	6acd      	ldr	r5, [r1, #44]	@ 0x2c
 8003976:	f416 3f7c 	tst.w	r6, #258048	@ 0x3f000
 800397a:	f3c6 3305 	ubfx	r3, r6, #12, #6
 800397e:	6bca      	ldr	r2, [r1, #60]	@ 0x3c
 8003980:	f000 8090 	beq.w	8003aa4 <HAL_RCCEx_GetPLL2ClockFreq+0x138>
 8003984:	ee07 3a90 	vmov	s15, r3
 8003988:	f3c2 03cc 	ubfx	r3, r2, #3, #13
 800398c:	f3c5 1200 	ubfx	r2, r5, #4, #1
 8003990:	f004 0403 	and.w	r4, r4, #3
 8003994:	eeb8 7ae7 	vcvt.f32.s32	s14, s15
 8003998:	4353      	muls	r3, r2
 800399a:	2c01      	cmp	r4, #1
 800399c:	eeb7 6a00 	vmov.f32	s12, #112	@ 0x3f800000  1.0
 80039a0:	ee06 3a90 	vmov	s13, r3
 80039a4:	eefa 6ae9 	vcvt.f32.s32	s13, s13, #13
 80039a8:	d06e      	beq.n	8003a88 <HAL_RCCEx_GetPLL2ClockFreq+0x11c>
 80039aa:	2c02      	cmp	r4, #2
 80039ac:	d05e      	beq.n	8003a6c <HAL_RCCEx_GetPLL2ClockFreq+0x100>
 80039ae:	2c00      	cmp	r4, #0
 80039b0:	d16a      	bne.n	8003a88 <HAL_RCCEx_GetPLL2ClockFreq+0x11c>
 80039b2:	680b      	ldr	r3, [r1, #0]
 80039b4:	069b      	lsls	r3, r3, #26
 80039b6:	d547      	bpl.n	8003a48 <HAL_RCCEx_GetPLL2ClockFreq+0xdc>
 80039b8:	680a      	ldr	r2, [r1, #0]
 80039ba:	6b8b      	ldr	r3, [r1, #56]	@ 0x38
 80039bc:	f3c2 01c1 	ubfx	r1, r2, #3, #2
 80039c0:	4a3b      	ldr	r2, [pc, #236]	@ (8003ab0 <HAL_RCCEx_GetPLL2ClockFreq+0x144>)
 80039c2:	f3c3 0308 	ubfx	r3, r3, #0, #9
 80039c6:	40ca      	lsrs	r2, r1
 80039c8:	ee07 2a90 	vmov	s15, r2
 80039cc:	eef8 5ae7 	vcvt.f32.s32	s11, s15
 80039d0:	eec5 7a87 	vdiv.f32	s15, s11, s14
 80039d4:	ee07 3a10 	vmov	s14, r3
 80039d8:	eeb8 7ac7 	vcvt.f32.s32	s14, s14
 80039dc:	ee37 7a26 	vadd.f32	s14, s14, s13
 80039e0:	ee37 7a06 	vadd.f32	s14, s14, s12
 80039e4:	ee67 7a87 	vmul.f32	s15, s15, s14
 80039e8:	4a30      	ldr	r2, [pc, #192]	@ (8003aac <HAL_RCCEx_GetPLL2ClockFreq+0x140>)
 80039ea:	6b93      	ldr	r3, [r2, #56]	@ 0x38
 80039ec:	f3c3 2346 	ubfx	r3, r3, #9, #7
 80039f0:	ee07 3a10 	vmov	s14, r3
 80039f4:	eeb8 7ac7 	vcvt.f32.s32	s14, s14
 80039f8:	ee37 7a06 	vadd.f32	s14, s14, s12
 80039fc:	eec7 6a87 	vdiv.f32	s13, s15, s14
 8003a00:	eefc 6ae6 	vcvt.u32.f32	s13, s13
 8003a04:	edc0 6a00 	vstr	s13, [r0]
 8003a08:	6b93      	ldr	r3, [r2, #56]	@ 0x38
 8003a0a:	f3c3 4306 	ubfx	r3, r3, #16, #7
 8003a0e:	ee07 3a10 	vmov	s14, r3
 8003a12:	eeb8 7ac7 	vcvt.f32.s32	s14, s14
 8003a16:	ee37 7a06 	vadd.f32	s14, s14, s12
 8003a1a:	eec7 6a87 	vdiv.f32	s13, s15, s14
 8003a1e:	eefc 6ae6 	vcvt.u32.f32	s13, s13
 8003a22:	edc0 6a01 	vstr	s13, [r0, #4]
 8003a26:	6b93      	ldr	r3, [r2, #56]	@ 0x38
 8003a28:	f3c3 6306 	ubfx	r3, r3, #24, #7
 8003a2c:	ee06 3a90 	vmov	s13, r3
 8003a30:	eef8 6ae6 	vcvt.f32.s32	s13, s13
 8003a34:	ee76 6a86 	vadd.f32	s13, s13, s12
 8003a38:	ee87 7aa6 	vdiv.f32	s14, s15, s13
 8003a3c:	eefc 7ac7 	vcvt.u32.f32	s15, s14
 8003a40:	ee17 3a90 	vmov	r3, s15
 8003a44:	6083      	str	r3, [r0, #8]
 8003a46:	bd70      	pop	{r4, r5, r6, pc}
 8003a48:	6b8b      	ldr	r3, [r1, #56]	@ 0x38
 8003a4a:	eddf 5a1a 	vldr	s11, [pc, #104]	@ 8003ab4 <HAL_RCCEx_GetPLL2ClockFreq+0x148>
 8003a4e:	f3c3 0308 	ubfx	r3, r3, #0, #9
 8003a52:	ee07 3a90 	vmov	s15, r3
 8003a56:	eef8 7ae7 	vcvt.f32.s32	s15, s15
 8003a5a:	ee77 7aa6 	vadd.f32	s15, s15, s13
 8003a5e:	ee77 7a86 	vadd.f32	s15, s15, s12
 8003a62:	eec5 6a87 	vdiv.f32	s13, s11, s14
 8003a66:	ee67 7aa6 	vmul.f32	s15, s15, s13
 8003a6a:	e7bd      	b.n	80039e8 <HAL_RCCEx_GetPLL2ClockFreq+0x7c>
 8003a6c:	6b8b      	ldr	r3, [r1, #56]	@ 0x38
 8003a6e:	eddf 5a12 	vldr	s11, [pc, #72]	@ 8003ab8 <HAL_RCCEx_GetPLL2ClockFreq+0x14c>
 8003a72:	f3c3 0308 	ubfx	r3, r3, #0, #9
 8003a76:	ee07 3a90 	vmov	s15, r3
 8003a7a:	eef8 7ae7 	vcvt.f32.s32	s15, s15
 8003a7e:	ee77 7aa6 	vadd.f32	s15, s15, s13
 8003a82:	ee77 7a86 	vadd.f32	s15, s15, s12
 8003a86:	e7ec      	b.n	8003a62 <HAL_RCCEx_GetPLL2ClockFreq+0xf6>
 8003a88:	6b8b      	ldr	r3, [r1, #56]	@ 0x38
 8003a8a:	eddf 5a0c 	vldr	s11, [pc, #48]	@ 8003abc <HAL_RCCEx_GetPLL2ClockFreq+0x150>
 8003a8e:	f3c3 0308 	ubfx	r3, r3, #0, #9
 8003a92:	ee07 3a90 	vmov	s15, r3
 8003a96:	eef8 7ae7 	vcvt.f32.s32	s15, s15
 8003a9a:	ee77 7aa6 	vadd.f32	s15, s15, s13
 8003a9e:	ee77 7a86 	vadd.f32	s15, s15, s12
 8003aa2:	e7de      	b.n	8003a62 <HAL_RCCEx_GetPLL2ClockFreq+0xf6>
 8003aa4:	e9c0 3300 	strd	r3, r3, [r0]
 8003aa8:	e7cc      	b.n	8003a44 <HAL_RCCEx_GetPLL2ClockFreq+0xd8>
 8003aaa:	bf00      	nop
 8003aac:	58024400 	.word	0x58024400
 8003ab0:	03d09000 	.word	0x03d09000
 8003ab4:	4c742400 	.word	0x4c742400
 8003ab8:	4af42400 	.word	0x4af42400
 8003abc:	4a742400 	.word	0x4a742400

08003ac0 <HAL_RCCEx_GetPLL3ClockFreq>:
 8003ac0:	494f      	ldr	r1, [pc, #316]	@ (8003c00 <HAL_RCCEx_GetPLL3ClockFreq+0x140>)
 8003ac2:	b570      	push	{r4, r5, r6, lr}
 8003ac4:	6a8c      	ldr	r4, [r1, #40]	@ 0x28
 8003ac6:	6a8e      	ldr	r6, [r1, #40]	@ 0x28
 8003ac8:	6acd      	ldr	r5, [r1, #44]	@ 0x2c
 8003aca:	f016 7f7c 	tst.w	r6, #66060288	@ 0x3f00000
 8003ace:	f3c6 5305 	ubfx	r3, r6, #20, #6
 8003ad2:	6c4a      	ldr	r2, [r1, #68]	@ 0x44
 8003ad4:	f000 8090 	beq.w	8003bf8 <HAL_RCCEx_GetPLL3ClockFreq+0x138>
 8003ad8:	ee07 3a90 	vmov	s15, r3
 8003adc:	f3c2 03cc 	ubfx	r3, r2, #3, #13
 8003ae0:	f3c5 2200 	ubfx	r2, r5, #8, #1
 8003ae4:	f004 0403 	and.w	r4, r4, #3
 8003ae8:	eeb8 7ae7 	vcvt.f32.s32	s14, s15
 8003aec:	4353      	muls	r3, r2
 8003aee:	2c01      	cmp	r4, #1
 8003af0:	eeb7 6a00 	vmov.f32	s12, #112	@ 0x3f800000  1.0
 8003af4:	ee06 3a90 	vmov	s13, r3
 8003af8:	eefa 6ae9 	vcvt.f32.s32	s13, s13, #13
 8003afc:	d06e      	beq.n	8003bdc <HAL_RCCEx_GetPLL3ClockFreq+0x11c>
 8003afe:	2c02      	cmp	r4, #2
 8003b00:	d05e      	beq.n	8003bc0 <HAL_RCCEx_GetPLL3ClockFreq+0x100>
 8003b02:	2c00      	cmp	r4, #0
 8003b04:	d16a      	bne.n	8003bdc <HAL_RCCEx_GetPLL3ClockFreq+0x11c>
 8003b06:	680b      	ldr	r3, [r1, #0]
 8003b08:	069b      	lsls	r3, r3, #26
 8003b0a:	d547      	bpl.n	8003b9c <HAL_RCCEx_GetPLL3ClockFreq+0xdc>
 8003b0c:	680a      	ldr	r2, [r1, #0]
 8003b0e:	6c0b      	ldr	r3, [r1, #64]	@ 0x40
 8003b10:	f3c2 01c1 	ubfx	r1, r2, #3, #2
 8003b14:	4a3b      	ldr	r2, [pc, #236]	@ (8003c04 <HAL_RCCEx_GetPLL3ClockFreq+0x144>)
 8003b16:	f3c3 0308 	ubfx	r3, r3, #0, #9
 8003b1a:	40ca      	lsrs	r2, r1
 8003b1c:	ee07 2a90 	vmov	s15, r2
 8003b20:	eef8 5ae7 	vcvt.f32.s32	s11, s15
 8003b24:	eec5 7a87 	vdiv.f32	s15, s11, s14
 8003b28:	ee07 3a10 	vmov	s14, r3
 8003b2c:	eeb8 7ac7 	vcvt.f32.s32	s14, s14
 8003b30:	ee37 7a26 	vadd.f32	s14, s14, s13
 8003b34:	ee37 7a06 	vadd.f32	s14, s14, s12
 8003b38:	ee67 7a87 	vmul.f32	s15, s15, s14
 8003b3c:	4a30      	ldr	r2, [pc, #192]	@ (8003c00 <HAL_RCCEx_GetPLL3ClockFreq+0x140>)
 8003b3e:	6c13      	ldr	r3, [r2, #64]	@ 0x40
 8003b40:	f3c3 2346 	ubfx	r3, r3, #9, #7
 8003b44:	ee07 3a10 	vmov	s14, r3
 8003b48:	eeb8 7ac7 	vcvt.f32.s32	s14, s14
 8003b4c:	ee37 7a06 	vadd.f32	s14, s14, s12
 8003b50:	eec7 6a87 	vdiv.f32	s13, s15, s14
 8003b54:	eefc 6ae6 	vcvt.u32.f32	s13, s13
 8003b58:	edc0 6a00 	vstr	s13, [r0]
 8003b5c:	6c13      	ldr	r3, [r2, #64]	@ 0x40
 8003b5e:	f3c3 4306 	ubfx	r3, r3, #16, #7
 8003b62:	ee07 3a10 	vmov	s14, r3
 8003b66:	eeb8 7ac7 	vcvt.f32.s32	s14, s14
 8003b6a:	ee37 7a06 	vadd.f32	s14, s14, s12
 8003b6e:	eec7 6a87 	vdiv.f32	s13, s15, s14
 8003b72:	eefc 6ae6 	vcvt.u32.f32	s13, s13
 8003b76:	edc0 6a01 	vstr	s13, [r0, #4]
 8003b7a:	6c13      	ldr	r3, [r2, #64]	@ 0x40
 8003b7c:	f3c3 6306 	ubfx	r3, r3, #24, #7
 8003b80:	ee06 3a90 	vmov	s13, r3
 8003b84:	eef8 6ae6 	vcvt.f32.s32	s13, s13
 8003b88:	ee76 6a86 	vadd.f32	s13, s13, s12
 8003b8c:	ee87 7aa6 	vdiv.f32	s14, s15, s13
 8003b90:	eefc 7ac7 	vcvt.u32.f32	s15, s14
 8003b94:	ee17 3a90 	vmov	r3, s15
 8003b98:	6083      	str	r3, [r0, #8]
 8003b9a:	bd70      	pop	{r4, r5, r6, pc}
 8003b9c:	6c0b      	ldr	r3, [r1, #64]	@ 0x40
 8003b9e:	eddf 5a1a 	vldr	s11, [pc, #104]	@ 8003c08 <HAL_RCCEx_GetPLL3ClockFreq+0x148>
 8003ba2:	f3c3 0308 	ubfx	r3, r3, #0, #9
 8003ba6:	ee07 3a90 	vmov	s15, r3
 8003baa:	eef8 7ae7 	vcvt.f32.s32	s15, s15
 8003bae:	ee77 7aa6 	vadd.f32	s15, s15, s13
 8003bb2:	ee77 7a86 	vadd.f32	s15, s15, s12
 8003bb6:	eec5 6a87 	vdiv.f32	s13, s11, s14
 8003bba:	ee67 7aa6 	vmul.f32	s15, s15, s13
 8003bbe:	e7bd      	b.n	8003b3c <HAL_RCCEx_GetPLL3ClockFreq+0x7c>
 8003bc0:	6c0b      	ldr	r3, [r1, #64]	@ 0x40
 8003bc2:	eddf 5a12 	vldr	s11, [pc, #72]	@ 8003c0c <HAL_RCCEx_GetPLL3ClockFreq+0x14c>
 8003bc6:	f3c3 0308 	ubfx	r3, r3, #0, #9
 8003bca:	ee07 3a90 	vmov	s15, r3
 8003bce:	eef8 7ae7 	vcvt.f32.s32	s15, s15
 8003bd2:	ee77 7aa6 	vadd.f32	s15, s15, s13
 8003bd6:	ee77 7a86 	vadd.f32	s15, s15, s12
 8003bda:	e7ec      	b.n	8003bb6 <HAL_RCCEx_GetPLL3ClockFreq+0xf6>
 8003bdc:	6c0b      	ldr	r3, [r1, #64]	@ 0x40
 8003bde:	eddf 5a0c 	vldr	s11, [pc, #48]	@ 8003c10 <HAL_RCCEx_GetPLL3ClockFreq+0x150>
 8003be2:	f3c3 0308 	ubfx	r3, r3, #0, #9
 8003be6:	ee07 3a90 	vmov	s15, r3
 8003bea:	eef8 7ae7 	vcvt.f32.s32	s15, s15
 8003bee:	ee77 7aa6 	vadd.f32	s15, s15, s13
 8003bf2:	ee77 7a86 	vadd.f32	s15, s15, s12
 8003bf6:	e7de      	b.n	8003bb6 <HAL_RCCEx_GetPLL3ClockFreq+0xf6>
 8003bf8:	e9c0 3300 	strd	r3, r3, [r0]
 8003bfc:	e7cc      	b.n	8003b98 <HAL_RCCEx_GetPLL3ClockFreq+0xd8>
 8003bfe:	bf00      	nop
 8003c00:	58024400 	.word	0x58024400
 8003c04:	03d09000 	.word	0x03d09000
 8003c08:	4c742400 	.word	0x4c742400
 8003c0c:	4af42400 	.word	0x4af42400
 8003c10:	4a742400 	.word	0x4a742400

08003c14 <UART_EndRxTransfer>:
 8003c14:	b510      	push	{r4, lr}
 8003c16:	6802      	ldr	r2, [r0, #0]
 8003c18:	e852 3f00 	ldrex	r3, [r2]
 8003c1c:	f423 7390 	bic.w	r3, r3, #288	@ 0x120
 8003c20:	e842 3100 	strex	r1, r3, [r2]
 8003c24:	6802      	ldr	r2, [r0, #0]
 8003c26:	2900      	cmp	r1, #0
 8003c28:	d1f5      	bne.n	8003c16 <UART_EndRxTransfer+0x2>
 8003c2a:	4c0f      	ldr	r4, [pc, #60]	@ (8003c68 <UART_EndRxTransfer+0x54>)
 8003c2c:	f102 0308 	add.w	r3, r2, #8
 8003c30:	e853 3f00 	ldrex	r3, [r3]
 8003c34:	4023      	ands	r3, r4
 8003c36:	f102 0c08 	add.w	ip, r2, #8
 8003c3a:	e84c 3100 	strex	r1, r3, [ip]
 8003c3e:	2900      	cmp	r1, #0
 8003c40:	d1f4      	bne.n	8003c2c <UART_EndRxTransfer+0x18>
 8003c42:	6ec3      	ldr	r3, [r0, #108]	@ 0x6c
 8003c44:	2b01      	cmp	r3, #1
 8003c46:	d107      	bne.n	8003c58 <UART_EndRxTransfer+0x44>
 8003c48:	e852 3f00 	ldrex	r3, [r2]
 8003c4c:	f023 0310 	bic.w	r3, r3, #16
 8003c50:	e842 3100 	strex	r1, r3, [r2]
 8003c54:	2900      	cmp	r1, #0
 8003c56:	d1f7      	bne.n	8003c48 <UART_EndRxTransfer+0x34>
 8003c58:	2320      	movs	r3, #32
 8003c5a:	f8c0 308c 	str.w	r3, [r0, #140]	@ 0x8c
 8003c5e:	2300      	movs	r3, #0
 8003c60:	66c3      	str	r3, [r0, #108]	@ 0x6c
 8003c62:	6743      	str	r3, [r0, #116]	@ 0x74
 8003c64:	bd10      	pop	{r4, pc}
 8003c66:	bf00      	nop
 8003c68:	effffffe 	.word	0xeffffffe

08003c6c <HAL_UART_TxCpltCallback>:
 8003c6c:	4770      	bx	lr

08003c6e <HAL_UART_ErrorCallback>:
 8003c6e:	4770      	bx	lr

08003c70 <UART_DMAAbortOnError>:
 8003c70:	b508      	push	{r3, lr}
 8003c72:	6b80      	ldr	r0, [r0, #56]	@ 0x38
 8003c74:	2300      	movs	r3, #0
 8003c76:	f8a0 305e 	strh.w	r3, [r0, #94]	@ 0x5e
 8003c7a:	f7ff fff8 	bl	8003c6e <HAL_UART_ErrorCallback>
 8003c7e:	bd08      	pop	{r3, pc}

08003c80 <HAL_UARTEx_RxEventCallback>:
 8003c80:	4770      	bx	lr
	...

08003c84 <HAL_UART_IRQHandler>:
 8003c84:	6803      	ldr	r3, [r0, #0]
 8003c86:	e92d 41f0 	stmdb	sp!, {r4, r5, r6, r7, r8, lr}
 8003c8a:	69d9      	ldr	r1, [r3, #28]
 8003c8c:	f640 060f 	movw	r6, #2063	@ 0x80f
 8003c90:	681a      	ldr	r2, [r3, #0]
 8003c92:	4604      	mov	r4, r0
 8003c94:	4231      	tst	r1, r6
 8003c96:	689d      	ldr	r5, [r3, #8]
 8003c98:	d110      	bne.n	8003cbc <HAL_UART_IRQHandler+0x38>
 8003c9a:	068e      	lsls	r6, r1, #26
 8003c9c:	f140 8097 	bpl.w	8003dce <HAL_UART_IRQHandler+0x14a>
 8003ca0:	f002 0620 	and.w	r6, r2, #32
 8003ca4:	f005 5780 	and.w	r7, r5, #268435456	@ 0x10000000
 8003ca8:	433e      	orrs	r6, r7
 8003caa:	f000 8090 	beq.w	8003dce <HAL_UART_IRQHandler+0x14a>
 8003cae:	6f43      	ldr	r3, [r0, #116]	@ 0x74
 8003cb0:	2b00      	cmp	r3, #0
 8003cb2:	f000 8085 	beq.w	8003dc0 <HAL_UART_IRQHandler+0x13c>
 8003cb6:	e8bd 41f0 	ldmia.w	sp!, {r4, r5, r6, r7, r8, lr}
 8003cba:	4718      	bx	r3
 8003cbc:	4ea6      	ldr	r6, [pc, #664]	@ (8003f58 <HAL_UART_IRQHandler+0x2d4>)
 8003cbe:	48a7      	ldr	r0, [pc, #668]	@ (8003f5c <HAL_UART_IRQHandler+0x2d8>)
 8003cc0:	402e      	ands	r6, r5
 8003cc2:	4010      	ands	r0, r2
 8003cc4:	4330      	orrs	r0, r6
 8003cc6:	f000 8082 	beq.w	8003dce <HAL_UART_IRQHandler+0x14a>
 8003cca:	07cf      	lsls	r7, r1, #31
 8003ccc:	d509      	bpl.n	8003ce2 <HAL_UART_IRQHandler+0x5e>
 8003cce:	05d0      	lsls	r0, r2, #23
 8003cd0:	d507      	bpl.n	8003ce2 <HAL_UART_IRQHandler+0x5e>
 8003cd2:	2001      	movs	r0, #1
 8003cd4:	6218      	str	r0, [r3, #32]
 8003cd6:	f8d4 0090 	ldr.w	r0, [r4, #144]	@ 0x90
 8003cda:	f040 0001 	orr.w	r0, r0, #1
 8003cde:	f8c4 0090 	str.w	r0, [r4, #144]	@ 0x90
 8003ce2:	078f      	lsls	r7, r1, #30
 8003ce4:	d509      	bpl.n	8003cfa <HAL_UART_IRQHandler+0x76>
 8003ce6:	07e8      	lsls	r0, r5, #31
 8003ce8:	d507      	bpl.n	8003cfa <HAL_UART_IRQHandler+0x76>
 8003cea:	2002      	movs	r0, #2
 8003cec:	6218      	str	r0, [r3, #32]
 8003cee:	f8d4 0090 	ldr.w	r0, [r4, #144]	@ 0x90
 8003cf2:	f040 0004 	orr.w	r0, r0, #4
 8003cf6:	f8c4 0090 	str.w	r0, [r4, #144]	@ 0x90
 8003cfa:	074f      	lsls	r7, r1, #29
 8003cfc:	d509      	bpl.n	8003d12 <HAL_UART_IRQHandler+0x8e>
 8003cfe:	07e8      	lsls	r0, r5, #31
 8003d00:	d507      	bpl.n	8003d12 <HAL_UART_IRQHandler+0x8e>
 8003d02:	2004      	movs	r0, #4
 8003d04:	6218      	str	r0, [r3, #32]
 8003d06:	f8d4 0090 	ldr.w	r0, [r4, #144]	@ 0x90
 8003d0a:	f040 0002 	orr.w	r0, r0, #2
 8003d0e:	f8c4 0090 	str.w	r0, [r4, #144]	@ 0x90
 8003d12:	070f      	lsls	r7, r1, #28
 8003d14:	d50b      	bpl.n	8003d2e <HAL_UART_IRQHandler+0xaa>
 8003d16:	f002 0020 	and.w	r0, r2, #32
 8003d1a:	4330      	orrs	r0, r6
 8003d1c:	d007      	beq.n	8003d2e <HAL_UART_IRQHandler+0xaa>
 8003d1e:	2008      	movs	r0, #8
 8003d20:	6218      	str	r0, [r3, #32]
 8003d22:	f8d4 0090 	ldr.w	r0, [r4, #144]	@ 0x90
 8003d26:	f040 0008 	orr.w	r0, r0, #8
 8003d2a:	f8c4 0090 	str.w	r0, [r4, #144]	@ 0x90
 8003d2e:	050e      	lsls	r6, r1, #20
 8003d30:	d50a      	bpl.n	8003d48 <HAL_UART_IRQHandler+0xc4>
 8003d32:	0150      	lsls	r0, r2, #5
 8003d34:	d508      	bpl.n	8003d48 <HAL_UART_IRQHandler+0xc4>
 8003d36:	f44f 6000 	mov.w	r0, #2048	@ 0x800
 8003d3a:	6218      	str	r0, [r3, #32]
 8003d3c:	f8d4 3090 	ldr.w	r3, [r4, #144]	@ 0x90
 8003d40:	f043 0320 	orr.w	r3, r3, #32
 8003d44:	f8c4 3090 	str.w	r3, [r4, #144]	@ 0x90
 8003d48:	f8d4 3090 	ldr.w	r3, [r4, #144]	@ 0x90
 8003d4c:	2b00      	cmp	r3, #0
 8003d4e:	d037      	beq.n	8003dc0 <HAL_UART_IRQHandler+0x13c>
 8003d50:	068b      	lsls	r3, r1, #26
 8003d52:	d509      	bpl.n	8003d68 <HAL_UART_IRQHandler+0xe4>
 8003d54:	f002 0220 	and.w	r2, r2, #32
 8003d58:	f005 5580 	and.w	r5, r5, #268435456	@ 0x10000000
 8003d5c:	432a      	orrs	r2, r5
 8003d5e:	d003      	beq.n	8003d68 <HAL_UART_IRQHandler+0xe4>
 8003d60:	6f63      	ldr	r3, [r4, #116]	@ 0x74
 8003d62:	b10b      	cbz	r3, 8003d68 <HAL_UART_IRQHandler+0xe4>
 8003d64:	4620      	mov	r0, r4
 8003d66:	4798      	blx	r3
 8003d68:	6826      	ldr	r6, [r4, #0]
 8003d6a:	4620      	mov	r0, r4
 8003d6c:	f8d4 2090 	ldr.w	r2, [r4, #144]	@ 0x90
 8003d70:	68b3      	ldr	r3, [r6, #8]
 8003d72:	f002 0228 	and.w	r2, r2, #40	@ 0x28
 8003d76:	f003 0340 	and.w	r3, r3, #64	@ 0x40
 8003d7a:	ea53 0502 	orrs.w	r5, r3, r2
 8003d7e:	d021      	beq.n	8003dc4 <HAL_UART_IRQHandler+0x140>
 8003d80:	f7ff ff48 	bl	8003c14 <UART_EndRxTransfer>
 8003d84:	68b3      	ldr	r3, [r6, #8]
 8003d86:	065f      	lsls	r7, r3, #25
 8003d88:	d517      	bpl.n	8003dba <HAL_UART_IRQHandler+0x136>
 8003d8a:	6822      	ldr	r2, [r4, #0]
 8003d8c:	f102 0308 	add.w	r3, r2, #8
 8003d90:	e853 3f00 	ldrex	r3, [r3]
 8003d94:	f023 0340 	bic.w	r3, r3, #64	@ 0x40
 8003d98:	3208      	adds	r2, #8
 8003d9a:	e842 3100 	strex	r1, r3, [r2]
 8003d9e:	2900      	cmp	r1, #0
 8003da0:	d1f3      	bne.n	8003d8a <HAL_UART_IRQHandler+0x106>
 8003da2:	f8d4 0080 	ldr.w	r0, [r4, #128]	@ 0x80
 8003da6:	b140      	cbz	r0, 8003dba <HAL_UART_IRQHandler+0x136>
 8003da8:	4b6d      	ldr	r3, [pc, #436]	@ (8003f60 <HAL_UART_IRQHandler+0x2dc>)
 8003daa:	6503      	str	r3, [r0, #80]	@ 0x50
 8003dac:	f7fe f9b0 	bl	8002110 <HAL_DMA_Abort_IT>
 8003db0:	b130      	cbz	r0, 8003dc0 <HAL_UART_IRQHandler+0x13c>
 8003db2:	f8d4 0080 	ldr.w	r0, [r4, #128]	@ 0x80
 8003db6:	6d03      	ldr	r3, [r0, #80]	@ 0x50
 8003db8:	e77d      	b.n	8003cb6 <HAL_UART_IRQHandler+0x32>
 8003dba:	4620      	mov	r0, r4
 8003dbc:	f7ff ff57 	bl	8003c6e <HAL_UART_ErrorCallback>
 8003dc0:	e8bd 81f0 	ldmia.w	sp!, {r4, r5, r6, r7, r8, pc}
 8003dc4:	f7ff ff53 	bl	8003c6e <HAL_UART_ErrorCallback>
 8003dc8:	f8c4 5090 	str.w	r5, [r4, #144]	@ 0x90
 8003dcc:	e7f8      	b.n	8003dc0 <HAL_UART_IRQHandler+0x13c>
 8003dce:	6ee0      	ldr	r0, [r4, #108]	@ 0x6c
 8003dd0:	2801      	cmp	r0, #1
 8003dd2:	f040 80b5 	bne.w	8003f40 <HAL_UART_IRQHandler+0x2bc>
 8003dd6:	06ce      	lsls	r6, r1, #27
 8003dd8:	f140 80b2 	bpl.w	8003f40 <HAL_UART_IRQHandler+0x2bc>
 8003ddc:	06d0      	lsls	r0, r2, #27
 8003dde:	f140 80af 	bpl.w	8003f40 <HAL_UART_IRQHandler+0x2bc>
 8003de2:	2210      	movs	r2, #16
 8003de4:	f8b4 005c 	ldrh.w	r0, [r4, #92]	@ 0x5c
 8003de8:	621a      	str	r2, [r3, #32]
 8003dea:	689a      	ldr	r2, [r3, #8]
 8003dec:	0652      	lsls	r2, r2, #25
 8003dee:	d577      	bpl.n	8003ee0 <HAL_UART_IRQHandler+0x25c>
 8003df0:	f8d4 5080 	ldr.w	r5, [r4, #128]	@ 0x80
 8003df4:	495b      	ldr	r1, [pc, #364]	@ (8003f64 <HAL_UART_IRQHandler+0x2e0>)
 8003df6:	682a      	ldr	r2, [r5, #0]
 8003df8:	428a      	cmp	r2, r1
 8003dfa:	d01e      	beq.n	8003e3a <HAL_UART_IRQHandler+0x1b6>
 8003dfc:	3118      	adds	r1, #24
 8003dfe:	428a      	cmp	r2, r1
 8003e00:	d01b      	beq.n	8003e3a <HAL_UART_IRQHandler+0x1b6>
 8003e02:	3118      	adds	r1, #24
 8003e04:	428a      	cmp	r2, r1
 8003e06:	d018      	beq.n	8003e3a <HAL_UART_IRQHandler+0x1b6>
 8003e08:	3118      	adds	r1, #24
 8003e0a:	428a      	cmp	r2, r1
 8003e0c:	d015      	beq.n	8003e3a <HAL_UART_IRQHandler+0x1b6>
 8003e0e:	3118      	adds	r1, #24
 8003e10:	428a      	cmp	r2, r1
 8003e12:	d012      	beq.n	8003e3a <HAL_UART_IRQHandler+0x1b6>
 8003e14:	3118      	adds	r1, #24
 8003e16:	428a      	cmp	r2, r1
 8003e18:	d00f      	beq.n	8003e3a <HAL_UART_IRQHandler+0x1b6>
 8003e1a:	3118      	adds	r1, #24
 8003e1c:	428a      	cmp	r2, r1
 8003e1e:	d00c      	beq.n	8003e3a <HAL_UART_IRQHandler+0x1b6>
 8003e20:	3118      	adds	r1, #24
 8003e22:	428a      	cmp	r2, r1
 8003e24:	d009      	beq.n	8003e3a <HAL_UART_IRQHandler+0x1b6>
 8003e26:	f501 7156 	add.w	r1, r1, #856	@ 0x358
 8003e2a:	428a      	cmp	r2, r1
 8003e2c:	d005      	beq.n	8003e3a <HAL_UART_IRQHandler+0x1b6>
 8003e2e:	3118      	adds	r1, #24
 8003e30:	428a      	cmp	r2, r1
 8003e32:	d002      	beq.n	8003e3a <HAL_UART_IRQHandler+0x1b6>
 8003e34:	3118      	adds	r1, #24
 8003e36:	428a      	cmp	r2, r1
 8003e38:	d0ff      	beq.n	8003e3a <HAL_UART_IRQHandler+0x1b6>
 8003e3a:	6851      	ldr	r1, [r2, #4]
 8003e3c:	b289      	uxth	r1, r1
 8003e3e:	2900      	cmp	r1, #0
 8003e40:	d043      	beq.n	8003eca <HAL_UART_IRQHandler+0x246>
 8003e42:	4281      	cmp	r1, r0
 8003e44:	d241      	bcs.n	8003eca <HAL_UART_IRQHandler+0x246>
 8003e46:	69ea      	ldr	r2, [r5, #28]
 8003e48:	f8a4 105e 	strh.w	r1, [r4, #94]	@ 0x5e
 8003e4c:	f5b2 7f80 	cmp.w	r2, #256	@ 0x100
 8003e50:	d02f      	beq.n	8003eb2 <HAL_UART_IRQHandler+0x22e>
 8003e52:	e853 2f00 	ldrex	r2, [r3]
 8003e56:	f422 7280 	bic.w	r2, r2, #256	@ 0x100
 8003e5a:	e843 2100 	strex	r1, r2, [r3]
 8003e5e:	2900      	cmp	r1, #0
 8003e60:	d1f7      	bne.n	8003e52 <HAL_UART_IRQHandler+0x1ce>
 8003e62:	f103 0208 	add.w	r2, r3, #8
 8003e66:	e852 2f00 	ldrex	r2, [r2]
 8003e6a:	f022 0201 	bic.w	r2, r2, #1
 8003e6e:	f103 0008 	add.w	r0, r3, #8
 8003e72:	e840 2100 	strex	r1, r2, [r0]
 8003e76:	2900      	cmp	r1, #0
 8003e78:	d1f3      	bne.n	8003e62 <HAL_UART_IRQHandler+0x1de>
 8003e7a:	f103 0208 	add.w	r2, r3, #8
 8003e7e:	e852 2f00 	ldrex	r2, [r2]
 8003e82:	f022 0240 	bic.w	r2, r2, #64	@ 0x40
 8003e86:	f103 0008 	add.w	r0, r3, #8
 8003e8a:	e840 2100 	strex	r1, r2, [r0]
 8003e8e:	2900      	cmp	r1, #0
 8003e90:	d1f3      	bne.n	8003e7a <HAL_UART_IRQHandler+0x1f6>
 8003e92:	2220      	movs	r2, #32
 8003e94:	f8c4 208c 	str.w	r2, [r4, #140]	@ 0x8c
 8003e98:	66e1      	str	r1, [r4, #108]	@ 0x6c
 8003e9a:	e853 2f00 	ldrex	r2, [r3]
 8003e9e:	f022 0210 	bic.w	r2, r2, #16
 8003ea2:	e843 2100 	strex	r1, r2, [r3]
 8003ea6:	2900      	cmp	r1, #0
 8003ea8:	d1f7      	bne.n	8003e9a <HAL_UART_IRQHandler+0x216>
 8003eaa:	f8d4 0080 	ldr.w	r0, [r4, #128]	@ 0x80
 8003eae:	f7fd ff89 	bl	8001dc4 <HAL_DMA_Abort>
 8003eb2:	2302      	movs	r3, #2
 8003eb4:	f8b4 105c 	ldrh.w	r1, [r4, #92]	@ 0x5c
 8003eb8:	6723      	str	r3, [r4, #112]	@ 0x70
 8003eba:	f8b4 305e 	ldrh.w	r3, [r4, #94]	@ 0x5e
 8003ebe:	1ac9      	subs	r1, r1, r3
 8003ec0:	b289      	uxth	r1, r1
 8003ec2:	4620      	mov	r0, r4
 8003ec4:	f7ff fedc 	bl	8003c80 <HAL_UARTEx_RxEventCallback>
 8003ec8:	e77a      	b.n	8003dc0 <HAL_UART_IRQHandler+0x13c>
 8003eca:	4281      	cmp	r1, r0
 8003ecc:	f47f af78 	bne.w	8003dc0 <HAL_UART_IRQHandler+0x13c>
 8003ed0:	69eb      	ldr	r3, [r5, #28]
 8003ed2:	f5b3 7f80 	cmp.w	r3, #256	@ 0x100
 8003ed6:	f47f af73 	bne.w	8003dc0 <HAL_UART_IRQHandler+0x13c>
 8003eda:	2302      	movs	r3, #2
 8003edc:	6723      	str	r3, [r4, #112]	@ 0x70
 8003ede:	e7f0      	b.n	8003ec2 <HAL_UART_IRQHandler+0x23e>
 8003ee0:	f8b4 205e 	ldrh.w	r2, [r4, #94]	@ 0x5e
 8003ee4:	f8b4 105e 	ldrh.w	r1, [r4, #94]	@ 0x5e
 8003ee8:	b292      	uxth	r2, r2
 8003eea:	b289      	uxth	r1, r1
 8003eec:	2900      	cmp	r1, #0
 8003eee:	f43f af67 	beq.w	8003dc0 <HAL_UART_IRQHandler+0x13c>
 8003ef2:	1a80      	subs	r0, r0, r2
 8003ef4:	b281      	uxth	r1, r0
 8003ef6:	2900      	cmp	r1, #0
 8003ef8:	f43f af62 	beq.w	8003dc0 <HAL_UART_IRQHandler+0x13c>
 8003efc:	e853 2f00 	ldrex	r2, [r3]
 8003f00:	f422 7290 	bic.w	r2, r2, #288	@ 0x120
 8003f04:	e843 2000 	strex	r0, r2, [r3]
 8003f08:	2800      	cmp	r0, #0
 8003f0a:	d1f7      	bne.n	8003efc <HAL_UART_IRQHandler+0x278>
 8003f0c:	4d16      	ldr	r5, [pc, #88]	@ (8003f68 <HAL_UART_IRQHandler+0x2e4>)
 8003f0e:	f103 0208 	add.w	r2, r3, #8
 8003f12:	e852 2f00 	ldrex	r2, [r2]
 8003f16:	402a      	ands	r2, r5
 8003f18:	f103 0608 	add.w	r6, r3, #8
 8003f1c:	e846 2000 	strex	r0, r2, [r6]
 8003f20:	2800      	cmp	r0, #0
 8003f22:	d1f4      	bne.n	8003f0e <HAL_UART_IRQHandler+0x28a>
 8003f24:	2220      	movs	r2, #32
 8003f26:	6760      	str	r0, [r4, #116]	@ 0x74
 8003f28:	f8c4 208c 	str.w	r2, [r4, #140]	@ 0x8c
 8003f2c:	66e0      	str	r0, [r4, #108]	@ 0x6c
 8003f2e:	e853 2f00 	ldrex	r2, [r3]
 8003f32:	f022 0210 	bic.w	r2, r2, #16
 8003f36:	e843 2000 	strex	r0, r2, [r3]
 8003f3a:	2800      	cmp	r0, #0
 8003f3c:	d1f7      	bne.n	8003f2e <HAL_UART_IRQHandler+0x2aa>
 8003f3e:	e7cc      	b.n	8003eda <HAL_UART_IRQHandler+0x256>
 8003f40:	02cf      	lsls	r7, r1, #11
 8003f42:	d513      	bpl.n	8003f6c <HAL_UART_IRQHandler+0x2e8>
 8003f44:	026e      	lsls	r6, r5, #9
 8003f46:	d511      	bpl.n	8003f6c <HAL_UART_IRQHandler+0x2e8>
 8003f48:	f44f 1280 	mov.w	r2, #1048576	@ 0x100000
 8003f4c:	4620      	mov	r0, r4
 8003f4e:	621a      	str	r2, [r3, #32]
 8003f50:	e8bd 41f0 	ldmia.w	sp!, {r4, r5, r6, r7, r8, lr}
 8003f54:	f000 be8e 	b.w	8004c74 <HAL_UARTEx_WakeupCallback>
 8003f58:	10000001 	.word	0x10000001
 8003f5c:	04000120 	.word	0x04000120
 8003f60:	08003c71 	.word	0x08003c71
 8003f64:	40020010 	.word	0x40020010
 8003f68:	effffffe 	.word	0xeffffffe
 8003f6c:	0608      	lsls	r0, r1, #24
 8003f6e:	d50b      	bpl.n	8003f88 <HAL_UART_IRQHandler+0x304>
 8003f70:	f002 0080 	and.w	r0, r2, #128	@ 0x80
 8003f74:	f405 0500 	and.w	r5, r5, #8388608	@ 0x800000
 8003f78:	4328      	orrs	r0, r5
 8003f7a:	d005      	beq.n	8003f88 <HAL_UART_IRQHandler+0x304>
 8003f7c:	6fa3      	ldr	r3, [r4, #120]	@ 0x78
 8003f7e:	2b00      	cmp	r3, #0
 8003f80:	f43f af1e 	beq.w	8003dc0 <HAL_UART_IRQHandler+0x13c>
 8003f84:	4620      	mov	r0, r4
 8003f86:	e696      	b.n	8003cb6 <HAL_UART_IRQHandler+0x32>
 8003f88:	064f      	lsls	r7, r1, #25
 8003f8a:	d511      	bpl.n	8003fb0 <HAL_UART_IRQHandler+0x32c>
 8003f8c:	0656      	lsls	r6, r2, #25
 8003f8e:	d50f      	bpl.n	8003fb0 <HAL_UART_IRQHandler+0x32c>
 8003f90:	e853 2f00 	ldrex	r2, [r3]
 8003f94:	f022 0240 	bic.w	r2, r2, #64	@ 0x40
 8003f98:	e843 2100 	strex	r1, r2, [r3]
 8003f9c:	2900      	cmp	r1, #0
 8003f9e:	d1f7      	bne.n	8003f90 <HAL_UART_IRQHandler+0x30c>
 8003fa0:	2320      	movs	r3, #32
 8003fa2:	4620      	mov	r0, r4
 8003fa4:	67a1      	str	r1, [r4, #120]	@ 0x78
 8003fa6:	f8c4 3088 	str.w	r3, [r4, #136]	@ 0x88
 8003faa:	f7ff fe5f 	bl	8003c6c <HAL_UART_TxCpltCallback>
 8003fae:	e707      	b.n	8003dc0 <HAL_UART_IRQHandler+0x13c>
 8003fb0:	020d      	lsls	r5, r1, #8
 8003fb2:	d506      	bpl.n	8003fc2 <HAL_UART_IRQHandler+0x33e>
 8003fb4:	0050      	lsls	r0, r2, #1
 8003fb6:	d504      	bpl.n	8003fc2 <HAL_UART_IRQHandler+0x33e>
 8003fb8:	4620      	mov	r0, r4
 8003fba:	e8bd 41f0 	ldmia.w	sp!, {r4, r5, r6, r7, r8, lr}
 8003fbe:	f000 be5b 	b.w	8004c78 <HAL_UARTEx_TxFifoEmptyCallback>
 8003fc2:	01cb      	lsls	r3, r1, #7
 8003fc4:	f57f aefc 	bpl.w	8003dc0 <HAL_UART_IRQHandler+0x13c>
 8003fc8:	2a00      	cmp	r2, #0
 8003fca:	f6bf aef9 	bge.w	8003dc0 <HAL_UART_IRQHandler+0x13c>
 8003fce:	4620      	mov	r0, r4
 8003fd0:	e8bd 41f0 	ldmia.w	sp!, {r4, r5, r6, r7, r8, lr}
 8003fd4:	f000 be4f 	b.w	8004c76 <HAL_UARTEx_RxFifoFullCallback>

08003fd8 <UART_RxISR_8BIT>:
 8003fd8:	f8d0 208c 	ldr.w	r2, [r0, #140]	@ 0x8c
 8003fdc:	f8b0 1060 	ldrh.w	r1, [r0, #96]	@ 0x60
 8003fe0:	2a22      	cmp	r2, #34	@ 0x22
 8003fe2:	b508      	push	{r3, lr}
 8003fe4:	6803      	ldr	r3, [r0, #0]
 8003fe6:	d155      	bne.n	8004094 <UART_RxISR_8BIT+0xbc>
 8003fe8:	6a5b      	ldr	r3, [r3, #36]	@ 0x24
 8003fea:	6d82      	ldr	r2, [r0, #88]	@ 0x58
 8003fec:	400b      	ands	r3, r1
 8003fee:	7013      	strb	r3, [r2, #0]
 8003ff0:	6d83      	ldr	r3, [r0, #88]	@ 0x58
 8003ff2:	3301      	adds	r3, #1
 8003ff4:	6583      	str	r3, [r0, #88]	@ 0x58
 8003ff6:	f8b0 305e 	ldrh.w	r3, [r0, #94]	@ 0x5e
 8003ffa:	3b01      	subs	r3, #1
 8003ffc:	b29b      	uxth	r3, r3
 8003ffe:	f8a0 305e 	strh.w	r3, [r0, #94]	@ 0x5e
 8004002:	f8b0 305e 	ldrh.w	r3, [r0, #94]	@ 0x5e
 8004006:	b29b      	uxth	r3, r3
 8004008:	2b00      	cmp	r3, #0
 800400a:	d142      	bne.n	8004092 <UART_RxISR_8BIT+0xba>
 800400c:	6802      	ldr	r2, [r0, #0]
 800400e:	e852 3f00 	ldrex	r3, [r2]
 8004012:	f423 7390 	bic.w	r3, r3, #288	@ 0x120
 8004016:	e842 3100 	strex	r1, r3, [r2]
 800401a:	6803      	ldr	r3, [r0, #0]
 800401c:	2900      	cmp	r1, #0
 800401e:	d1f5      	bne.n	800400c <UART_RxISR_8BIT+0x34>
 8004020:	f103 0208 	add.w	r2, r3, #8
 8004024:	e852 2f00 	ldrex	r2, [r2]
 8004028:	f022 0201 	bic.w	r2, r2, #1
 800402c:	f103 0c08 	add.w	ip, r3, #8
 8004030:	e84c 2100 	strex	r1, r2, [ip]
 8004034:	2900      	cmp	r1, #0
 8004036:	d1f3      	bne.n	8004020 <UART_RxISR_8BIT+0x48>
 8004038:	2220      	movs	r2, #32
 800403a:	6741      	str	r1, [r0, #116]	@ 0x74
 800403c:	f8c0 208c 	str.w	r2, [r0, #140]	@ 0x8c
 8004040:	4a17      	ldr	r2, [pc, #92]	@ (80040a0 <UART_RxISR_8BIT+0xc8>)
 8004042:	6701      	str	r1, [r0, #112]	@ 0x70
 8004044:	4293      	cmp	r3, r2
 8004046:	d105      	bne.n	8004054 <UART_RxISR_8BIT+0x7c>
 8004048:	6ec2      	ldr	r2, [r0, #108]	@ 0x6c
 800404a:	2a01      	cmp	r2, #1
 800404c:	d00e      	beq.n	800406c <UART_RxISR_8BIT+0x94>
 800404e:	f7fc fc25 	bl	800089c <HAL_UART_RxCpltCallback>
 8004052:	e01e      	b.n	8004092 <UART_RxISR_8BIT+0xba>
 8004054:	685a      	ldr	r2, [r3, #4]
 8004056:	0211      	lsls	r1, r2, #8
 8004058:	d5f6      	bpl.n	8004048 <UART_RxISR_8BIT+0x70>
 800405a:	e853 2f00 	ldrex	r2, [r3]
 800405e:	f022 6280 	bic.w	r2, r2, #67108864	@ 0x4000000
 8004062:	e843 2100 	strex	r1, r2, [r3]
 8004066:	2900      	cmp	r1, #0
 8004068:	d1f7      	bne.n	800405a <UART_RxISR_8BIT+0x82>
 800406a:	e7ed      	b.n	8004048 <UART_RxISR_8BIT+0x70>
 800406c:	2200      	movs	r2, #0
 800406e:	66c2      	str	r2, [r0, #108]	@ 0x6c
 8004070:	e853 2f00 	ldrex	r2, [r3]
 8004074:	f022 0210 	bic.w	r2, r2, #16
 8004078:	e843 2100 	strex	r1, r2, [r3]
 800407c:	2900      	cmp	r1, #0
 800407e:	d1f7      	bne.n	8004070 <UART_RxISR_8BIT+0x98>
 8004080:	69da      	ldr	r2, [r3, #28]
 8004082:	06d2      	lsls	r2, r2, #27
 8004084:	d501      	bpl.n	800408a <UART_RxISR_8BIT+0xb2>
 8004086:	2210      	movs	r2, #16
 8004088:	621a      	str	r2, [r3, #32]
 800408a:	f8b0 105c 	ldrh.w	r1, [r0, #92]	@ 0x5c
 800408e:	f7ff fdf7 	bl	8003c80 <HAL_UARTEx_RxEventCallback>
 8004092:	bd08      	pop	{r3, pc}
 8004094:	699a      	ldr	r2, [r3, #24]
 8004096:	f042 0208 	orr.w	r2, r2, #8
 800409a:	619a      	str	r2, [r3, #24]
 800409c:	e7f9      	b.n	8004092 <UART_RxISR_8BIT+0xba>
 800409e:	bf00      	nop
 80040a0:	58000c00 	.word	0x58000c00

080040a4 <UART_RxISR_16BIT>:
 80040a4:	f8d0 208c 	ldr.w	r2, [r0, #140]	@ 0x8c
 80040a8:	f8b0 1060 	ldrh.w	r1, [r0, #96]	@ 0x60
 80040ac:	2a22      	cmp	r2, #34	@ 0x22
 80040ae:	b508      	push	{r3, lr}
 80040b0:	6803      	ldr	r3, [r0, #0]
 80040b2:	d152      	bne.n	800415a <UART_RxISR_16BIT+0xb6>
 80040b4:	6a5a      	ldr	r2, [r3, #36]	@ 0x24
 80040b6:	4011      	ands	r1, r2
 80040b8:	6d82      	ldr	r2, [r0, #88]	@ 0x58
 80040ba:	f822 1b02 	strh.w	r1, [r2], #2
 80040be:	6582      	str	r2, [r0, #88]	@ 0x58
 80040c0:	f8b0 205e 	ldrh.w	r2, [r0, #94]	@ 0x5e
 80040c4:	3a01      	subs	r2, #1
 80040c6:	b292      	uxth	r2, r2
 80040c8:	f8a0 205e 	strh.w	r2, [r0, #94]	@ 0x5e
 80040cc:	f8b0 205e 	ldrh.w	r2, [r0, #94]	@ 0x5e
 80040d0:	b292      	uxth	r2, r2
 80040d2:	2a00      	cmp	r2, #0
 80040d4:	d140      	bne.n	8004158 <UART_RxISR_16BIT+0xb4>
 80040d6:	e853 2f00 	ldrex	r2, [r3]
 80040da:	f422 7290 	bic.w	r2, r2, #288	@ 0x120
 80040de:	e843 2100 	strex	r1, r2, [r3]
 80040e2:	2900      	cmp	r1, #0
 80040e4:	d1f7      	bne.n	80040d6 <UART_RxISR_16BIT+0x32>
 80040e6:	f103 0208 	add.w	r2, r3, #8
 80040ea:	e852 2f00 	ldrex	r2, [r2]
 80040ee:	f022 0201 	bic.w	r2, r2, #1
 80040f2:	f103 0c08 	add.w	ip, r3, #8
 80040f6:	e84c 2100 	strex	r1, r2, [ip]
 80040fa:	2900      	cmp	r1, #0
 80040fc:	d1f3      	bne.n	80040e6 <UART_RxISR_16BIT+0x42>
 80040fe:	2220      	movs	r2, #32
 8004100:	6741      	str	r1, [r0, #116]	@ 0x74
 8004102:	f8c0 208c 	str.w	r2, [r0, #140]	@ 0x8c
 8004106:	4a17      	ldr	r2, [pc, #92]	@ (8004164 <UART_RxISR_16BIT+0xc0>)
 8004108:	6701      	str	r1, [r0, #112]	@ 0x70
 800410a:	4293      	cmp	r3, r2
 800410c:	d105      	bne.n	800411a <UART_RxISR_16BIT+0x76>
 800410e:	6ec2      	ldr	r2, [r0, #108]	@ 0x6c
 8004110:	2a01      	cmp	r2, #1
 8004112:	d00e      	beq.n	8004132 <UART_RxISR_16BIT+0x8e>
 8004114:	f7fc fbc2 	bl	800089c <HAL_UART_RxCpltCallback>
 8004118:	e01e      	b.n	8004158 <UART_RxISR_16BIT+0xb4>
 800411a:	685a      	ldr	r2, [r3, #4]
 800411c:	0211      	lsls	r1, r2, #8
 800411e:	d5f6      	bpl.n	800410e <UART_RxISR_16BIT+0x6a>
 8004120:	e853 2f00 	ldrex	r2, [r3]
 8004124:	f022 6280 	bic.w	r2, r2, #67108864	@ 0x4000000
 8004128:	e843 2100 	strex	r1, r2, [r3]
 800412c:	2900      	cmp	r1, #0
 800412e:	d1f7      	bne.n	8004120 <UART_RxISR_16BIT+0x7c>
 8004130:	e7ed      	b.n	800410e <UART_RxISR_16BIT+0x6a>
 8004132:	2200      	movs	r2, #0
 8004134:	66c2      	str	r2, [r0, #108]	@ 0x6c
 8004136:	e853 2f00 	ldrex	r2, [r3]
 800413a:	f022 0210 	bic.w	r2, r2, #16
 800413e:	e843 2100 	strex	r1, r2, [r3]
 8004142:	2900      	cmp	r1, #0
 8004144:	d1f7      	bne.n	8004136 <UART_RxISR_16BIT+0x92>
 8004146:	69da      	ldr	r2, [r3, #28]
 8004148:	06d2      	lsls	r2, r2, #27
 800414a:	d501      	bpl.n	8004150 <UART_RxISR_16BIT+0xac>
 800414c:	2210      	movs	r2, #16
 800414e:	621a      	str	r2, [r3, #32]
 8004150:	f8b0 105c 	ldrh.w	r1, [r0, #92]	@ 0x5c
 8004154:	f7ff fd94 	bl	8003c80 <HAL_UARTEx_RxEventCallback>
 8004158:	bd08      	pop	{r3, pc}
 800415a:	699a      	ldr	r2, [r3, #24]
 800415c:	f042 0208 	orr.w	r2, r2, #8
 8004160:	619a      	str	r2, [r3, #24]
 8004162:	e7f9      	b.n	8004158 <UART_RxISR_16BIT+0xb4>
 8004164:	58000c00 	.word	0x58000c00

08004168 <UART_RxISR_8BIT_FIFOEN>:
 8004168:	6803      	ldr	r3, [r0, #0]
 800416a:	e92d 47f0 	stmdb	sp!, {r4, r5, r6, r7, r8, r9, sl, lr}
 800416e:	69dd      	ldr	r5, [r3, #28]
 8004170:	4604      	mov	r4, r0
 8004172:	f8d3 8000 	ldr.w	r8, [r3]
 8004176:	689e      	ldr	r6, [r3, #8]
 8004178:	f8d0 208c 	ldr.w	r2, [r0, #140]	@ 0x8c
 800417c:	f8b0 7060 	ldrh.w	r7, [r0, #96]	@ 0x60
 8004180:	2a22      	cmp	r2, #34	@ 0x22
 8004182:	f040 80b5 	bne.w	80042f0 <UART_RxISR_8BIT_FIFOEN+0x188>
 8004186:	f8b0 3068 	ldrh.w	r3, [r0, #104]	@ 0x68
 800418a:	2b00      	cmp	r3, #0
 800418c:	f000 808b 	beq.w	80042a6 <UART_RxISR_8BIT_FIFOEN+0x13e>
 8004190:	f04f 0900 	mov.w	r9, #0
 8004194:	f006 0601 	and.w	r6, r6, #1
 8004198:	f04f 0a04 	mov.w	sl, #4
 800419c:	06ab      	lsls	r3, r5, #26
 800419e:	f140 8082 	bpl.w	80042a6 <UART_RxISR_8BIT_FIFOEN+0x13e>
 80041a2:	6823      	ldr	r3, [r4, #0]
 80041a4:	6da2      	ldr	r2, [r4, #88]	@ 0x58
 80041a6:	6a5b      	ldr	r3, [r3, #36]	@ 0x24
 80041a8:	403b      	ands	r3, r7
 80041aa:	7013      	strb	r3, [r2, #0]
 80041ac:	6da3      	ldr	r3, [r4, #88]	@ 0x58
 80041ae:	3301      	adds	r3, #1
 80041b0:	65a3      	str	r3, [r4, #88]	@ 0x58
 80041b2:	f8b4 305e 	ldrh.w	r3, [r4, #94]	@ 0x5e
 80041b6:	3b01      	subs	r3, #1
 80041b8:	b29b      	uxth	r3, r3
 80041ba:	f8a4 305e 	strh.w	r3, [r4, #94]	@ 0x5e
 80041be:	6823      	ldr	r3, [r4, #0]
 80041c0:	69dd      	ldr	r5, [r3, #28]
 80041c2:	0768      	lsls	r0, r5, #29
 80041c4:	d02a      	beq.n	800421c <UART_RxISR_8BIT_FIFOEN+0xb4>
 80041c6:	07e9      	lsls	r1, r5, #31
 80041c8:	d50a      	bpl.n	80041e0 <UART_RxISR_8BIT_FIFOEN+0x78>
 80041ca:	f418 7f80 	tst.w	r8, #256	@ 0x100
 80041ce:	d007      	beq.n	80041e0 <UART_RxISR_8BIT_FIFOEN+0x78>
 80041d0:	2201      	movs	r2, #1
 80041d2:	621a      	str	r2, [r3, #32]
 80041d4:	f8d4 2090 	ldr.w	r2, [r4, #144]	@ 0x90
 80041d8:	f042 0201 	orr.w	r2, r2, #1
 80041dc:	f8c4 2090 	str.w	r2, [r4, #144]	@ 0x90
 80041e0:	07aa      	lsls	r2, r5, #30
 80041e2:	d508      	bpl.n	80041f6 <UART_RxISR_8BIT_FIFOEN+0x8e>
 80041e4:	b13e      	cbz	r6, 80041f6 <UART_RxISR_8BIT_FIFOEN+0x8e>
 80041e6:	2202      	movs	r2, #2
 80041e8:	621a      	str	r2, [r3, #32]
 80041ea:	f8d4 2090 	ldr.w	r2, [r4, #144]	@ 0x90
 80041ee:	f042 0204 	orr.w	r2, r2, #4
 80041f2:	f8c4 2090 	str.w	r2, [r4, #144]	@ 0x90
 80041f6:	0768      	lsls	r0, r5, #29
 80041f8:	d508      	bpl.n	800420c <UART_RxISR_8BIT_FIFOEN+0xa4>
 80041fa:	b13e      	cbz	r6, 800420c <UART_RxISR_8BIT_FIFOEN+0xa4>
 80041fc:	f8c3 a020 	str.w	sl, [r3, #32]
 8004200:	f8d4 3090 	ldr.w	r3, [r4, #144]	@ 0x90
 8004204:	f043 0302 	orr.w	r3, r3, #2
 8004208:	f8c4 3090 	str.w	r3, [r4, #144]	@ 0x90
 800420c:	f8d4 3090 	ldr.w	r3, [r4, #144]	@ 0x90
 8004210:	b123      	cbz	r3, 800421c <UART_RxISR_8BIT_FIFOEN+0xb4>
 8004212:	4620      	mov	r0, r4
 8004214:	f7ff fd2b 	bl	8003c6e <HAL_UART_ErrorCallback>
 8004218:	f8c4 9090 	str.w	r9, [r4, #144]	@ 0x90
 800421c:	f8b4 305e 	ldrh.w	r3, [r4, #94]	@ 0x5e
 8004220:	b29b      	uxth	r3, r3
 8004222:	2b00      	cmp	r3, #0
 8004224:	d1ba      	bne.n	800419c <UART_RxISR_8BIT_FIFOEN+0x34>
 8004226:	6822      	ldr	r2, [r4, #0]
 8004228:	e852 3f00 	ldrex	r3, [r2]
 800422c:	f423 7380 	bic.w	r3, r3, #256	@ 0x100
 8004230:	e842 3100 	strex	r1, r3, [r2]
 8004234:	6823      	ldr	r3, [r4, #0]
 8004236:	2900      	cmp	r1, #0
 8004238:	d1f5      	bne.n	8004226 <UART_RxISR_8BIT_FIFOEN+0xbe>
 800423a:	4830      	ldr	r0, [pc, #192]	@ (80042fc <UART_RxISR_8BIT_FIFOEN+0x194>)
 800423c:	f103 0208 	add.w	r2, r3, #8
 8004240:	e852 2f00 	ldrex	r2, [r2]
 8004244:	4002      	ands	r2, r0
 8004246:	f103 0508 	add.w	r5, r3, #8
 800424a:	e845 2100 	strex	r1, r2, [r5]
 800424e:	2900      	cmp	r1, #0
 8004250:	d1f4      	bne.n	800423c <UART_RxISR_8BIT_FIFOEN+0xd4>
 8004252:	2220      	movs	r2, #32
 8004254:	6761      	str	r1, [r4, #116]	@ 0x74
 8004256:	f8c4 208c 	str.w	r2, [r4, #140]	@ 0x8c
 800425a:	4a29      	ldr	r2, [pc, #164]	@ (8004300 <UART_RxISR_8BIT_FIFOEN+0x198>)
 800425c:	6721      	str	r1, [r4, #112]	@ 0x70
 800425e:	4293      	cmp	r3, r2
 8004260:	d00a      	beq.n	8004278 <UART_RxISR_8BIT_FIFOEN+0x110>
 8004262:	685a      	ldr	r2, [r3, #4]
 8004264:	0211      	lsls	r1, r2, #8
 8004266:	d507      	bpl.n	8004278 <UART_RxISR_8BIT_FIFOEN+0x110>
 8004268:	e853 2f00 	ldrex	r2, [r3]
 800426c:	f022 6280 	bic.w	r2, r2, #67108864	@ 0x4000000
 8004270:	e843 2100 	strex	r1, r2, [r3]
 8004274:	2900      	cmp	r1, #0
 8004276:	d1f7      	bne.n	8004268 <UART_RxISR_8BIT_FIFOEN+0x100>
 8004278:	6ee2      	ldr	r2, [r4, #108]	@ 0x6c
 800427a:	2a01      	cmp	r2, #1
 800427c:	d134      	bne.n	80042e8 <UART_RxISR_8BIT_FIFOEN+0x180>
 800427e:	2200      	movs	r2, #0
 8004280:	66e2      	str	r2, [r4, #108]	@ 0x6c
 8004282:	e853 2f00 	ldrex	r2, [r3]
 8004286:	f022 0210 	bic.w	r2, r2, #16
 800428a:	e843 2100 	strex	r1, r2, [r3]
 800428e:	2900      	cmp	r1, #0
 8004290:	d1f7      	bne.n	8004282 <UART_RxISR_8BIT_FIFOEN+0x11a>
 8004292:	69da      	ldr	r2, [r3, #28]
 8004294:	06d2      	lsls	r2, r2, #27
 8004296:	d501      	bpl.n	800429c <UART_RxISR_8BIT_FIFOEN+0x134>
 8004298:	2210      	movs	r2, #16
 800429a:	621a      	str	r2, [r3, #32]
 800429c:	f8b4 105c 	ldrh.w	r1, [r4, #92]	@ 0x5c
 80042a0:	4620      	mov	r0, r4
 80042a2:	f7ff fced 	bl	8003c80 <HAL_UARTEx_RxEventCallback>
 80042a6:	f8b4 305e 	ldrh.w	r3, [r4, #94]	@ 0x5e
 80042aa:	b29b      	uxth	r3, r3
 80042ac:	b1d3      	cbz	r3, 80042e4 <UART_RxISR_8BIT_FIFOEN+0x17c>
 80042ae:	f8b4 2068 	ldrh.w	r2, [r4, #104]	@ 0x68
 80042b2:	429a      	cmp	r2, r3
 80042b4:	d916      	bls.n	80042e4 <UART_RxISR_8BIT_FIFOEN+0x17c>
 80042b6:	6822      	ldr	r2, [r4, #0]
 80042b8:	f102 0308 	add.w	r3, r2, #8
 80042bc:	e853 3f00 	ldrex	r3, [r3]
 80042c0:	f023 5380 	bic.w	r3, r3, #268435456	@ 0x10000000
 80042c4:	3208      	adds	r2, #8
 80042c6:	e842 3100 	strex	r1, r3, [r2]
 80042ca:	6822      	ldr	r2, [r4, #0]
 80042cc:	2900      	cmp	r1, #0
 80042ce:	d1f2      	bne.n	80042b6 <UART_RxISR_8BIT_FIFOEN+0x14e>
 80042d0:	4b0c      	ldr	r3, [pc, #48]	@ (8004304 <UART_RxISR_8BIT_FIFOEN+0x19c>)
 80042d2:	6763      	str	r3, [r4, #116]	@ 0x74
 80042d4:	e852 3f00 	ldrex	r3, [r2]
 80042d8:	f043 0320 	orr.w	r3, r3, #32
 80042dc:	e842 3100 	strex	r1, r3, [r2]
 80042e0:	2900      	cmp	r1, #0
 80042e2:	d1f7      	bne.n	80042d4 <UART_RxISR_8BIT_FIFOEN+0x16c>
 80042e4:	e8bd 87f0 	ldmia.w	sp!, {r4, r5, r6, r7, r8, r9, sl, pc}
 80042e8:	4620      	mov	r0, r4
 80042ea:	f7fc fad7 	bl	800089c <HAL_UART_RxCpltCallback>
 80042ee:	e7da      	b.n	80042a6 <UART_RxISR_8BIT_FIFOEN+0x13e>
 80042f0:	699a      	ldr	r2, [r3, #24]
 80042f2:	f042 0208 	orr.w	r2, r2, #8
 80042f6:	619a      	str	r2, [r3, #24]
 80042f8:	e7f4      	b.n	80042e4 <UART_RxISR_8BIT_FIFOEN+0x17c>
 80042fa:	bf00      	nop
 80042fc:	effffffe 	.word	0xeffffffe
 8004300:	58000c00 	.word	0x58000c00
 8004304:	08003fd9 	.word	0x08003fd9

08004308 <UART_RxISR_16BIT_FIFOEN>:
 8004308:	6803      	ldr	r3, [r0, #0]
 800430a:	e92d 47f0 	stmdb	sp!, {r4, r5, r6, r7, r8, r9, sl, lr}
 800430e:	69dd      	ldr	r5, [r3, #28]
 8004310:	4604      	mov	r4, r0
 8004312:	f8d3 8000 	ldr.w	r8, [r3]
 8004316:	689e      	ldr	r6, [r3, #8]
 8004318:	f8d0 208c 	ldr.w	r2, [r0, #140]	@ 0x8c
 800431c:	f8b0 7060 	ldrh.w	r7, [r0, #96]	@ 0x60
 8004320:	2a22      	cmp	r2, #34	@ 0x22
 8004322:	f040 80b2 	bne.w	800448a <UART_RxISR_16BIT_FIFOEN+0x182>
 8004326:	f8b0 3068 	ldrh.w	r3, [r0, #104]	@ 0x68
 800432a:	2b00      	cmp	r3, #0
 800432c:	f000 8088 	beq.w	8004440 <UART_RxISR_16BIT_FIFOEN+0x138>
 8004330:	f04f 0900 	mov.w	r9, #0
 8004334:	f006 0601 	and.w	r6, r6, #1
 8004338:	f04f 0a04 	mov.w	sl, #4
 800433c:	06ab      	lsls	r3, r5, #26
 800433e:	d57f      	bpl.n	8004440 <UART_RxISR_16BIT_FIFOEN+0x138>
 8004340:	6823      	ldr	r3, [r4, #0]
 8004342:	6da2      	ldr	r2, [r4, #88]	@ 0x58
 8004344:	6a59      	ldr	r1, [r3, #36]	@ 0x24
 8004346:	4039      	ands	r1, r7
 8004348:	f822 1b02 	strh.w	r1, [r2], #2
 800434c:	65a2      	str	r2, [r4, #88]	@ 0x58
 800434e:	f8b4 205e 	ldrh.w	r2, [r4, #94]	@ 0x5e
 8004352:	3a01      	subs	r2, #1
 8004354:	b292      	uxth	r2, r2
 8004356:	f8a4 205e 	strh.w	r2, [r4, #94]	@ 0x5e
 800435a:	69dd      	ldr	r5, [r3, #28]
 800435c:	0768      	lsls	r0, r5, #29
 800435e:	d02a      	beq.n	80043b6 <UART_RxISR_16BIT_FIFOEN+0xae>
 8004360:	07e9      	lsls	r1, r5, #31
 8004362:	d50a      	bpl.n	800437a <UART_RxISR_16BIT_FIFOEN+0x72>
 8004364:	f418 7f80 	tst.w	r8, #256	@ 0x100
 8004368:	d007      	beq.n	800437a <UART_RxISR_16BIT_FIFOEN+0x72>
 800436a:	2201      	movs	r2, #1
 800436c:	621a      	str	r2, [r3, #32]
 800436e:	f8d4 2090 	ldr.w	r2, [r4, #144]	@ 0x90
 8004372:	f042 0201 	orr.w	r2, r2, #1
 8004376:	f8c4 2090 	str.w	r2, [r4, #144]	@ 0x90
 800437a:	07aa      	lsls	r2, r5, #30
 800437c:	d508      	bpl.n	8004390 <UART_RxISR_16BIT_FIFOEN+0x88>
 800437e:	b13e      	cbz	r6, 8004390 <UART_RxISR_16BIT_FIFOEN+0x88>
 8004380:	2202      	movs	r2, #2
 8004382:	621a      	str	r2, [r3, #32]
 8004384:	f8d4 2090 	ldr.w	r2, [r4, #144]	@ 0x90
 8004388:	f042 0204 	orr.w	r2, r2, #4
 800438c:	f8c4 2090 	str.w	r2, [r4, #144]	@ 0x90
 8004390:	0768      	lsls	r0, r5, #29
 8004392:	d508      	bpl.n	80043a6 <UART_RxISR_16BIT_FIFOEN+0x9e>
 8004394:	b13e      	cbz	r6, 80043a6 <UART_RxISR_16BIT_FIFOEN+0x9e>
 8004396:	f8c3 a020 	str.w	sl, [r3, #32]
 800439a:	f8d4 3090 	ldr.w	r3, [r4, #144]	@ 0x90
 800439e:	f043 0302 	orr.w	r3, r3, #2
 80043a2:	f8c4 3090 	str.w	r3, [r4, #144]	@ 0x90
 80043a6:	f8d4 3090 	ldr.w	r3, [r4, #144]	@ 0x90
 80043aa:	b123      	cbz	r3, 80043b6 <UART_RxISR_16BIT_FIFOEN+0xae>
 80043ac:	4620      	mov	r0, r4
 80043ae:	f7ff fc5e 	bl	8003c6e <HAL_UART_ErrorCallback>
 80043b2:	f8c4 9090 	str.w	r9, [r4, #144]	@ 0x90
 80043b6:	f8b4 305e 	ldrh.w	r3, [r4, #94]	@ 0x5e
 80043ba:	b29b      	uxth	r3, r3
 80043bc:	2b00      	cmp	r3, #0
 80043be:	d1bd      	bne.n	800433c <UART_RxISR_16BIT_FIFOEN+0x34>
 80043c0:	6822      	ldr	r2, [r4, #0]
 80043c2:	e852 3f00 	ldrex	r3, [r2]
 80043c6:	f423 7380 	bic.w	r3, r3, #256	@ 0x100
 80043ca:	e842 3100 	strex	r1, r3, [r2]
 80043ce:	6823      	ldr	r3, [r4, #0]
 80043d0:	2900      	cmp	r1, #0
 80043d2:	d1f5      	bne.n	80043c0 <UART_RxISR_16BIT_FIFOEN+0xb8>
 80043d4:	482f      	ldr	r0, [pc, #188]	@ (8004494 <UART_RxISR_16BIT_FIFOEN+0x18c>)
 80043d6:	f103 0208 	add.w	r2, r3, #8
 80043da:	e852 2f00 	ldrex	r2, [r2]
 80043de:	4002      	ands	r2, r0
 80043e0:	f103 0508 	add.w	r5, r3, #8
 80043e4:	e845 2100 	strex	r1, r2, [r5]
 80043e8:	2900      	cmp	r1, #0
 80043ea:	d1f4      	bne.n	80043d6 <UART_RxISR_16BIT_FIFOEN+0xce>
 80043ec:	2220      	movs	r2, #32
 80043ee:	6761      	str	r1, [r4, #116]	@ 0x74
 80043f0:	f8c4 208c 	str.w	r2, [r4, #140]	@ 0x8c
 80043f4:	4a28      	ldr	r2, [pc, #160]	@ (8004498 <UART_RxISR_16BIT_FIFOEN+0x190>)
 80043f6:	6721      	str	r1, [r4, #112]	@ 0x70
 80043f8:	4293      	cmp	r3, r2
 80043fa:	d00a      	beq.n	8004412 <UART_RxISR_16BIT_FIFOEN+0x10a>
 80043fc:	685a      	ldr	r2, [r3, #4]
 80043fe:	0211      	lsls	r1, r2, #8
 8004400:	d507      	bpl.n	8004412 <UART_RxISR_16BIT_FIFOEN+0x10a>
 8004402:	e853 2f00 	ldrex	r2, [r3]
 8004406:	f022 6280 	bic.w	r2, r2, #67108864	@ 0x4000000
 800440a:	e843 2100 	strex	r1, r2, [r3]
 800440e:	2900      	cmp	r1, #0
 8004410:	d1f7      	bne.n	8004402 <UART_RxISR_16BIT_FIFOEN+0xfa>
 8004412:	6ee2      	ldr	r2, [r4, #108]	@ 0x6c
 8004414:	2a01      	cmp	r2, #1
 8004416:	d134      	bne.n	8004482 <UART_RxISR_16BIT_FIFOEN+0x17a>
 8004418:	2200      	movs	r2, #0
 800441a:	66e2      	str	r2, [r4, #108]	@ 0x6c
 800441c:	e853 2f00 	ldrex	r2, [r3]
 8004420:	f022 0210 	bic.w	r2, r2, #16
 8004424:	e843 2100 	strex	r1, r2, [r3]
 8004428:	2900      	cmp	r1, #0
 800442a:	d1f7      	bne.n	800441c <UART_RxISR_16BIT_FIFOEN+0x114>
 800442c:	69da      	ldr	r2, [r3, #28]
 800442e:	06d2      	lsls	r2, r2, #27
 8004430:	d501      	bpl.n	8004436 <UART_RxISR_16BIT_FIFOEN+0x12e>
 8004432:	2210      	movs	r2, #16
 8004434:	621a      	str	r2, [r3, #32]
 8004436:	f8b4 105c 	ldrh.w	r1, [r4, #92]	@ 0x5c
 800443a:	4620      	mov	r0, r4
 800443c:	f7ff fc20 	bl	8003c80 <HAL_UARTEx_RxEventCallback>
 8004440:	f8b4 305e 	ldrh.w	r3, [r4, #94]	@ 0x5e
 8004444:	b29b      	uxth	r3, r3
 8004446:	b1d3      	cbz	r3, 800447e <UART_RxISR_16BIT_FIFOEN+0x176>
 8004448:	f8b4 2068 	ldrh.w	r2, [r4, #104]	@ 0x68
 800444c:	429a      	cmp	r2, r3
 800444e:	d916      	bls.n	800447e <UART_RxISR_16BIT_FIFOEN+0x176>
 8004450:	6822      	ldr	r2, [r4, #0]
 8004452:	f102 0308 	add.w	r3, r2, #8
 8004456:	e853 3f00 	ldrex	r3, [r3]
 800445a:	f023 5380 	bic.w	r3, r3, #268435456	@ 0x10000000
 800445e:	3208      	adds	r2, #8
 8004460:	e842 3100 	strex	r1, r3, [r2]
 8004464:	6822      	ldr	r2, [r4, #0]
 8004466:	2900      	cmp	r1, #0
 8004468:	d1f2      	bne.n	8004450 <UART_RxISR_16BIT_FIFOEN+0x148>
 800446a:	4b0c      	ldr	r3, [pc, #48]	@ (800449c <UART_RxISR_16BIT_FIFOEN+0x194>)
 800446c:	6763      	str	r3, [r4, #116]	@ 0x74
 800446e:	e852 3f00 	ldrex	r3, [r2]
 8004472:	f043 0320 	orr.w	r3, r3, #32
 8004476:	e842 3100 	strex	r1, r3, [r2]
 800447a:	2900      	cmp	r1, #0
 800447c:	d1f7      	bne.n	800446e <UART_RxISR_16BIT_FIFOEN+0x166>
 800447e:	e8bd 87f0 	ldmia.w	sp!, {r4, r5, r6, r7, r8, r9, sl, pc}
 8004482:	4620      	mov	r0, r4
 8004484:	f7fc fa0a 	bl	800089c <HAL_UART_RxCpltCallback>
 8004488:	e7da      	b.n	8004440 <UART_RxISR_16BIT_FIFOEN+0x138>
 800448a:	699a      	ldr	r2, [r3, #24]
 800448c:	f042 0208 	orr.w	r2, r2, #8
 8004490:	619a      	str	r2, [r3, #24]
 8004492:	e7f4      	b.n	800447e <UART_RxISR_16BIT_FIFOEN+0x176>
 8004494:	effffffe 	.word	0xeffffffe
 8004498:	58000c00 	.word	0x58000c00
 800449c:	080040a5 	.word	0x080040a5

080044a0 <UART_SetConfig>:
 80044a0:	b530      	push	{r4, r5, lr}
 80044a2:	4604      	mov	r4, r0
 80044a4:	6803      	ldr	r3, [r0, #0]
 80044a6:	69c0      	ldr	r0, [r0, #28]
 80044a8:	b087      	sub	sp, #28
 80044aa:	6921      	ldr	r1, [r4, #16]
 80044ac:	68a2      	ldr	r2, [r4, #8]
 80044ae:	681d      	ldr	r5, [r3, #0]
 80044b0:	430a      	orrs	r2, r1
 80044b2:	6961      	ldr	r1, [r4, #20]
 80044b4:	430a      	orrs	r2, r1
 80044b6:	49a1      	ldr	r1, [pc, #644]	@ (800473c <UART_SetConfig+0x29c>)
 80044b8:	4302      	orrs	r2, r0
 80044ba:	4029      	ands	r1, r5
 80044bc:	430a      	orrs	r2, r1
 80044be:	68e1      	ldr	r1, [r4, #12]
 80044c0:	601a      	str	r2, [r3, #0]
 80044c2:	685a      	ldr	r2, [r3, #4]
 80044c4:	f422 5240 	bic.w	r2, r2, #12288	@ 0x3000
 80044c8:	430a      	orrs	r2, r1
 80044ca:	69a1      	ldr	r1, [r4, #24]
 80044cc:	605a      	str	r2, [r3, #4]
 80044ce:	4a9c      	ldr	r2, [pc, #624]	@ (8004740 <UART_SetConfig+0x2a0>)
 80044d0:	4293      	cmp	r3, r2
 80044d2:	bf1c      	itt	ne
 80044d4:	6a22      	ldrne	r2, [r4, #32]
 80044d6:	4311      	orrne	r1, r2
 80044d8:	689a      	ldr	r2, [r3, #8]
 80044da:	f022 426e 	bic.w	r2, r2, #3992977408	@ 0xee000000
 80044de:	f422 6230 	bic.w	r2, r2, #2816	@ 0xb00
 80044e2:	430a      	orrs	r2, r1
 80044e4:	6a61      	ldr	r1, [r4, #36]	@ 0x24
 80044e6:	609a      	str	r2, [r3, #8]
 80044e8:	6ada      	ldr	r2, [r3, #44]	@ 0x2c
 80044ea:	f022 020f 	bic.w	r2, r2, #15
 80044ee:	430a      	orrs	r2, r1
 80044f0:	62da      	str	r2, [r3, #44]	@ 0x2c
 80044f2:	4a94      	ldr	r2, [pc, #592]	@ (8004744 <UART_SetConfig+0x2a4>)
 80044f4:	4293      	cmp	r3, r2
 80044f6:	d128      	bne.n	800454a <UART_SetConfig+0xaa>
 80044f8:	4b93      	ldr	r3, [pc, #588]	@ (8004748 <UART_SetConfig+0x2a8>)
 80044fa:	6d5b      	ldr	r3, [r3, #84]	@ 0x54
 80044fc:	f003 0338 	and.w	r3, r3, #56	@ 0x38
 8004500:	2b18      	cmp	r3, #24
 8004502:	f000 813d 	beq.w	8004780 <UART_SetConfig+0x2e0>
 8004506:	d814      	bhi.n	8004532 <UART_SetConfig+0x92>
 8004508:	2b08      	cmp	r3, #8
 800450a:	f000 8160 	beq.w	80047ce <UART_SetConfig+0x32e>
 800450e:	2b10      	cmp	r3, #16
 8004510:	f000 810b 	beq.w	800472a <UART_SetConfig+0x28a>
 8004514:	2b00      	cmp	r3, #0
 8004516:	f000 8102 	beq.w	800471e <UART_SetConfig+0x27e>
 800451a:	2380      	movs	r3, #128	@ 0x80
 800451c:	f5b0 4f00 	cmp.w	r0, #32768	@ 0x8000
 8004520:	f040 80e5 	bne.w	80046ee <UART_SetConfig+0x24e>
 8004524:	2b08      	cmp	r3, #8
 8004526:	d846      	bhi.n	80045b6 <UART_SetConfig+0x116>
 8004528:	4668      	mov	r0, sp
 800452a:	f7ff fa1f 	bl	800396c <HAL_RCCEx_GetPLL2ClockFreq>
 800452e:	9801      	ldr	r0, [sp, #4]
 8004530:	e0f2      	b.n	8004718 <UART_SetConfig+0x278>
 8004532:	2b20      	cmp	r3, #32
 8004534:	f000 8146 	beq.w	80047c4 <UART_SetConfig+0x324>
 8004538:	2b28      	cmp	r3, #40	@ 0x28
 800453a:	d1ee      	bne.n	800451a <UART_SetConfig+0x7a>
 800453c:	f5b0 4f00 	cmp.w	r0, #32768	@ 0x8000
 8004540:	f000 80b9 	beq.w	80046b6 <UART_SetConfig+0x216>
 8004544:	f44f 4000 	mov.w	r0, #32768	@ 0x8000
 8004548:	e127      	b.n	800479a <UART_SetConfig+0x2fa>
 800454a:	4a80      	ldr	r2, [pc, #512]	@ (800474c <UART_SetConfig+0x2ac>)
 800454c:	4293      	cmp	r3, r2
 800454e:	d115      	bne.n	800457c <UART_SetConfig+0xdc>
 8004550:	4b7d      	ldr	r3, [pc, #500]	@ (8004748 <UART_SetConfig+0x2a8>)
 8004552:	6d5b      	ldr	r3, [r3, #84]	@ 0x54
 8004554:	f003 0307 	and.w	r3, r3, #7
 8004558:	2b05      	cmp	r3, #5
 800455a:	d82c      	bhi.n	80045b6 <UART_SetConfig+0x116>
 800455c:	a201      	add	r2, pc, #4	@ (adr r2, 8004564 <UART_SetConfig+0xc4>)
 800455e:	f852 f023 	ldr.w	pc, [r2, r3, lsl #2]
 8004562:	bf00      	nop
 8004564:	0800470f 	.word	0x0800470f
 8004568:	08004695 	.word	0x08004695
 800456c:	0800472b 	.word	0x0800472b
 8004570:	08004781 	.word	0x08004781
 8004574:	080047c5 	.word	0x080047c5
 8004578:	0800453d 	.word	0x0800453d
 800457c:	4a74      	ldr	r2, [pc, #464]	@ (8004750 <UART_SetConfig+0x2b0>)
 800457e:	4293      	cmp	r3, r2
 8004580:	d0e6      	beq.n	8004550 <UART_SetConfig+0xb0>
 8004582:	4a74      	ldr	r2, [pc, #464]	@ (8004754 <UART_SetConfig+0x2b4>)
 8004584:	4293      	cmp	r3, r2
 8004586:	d0e3      	beq.n	8004550 <UART_SetConfig+0xb0>
 8004588:	4a73      	ldr	r2, [pc, #460]	@ (8004758 <UART_SetConfig+0x2b8>)
 800458a:	4293      	cmp	r3, r2
 800458c:	d0e0      	beq.n	8004550 <UART_SetConfig+0xb0>
 800458e:	4a73      	ldr	r2, [pc, #460]	@ (800475c <UART_SetConfig+0x2bc>)
 8004590:	4293      	cmp	r3, r2
 8004592:	d112      	bne.n	80045ba <UART_SetConfig+0x11a>
 8004594:	4b6c      	ldr	r3, [pc, #432]	@ (8004748 <UART_SetConfig+0x2a8>)
 8004596:	6d5b      	ldr	r3, [r3, #84]	@ 0x54
 8004598:	f003 0338 	and.w	r3, r3, #56	@ 0x38
 800459c:	2b18      	cmp	r3, #24
 800459e:	f000 80ef 	beq.w	8004780 <UART_SetConfig+0x2e0>
 80045a2:	d825      	bhi.n	80045f0 <UART_SetConfig+0x150>
 80045a4:	2b08      	cmp	r3, #8
 80045a6:	f000 8112 	beq.w	80047ce <UART_SetConfig+0x32e>
 80045aa:	2b10      	cmp	r3, #16
 80045ac:	f000 80bd 	beq.w	800472a <UART_SetConfig+0x28a>
 80045b0:	2b00      	cmp	r3, #0
 80045b2:	f000 80b4 	beq.w	800471e <UART_SetConfig+0x27e>
 80045b6:	2001      	movs	r0, #1
 80045b8:	e04f      	b.n	800465a <UART_SetConfig+0x1ba>
 80045ba:	4a69      	ldr	r2, [pc, #420]	@ (8004760 <UART_SetConfig+0x2c0>)
 80045bc:	4293      	cmp	r3, r2
 80045be:	d0c7      	beq.n	8004550 <UART_SetConfig+0xb0>
 80045c0:	4a68      	ldr	r2, [pc, #416]	@ (8004764 <UART_SetConfig+0x2c4>)
 80045c2:	4293      	cmp	r3, r2
 80045c4:	d0c4      	beq.n	8004550 <UART_SetConfig+0xb0>
 80045c6:	4a68      	ldr	r2, [pc, #416]	@ (8004768 <UART_SetConfig+0x2c8>)
 80045c8:	4293      	cmp	r3, r2
 80045ca:	d0e3      	beq.n	8004594 <UART_SetConfig+0xf4>
 80045cc:	4a67      	ldr	r2, [pc, #412]	@ (800476c <UART_SetConfig+0x2cc>)
 80045ce:	4293      	cmp	r3, r2
 80045d0:	d0e0      	beq.n	8004594 <UART_SetConfig+0xf4>
 80045d2:	4a5b      	ldr	r2, [pc, #364]	@ (8004740 <UART_SetConfig+0x2a0>)
 80045d4:	4293      	cmp	r3, r2
 80045d6:	d1ee      	bne.n	80045b6 <UART_SetConfig+0x116>
 80045d8:	f502 320e 	add.w	r2, r2, #145408	@ 0x23800
 80045dc:	6d93      	ldr	r3, [r2, #88]	@ 0x58
 80045de:	f003 0307 	and.w	r3, r3, #7
 80045e2:	2b05      	cmp	r3, #5
 80045e4:	d8e7      	bhi.n	80045b6 <UART_SetConfig+0x116>
 80045e6:	e8df f003 	tbb	[pc, r3]
 80045ea:	314f      	.short	0x314f
 80045ec:	52094540 	.word	0x52094540
 80045f0:	2b20      	cmp	r3, #32
 80045f2:	f000 80e7 	beq.w	80047c4 <UART_SetConfig+0x324>
 80045f6:	2b28      	cmp	r3, #40	@ 0x28
 80045f8:	d0a0      	beq.n	800453c <UART_SetConfig+0x9c>
 80045fa:	e7dc      	b.n	80045b6 <UART_SetConfig+0x116>
 80045fc:	485c      	ldr	r0, [pc, #368]	@ (8004770 <UART_SetConfig+0x2d0>)
 80045fe:	4b5d      	ldr	r3, [pc, #372]	@ (8004774 <UART_SetConfig+0x2d4>)
 8004600:	6a62      	ldr	r2, [r4, #36]	@ 0x24
 8004602:	6865      	ldr	r5, [r4, #4]
 8004604:	f833 2012 	ldrh.w	r2, [r3, r2, lsl #1]
 8004608:	eb05 0145 	add.w	r1, r5, r5, lsl #1
 800460c:	fbb0 f3f2 	udiv	r3, r0, r2
 8004610:	4299      	cmp	r1, r3
 8004612:	d8d0      	bhi.n	80045b6 <UART_SetConfig+0x116>
 8004614:	ebb3 3f05 	cmp.w	r3, r5, lsl #12
 8004618:	d8cd      	bhi.n	80045b6 <UART_SetConfig+0x116>
 800461a:	2300      	movs	r3, #0
 800461c:	4619      	mov	r1, r3
 800461e:	f7fb feb7 	bl	8000390 <__aeabi_uldivmod>
 8004622:	462a      	mov	r2, r5
 8004624:	0209      	lsls	r1, r1, #8
 8004626:	086b      	lsrs	r3, r5, #1
 8004628:	ea41 6110 	orr.w	r1, r1, r0, lsr #24
 800462c:	0200      	lsls	r0, r0, #8
 800462e:	18c0      	adds	r0, r0, r3
 8004630:	f04f 0300 	mov.w	r3, #0
 8004634:	f141 0100 	adc.w	r1, r1, #0
 8004638:	f7fb feaa 	bl	8000390 <__aeabi_uldivmod>
 800463c:	4b4e      	ldr	r3, [pc, #312]	@ (8004778 <UART_SetConfig+0x2d8>)
 800463e:	f5a0 7240 	sub.w	r2, r0, #768	@ 0x300
 8004642:	429a      	cmp	r2, r3
 8004644:	d8b7      	bhi.n	80045b6 <UART_SetConfig+0x116>
 8004646:	6823      	ldr	r3, [r4, #0]
 8004648:	60d8      	str	r0, [r3, #12]
 800464a:	e005      	b.n	8004658 <UART_SetConfig+0x1b8>
 800464c:	4668      	mov	r0, sp
 800464e:	f7ff f98d 	bl	800396c <HAL_RCCEx_GetPLL2ClockFreq>
 8004652:	9801      	ldr	r0, [sp, #4]
 8004654:	2800      	cmp	r0, #0
 8004656:	d1d2      	bne.n	80045fe <UART_SetConfig+0x15e>
 8004658:	2000      	movs	r0, #0
 800465a:	f04f 1301 	mov.w	r3, #65537	@ 0x10001
 800465e:	66a3      	str	r3, [r4, #104]	@ 0x68
 8004660:	2300      	movs	r3, #0
 8004662:	e9c4 331d 	strd	r3, r3, [r4, #116]	@ 0x74
 8004666:	b007      	add	sp, #28
 8004668:	bd30      	pop	{r4, r5, pc}
 800466a:	a803      	add	r0, sp, #12
 800466c:	f7ff fa28 	bl	8003ac0 <HAL_RCCEx_GetPLL3ClockFreq>
 8004670:	9804      	ldr	r0, [sp, #16]
 8004672:	e7ef      	b.n	8004654 <UART_SetConfig+0x1b4>
 8004674:	6813      	ldr	r3, [r2, #0]
 8004676:	4841      	ldr	r0, [pc, #260]	@ (800477c <UART_SetConfig+0x2dc>)
 8004678:	f013 0f20 	tst.w	r3, #32
 800467c:	d0bf      	beq.n	80045fe <UART_SetConfig+0x15e>
 800467e:	6813      	ldr	r3, [r2, #0]
 8004680:	f3c3 03c1 	ubfx	r3, r3, #3, #2
 8004684:	40d8      	lsrs	r0, r3
 8004686:	e7ba      	b.n	80045fe <UART_SetConfig+0x15e>
 8004688:	f7ff f95e 	bl	8003948 <HAL_RCCEx_GetD3PCLK1Freq>
 800468c:	e7e2      	b.n	8004654 <UART_SetConfig+0x1b4>
 800468e:	f44f 4000 	mov.w	r0, #32768	@ 0x8000
 8004692:	e7b4      	b.n	80045fe <UART_SetConfig+0x15e>
 8004694:	2304      	movs	r3, #4
 8004696:	e741      	b.n	800451c <UART_SetConfig+0x7c>
 8004698:	a803      	add	r0, sp, #12
 800469a:	f7ff fa11 	bl	8003ac0 <HAL_RCCEx_GetPLL3ClockFreq>
 800469e:	9804      	ldr	r0, [sp, #16]
 80046a0:	e03a      	b.n	8004718 <UART_SetConfig+0x278>
 80046a2:	4b29      	ldr	r3, [pc, #164]	@ (8004748 <UART_SetConfig+0x2a8>)
 80046a4:	4835      	ldr	r0, [pc, #212]	@ (800477c <UART_SetConfig+0x2dc>)
 80046a6:	681a      	ldr	r2, [r3, #0]
 80046a8:	f012 0f20 	tst.w	r2, #32
 80046ac:	d003      	beq.n	80046b6 <UART_SetConfig+0x216>
 80046ae:	681b      	ldr	r3, [r3, #0]
 80046b0:	f3c3 03c1 	ubfx	r3, r3, #3, #2
 80046b4:	40d8      	lsrs	r0, r3
 80046b6:	4b2f      	ldr	r3, [pc, #188]	@ (8004774 <UART_SetConfig+0x2d4>)
 80046b8:	6a62      	ldr	r2, [r4, #36]	@ 0x24
 80046ba:	6861      	ldr	r1, [r4, #4]
 80046bc:	f833 2012 	ldrh.w	r2, [r3, r2, lsl #1]
 80046c0:	084b      	lsrs	r3, r1, #1
 80046c2:	fbb0 f2f2 	udiv	r2, r0, r2
 80046c6:	eb03 0342 	add.w	r3, r3, r2, lsl #1
 80046ca:	f64f 72ef 	movw	r2, #65519	@ 0xffef
 80046ce:	fbb3 f3f1 	udiv	r3, r3, r1
 80046d2:	f1a3 0110 	sub.w	r1, r3, #16
 80046d6:	4291      	cmp	r1, r2
 80046d8:	f63f af6d 	bhi.w	80045b6 <UART_SetConfig+0x116>
 80046dc:	f023 020f 	bic.w	r2, r3, #15
 80046e0:	f3c3 0342 	ubfx	r3, r3, #1, #3
 80046e4:	6821      	ldr	r1, [r4, #0]
 80046e6:	b292      	uxth	r2, r2
 80046e8:	4313      	orrs	r3, r2
 80046ea:	60cb      	str	r3, [r1, #12]
 80046ec:	e7b4      	b.n	8004658 <UART_SetConfig+0x1b8>
 80046ee:	2b08      	cmp	r3, #8
 80046f0:	f63f af61 	bhi.w	80045b6 <UART_SetConfig+0x116>
 80046f4:	4668      	mov	r0, sp
 80046f6:	f7ff f939 	bl	800396c <HAL_RCCEx_GetPLL2ClockFreq>
 80046fa:	9801      	ldr	r0, [sp, #4]
 80046fc:	e001      	b.n	8004702 <UART_SetConfig+0x262>
 80046fe:	f7fe fb53 	bl	8002da8 <HAL_RCC_GetPCLK1Freq>
 8004702:	2800      	cmp	r0, #0
 8004704:	d0a8      	beq.n	8004658 <UART_SetConfig+0x1b8>
 8004706:	e048      	b.n	800479a <UART_SetConfig+0x2fa>
 8004708:	f7fe fb60 	bl	8002dcc <HAL_RCC_GetPCLK2Freq>
 800470c:	e7f9      	b.n	8004702 <UART_SetConfig+0x262>
 800470e:	f5b0 4f00 	cmp.w	r0, #32768	@ 0x8000
 8004712:	d1f4      	bne.n	80046fe <UART_SetConfig+0x25e>
 8004714:	f7fe fb48 	bl	8002da8 <HAL_RCC_GetPCLK1Freq>
 8004718:	2800      	cmp	r0, #0
 800471a:	d09d      	beq.n	8004658 <UART_SetConfig+0x1b8>
 800471c:	e7cb      	b.n	80046b6 <UART_SetConfig+0x216>
 800471e:	f5b0 4f00 	cmp.w	r0, #32768	@ 0x8000
 8004722:	d1f1      	bne.n	8004708 <UART_SetConfig+0x268>
 8004724:	f7fe fb52 	bl	8002dcc <HAL_RCC_GetPCLK2Freq>
 8004728:	e7f6      	b.n	8004718 <UART_SetConfig+0x278>
 800472a:	f5b0 4f00 	cmp.w	r0, #32768	@ 0x8000
 800472e:	d0b3      	beq.n	8004698 <UART_SetConfig+0x1f8>
 8004730:	a803      	add	r0, sp, #12
 8004732:	f7ff f9c5 	bl	8003ac0 <HAL_RCCEx_GetPLL3ClockFreq>
 8004736:	9804      	ldr	r0, [sp, #16]
 8004738:	e7e3      	b.n	8004702 <UART_SetConfig+0x262>
 800473a:	bf00      	nop
 800473c:	cfff69f3 	.word	0xcfff69f3
 8004740:	58000c00 	.word	0x58000c00
 8004744:	40011000 	.word	0x40011000
 8004748:	58024400 	.word	0x58024400
 800474c:	40004400 	.word	0x40004400
 8004750:	40004800 	.word	0x40004800
 8004754:	40004c00 	.word	0x40004c00
 8004758:	40005000 	.word	0x40005000
 800475c:	40011400 	.word	0x40011400
 8004760:	40007800 	.word	0x40007800
 8004764:	40007c00 	.word	0x40007c00
 8004768:	40011800 	.word	0x40011800
 800476c:	40011c00 	.word	0x40011c00
 8004770:	003d0900 	.word	0x003d0900
 8004774:	08005e74 	.word	0x08005e74
 8004778:	000ffcff 	.word	0x000ffcff
 800477c:	03d09000 	.word	0x03d09000
 8004780:	f5b0 4f00 	cmp.w	r0, #32768	@ 0x8000
 8004784:	d08d      	beq.n	80046a2 <UART_SetConfig+0x202>
 8004786:	4b14      	ldr	r3, [pc, #80]	@ (80047d8 <UART_SetConfig+0x338>)
 8004788:	4814      	ldr	r0, [pc, #80]	@ (80047dc <UART_SetConfig+0x33c>)
 800478a:	681a      	ldr	r2, [r3, #0]
 800478c:	f012 0f20 	tst.w	r2, #32
 8004790:	d003      	beq.n	800479a <UART_SetConfig+0x2fa>
 8004792:	681b      	ldr	r3, [r3, #0]
 8004794:	f3c3 03c1 	ubfx	r3, r3, #3, #2
 8004798:	40d8      	lsrs	r0, r3
 800479a:	6a61      	ldr	r1, [r4, #36]	@ 0x24
 800479c:	4b10      	ldr	r3, [pc, #64]	@ (80047e0 <UART_SetConfig+0x340>)
 800479e:	6862      	ldr	r2, [r4, #4]
 80047a0:	f833 3011 	ldrh.w	r3, [r3, r1, lsl #1]
 80047a4:	fbb0 f3f3 	udiv	r3, r0, r3
 80047a8:	eb03 0352 	add.w	r3, r3, r2, lsr #1
 80047ac:	fbb3 f3f2 	udiv	r3, r3, r2
 80047b0:	f64f 72ef 	movw	r2, #65519	@ 0xffef
 80047b4:	f1a3 0110 	sub.w	r1, r3, #16
 80047b8:	4291      	cmp	r1, r2
 80047ba:	f63f aefc 	bhi.w	80045b6 <UART_SetConfig+0x116>
 80047be:	6822      	ldr	r2, [r4, #0]
 80047c0:	60d3      	str	r3, [r2, #12]
 80047c2:	e749      	b.n	8004658 <UART_SetConfig+0x1b8>
 80047c4:	f5b0 4f00 	cmp.w	r0, #32768	@ 0x8000
 80047c8:	4806      	ldr	r0, [pc, #24]	@ (80047e4 <UART_SetConfig+0x344>)
 80047ca:	d1e6      	bne.n	800479a <UART_SetConfig+0x2fa>
 80047cc:	e773      	b.n	80046b6 <UART_SetConfig+0x216>
 80047ce:	f5b0 4f00 	cmp.w	r0, #32768	@ 0x8000
 80047d2:	d18f      	bne.n	80046f4 <UART_SetConfig+0x254>
 80047d4:	e6a8      	b.n	8004528 <UART_SetConfig+0x88>
 80047d6:	bf00      	nop
 80047d8:	58024400 	.word	0x58024400
 80047dc:	03d09000 	.word	0x03d09000
 80047e0:	08005e74 	.word	0x08005e74
 80047e4:	003d0900 	.word	0x003d0900

080047e8 <UART_AdvFeatureConfig>:
 80047e8:	6a83      	ldr	r3, [r0, #40]	@ 0x28
 80047ea:	071a      	lsls	r2, r3, #28
 80047ec:	b510      	push	{r4, lr}
 80047ee:	d506      	bpl.n	80047fe <UART_AdvFeatureConfig+0x16>
 80047f0:	6801      	ldr	r1, [r0, #0]
 80047f2:	6b84      	ldr	r4, [r0, #56]	@ 0x38
 80047f4:	684a      	ldr	r2, [r1, #4]
 80047f6:	f422 4200 	bic.w	r2, r2, #32768	@ 0x8000
 80047fa:	4322      	orrs	r2, r4
 80047fc:	604a      	str	r2, [r1, #4]
 80047fe:	07dc      	lsls	r4, r3, #31
 8004800:	d506      	bpl.n	8004810 <UART_AdvFeatureConfig+0x28>
 8004802:	6801      	ldr	r1, [r0, #0]
 8004804:	6ac4      	ldr	r4, [r0, #44]	@ 0x2c
 8004806:	684a      	ldr	r2, [r1, #4]
 8004808:	f422 3200 	bic.w	r2, r2, #131072	@ 0x20000
 800480c:	4322      	orrs	r2, r4
 800480e:	604a      	str	r2, [r1, #4]
 8004810:	0799      	lsls	r1, r3, #30
 8004812:	d506      	bpl.n	8004822 <UART_AdvFeatureConfig+0x3a>
 8004814:	6801      	ldr	r1, [r0, #0]
 8004816:	6b04      	ldr	r4, [r0, #48]	@ 0x30
 8004818:	684a      	ldr	r2, [r1, #4]
 800481a:	f422 3280 	bic.w	r2, r2, #65536	@ 0x10000
 800481e:	4322      	orrs	r2, r4
 8004820:	604a      	str	r2, [r1, #4]
 8004822:	075a      	lsls	r2, r3, #29
 8004824:	d506      	bpl.n	8004834 <UART_AdvFeatureConfig+0x4c>
 8004826:	6801      	ldr	r1, [r0, #0]
 8004828:	6b44      	ldr	r4, [r0, #52]	@ 0x34
 800482a:	684a      	ldr	r2, [r1, #4]
 800482c:	f422 2280 	bic.w	r2, r2, #262144	@ 0x40000
 8004830:	4322      	orrs	r2, r4
 8004832:	604a      	str	r2, [r1, #4]
 8004834:	06dc      	lsls	r4, r3, #27
 8004836:	d506      	bpl.n	8004846 <UART_AdvFeatureConfig+0x5e>
 8004838:	6801      	ldr	r1, [r0, #0]
 800483a:	6bc4      	ldr	r4, [r0, #60]	@ 0x3c
 800483c:	688a      	ldr	r2, [r1, #8]
 800483e:	f422 5280 	bic.w	r2, r2, #4096	@ 0x1000
 8004842:	4322      	orrs	r2, r4
 8004844:	608a      	str	r2, [r1, #8]
 8004846:	0699      	lsls	r1, r3, #26
 8004848:	d506      	bpl.n	8004858 <UART_AdvFeatureConfig+0x70>
 800484a:	6801      	ldr	r1, [r0, #0]
 800484c:	6c04      	ldr	r4, [r0, #64]	@ 0x40
 800484e:	688a      	ldr	r2, [r1, #8]
 8004850:	f422 5200 	bic.w	r2, r2, #8192	@ 0x2000
 8004854:	4322      	orrs	r2, r4
 8004856:	608a      	str	r2, [r1, #8]
 8004858:	065a      	lsls	r2, r3, #25
 800485a:	d510      	bpl.n	800487e <UART_AdvFeatureConfig+0x96>
 800485c:	6801      	ldr	r1, [r0, #0]
 800485e:	6c44      	ldr	r4, [r0, #68]	@ 0x44
 8004860:	684a      	ldr	r2, [r1, #4]
 8004862:	f5b4 1f80 	cmp.w	r4, #1048576	@ 0x100000
 8004866:	f422 1280 	bic.w	r2, r2, #1048576	@ 0x100000
 800486a:	ea42 0204 	orr.w	r2, r2, r4
 800486e:	604a      	str	r2, [r1, #4]
 8004870:	d105      	bne.n	800487e <UART_AdvFeatureConfig+0x96>
 8004872:	684a      	ldr	r2, [r1, #4]
 8004874:	6c84      	ldr	r4, [r0, #72]	@ 0x48
 8004876:	f422 02c0 	bic.w	r2, r2, #6291456	@ 0x600000
 800487a:	4322      	orrs	r2, r4
 800487c:	604a      	str	r2, [r1, #4]
 800487e:	061b      	lsls	r3, r3, #24
 8004880:	d506      	bpl.n	8004890 <UART_AdvFeatureConfig+0xa8>
 8004882:	6802      	ldr	r2, [r0, #0]
 8004884:	6cc1      	ldr	r1, [r0, #76]	@ 0x4c
 8004886:	6853      	ldr	r3, [r2, #4]
 8004888:	f423 2300 	bic.w	r3, r3, #524288	@ 0x80000
 800488c:	430b      	orrs	r3, r1
 800488e:	6053      	str	r3, [r2, #4]
 8004890:	bd10      	pop	{r4, pc}

08004892 <UART_WaitOnFlagUntilTimeout>:
 8004892:	e92d 43f8 	stmdb	sp!, {r3, r4, r5, r6, r7, r8, r9, lr}
 8004896:	f8dd 9020 	ldr.w	r9, [sp, #32]
 800489a:	4604      	mov	r4, r0
 800489c:	460d      	mov	r5, r1
 800489e:	4617      	mov	r7, r2
 80048a0:	4698      	mov	r8, r3
 80048a2:	6822      	ldr	r2, [r4, #0]
 80048a4:	69d3      	ldr	r3, [r2, #28]
 80048a6:	ea35 0303 	bics.w	r3, r5, r3
 80048aa:	bf0c      	ite	eq
 80048ac:	2301      	moveq	r3, #1
 80048ae:	2300      	movne	r3, #0
 80048b0:	42bb      	cmp	r3, r7
 80048b2:	d001      	beq.n	80048b8 <UART_WaitOnFlagUntilTimeout+0x26>
 80048b4:	2000      	movs	r0, #0
 80048b6:	e022      	b.n	80048fe <UART_WaitOnFlagUntilTimeout+0x6c>
 80048b8:	f1b9 3fff 	cmp.w	r9, #4294967295
 80048bc:	d0f2      	beq.n	80048a4 <UART_WaitOnFlagUntilTimeout+0x12>
 80048be:	f7fd f9b9 	bl	8001c34 <HAL_GetTick>
 80048c2:	eba0 0008 	sub.w	r0, r0, r8
 80048c6:	4548      	cmp	r0, r9
 80048c8:	d829      	bhi.n	800491e <UART_WaitOnFlagUntilTimeout+0x8c>
 80048ca:	f1b9 0f00 	cmp.w	r9, #0
 80048ce:	d026      	beq.n	800491e <UART_WaitOnFlagUntilTimeout+0x8c>
 80048d0:	6821      	ldr	r1, [r4, #0]
 80048d2:	680b      	ldr	r3, [r1, #0]
 80048d4:	075a      	lsls	r2, r3, #29
 80048d6:	d5e4      	bpl.n	80048a2 <UART_WaitOnFlagUntilTimeout+0x10>
 80048d8:	2d80      	cmp	r5, #128	@ 0x80
 80048da:	d0e2      	beq.n	80048a2 <UART_WaitOnFlagUntilTimeout+0x10>
 80048dc:	2d40      	cmp	r5, #64	@ 0x40
 80048de:	d0e0      	beq.n	80048a2 <UART_WaitOnFlagUntilTimeout+0x10>
 80048e0:	69ce      	ldr	r6, [r1, #28]
 80048e2:	f016 0608 	ands.w	r6, r6, #8
 80048e6:	d00c      	beq.n	8004902 <UART_WaitOnFlagUntilTimeout+0x70>
 80048e8:	2508      	movs	r5, #8
 80048ea:	4620      	mov	r0, r4
 80048ec:	620d      	str	r5, [r1, #32]
 80048ee:	f7ff f991 	bl	8003c14 <UART_EndRxTransfer>
 80048f2:	2300      	movs	r3, #0
 80048f4:	2001      	movs	r0, #1
 80048f6:	f8c4 5090 	str.w	r5, [r4, #144]	@ 0x90
 80048fa:	f884 3084 	strb.w	r3, [r4, #132]	@ 0x84
 80048fe:	e8bd 83f8 	ldmia.w	sp!, {r3, r4, r5, r6, r7, r8, r9, pc}
 8004902:	69cb      	ldr	r3, [r1, #28]
 8004904:	051b      	lsls	r3, r3, #20
 8004906:	d5cc      	bpl.n	80048a2 <UART_WaitOnFlagUntilTimeout+0x10>
 8004908:	f44f 6300 	mov.w	r3, #2048	@ 0x800
 800490c:	4620      	mov	r0, r4
 800490e:	620b      	str	r3, [r1, #32]
 8004910:	f7ff f980 	bl	8003c14 <UART_EndRxTransfer>
 8004914:	2320      	movs	r3, #32
 8004916:	f884 6084 	strb.w	r6, [r4, #132]	@ 0x84
 800491a:	f8c4 3090 	str.w	r3, [r4, #144]	@ 0x90
 800491e:	2003      	movs	r0, #3
 8004920:	e7ed      	b.n	80048fe <UART_WaitOnFlagUntilTimeout+0x6c>

08004922 <HAL_UART_Transmit>:
 8004922:	e92d 43f7 	stmdb	sp!, {r0, r1, r2, r4, r5, r6, r7, r8, r9, lr}
 8004926:	4698      	mov	r8, r3
 8004928:	f8d0 3088 	ldr.w	r3, [r0, #136]	@ 0x88
 800492c:	4604      	mov	r4, r0
 800492e:	460e      	mov	r6, r1
 8004930:	2b20      	cmp	r3, #32
 8004932:	4617      	mov	r7, r2
 8004934:	d146      	bne.n	80049c4 <HAL_UART_Transmit+0xa2>
 8004936:	2900      	cmp	r1, #0
 8004938:	d046      	beq.n	80049c8 <HAL_UART_Transmit+0xa6>
 800493a:	2a00      	cmp	r2, #0
 800493c:	d044      	beq.n	80049c8 <HAL_UART_Transmit+0xa6>
 800493e:	2321      	movs	r3, #33	@ 0x21
 8004940:	2500      	movs	r5, #0
 8004942:	f8c0 5090 	str.w	r5, [r0, #144]	@ 0x90
 8004946:	f8c0 3088 	str.w	r3, [r0, #136]	@ 0x88
 800494a:	f7fd f973 	bl	8001c34 <HAL_GetTick>
 800494e:	68a3      	ldr	r3, [r4, #8]
 8004950:	4681      	mov	r9, r0
 8004952:	f8a4 7054 	strh.w	r7, [r4, #84]	@ 0x54
 8004956:	f5b3 5f80 	cmp.w	r3, #4096	@ 0x1000
 800495a:	f8a4 7056 	strh.w	r7, [r4, #86]	@ 0x56
 800495e:	d103      	bne.n	8004968 <HAL_UART_Transmit+0x46>
 8004960:	6923      	ldr	r3, [r4, #16]
 8004962:	b90b      	cbnz	r3, 8004968 <HAL_UART_Transmit+0x46>
 8004964:	4635      	mov	r5, r6
 8004966:	461e      	mov	r6, r3
 8004968:	f8b4 2056 	ldrh.w	r2, [r4, #86]	@ 0x56
 800496c:	464b      	mov	r3, r9
 800496e:	f8cd 8000 	str.w	r8, [sp]
 8004972:	b292      	uxth	r2, r2
 8004974:	b942      	cbnz	r2, 8004988 <HAL_UART_Transmit+0x66>
 8004976:	2140      	movs	r1, #64	@ 0x40
 8004978:	4620      	mov	r0, r4
 800497a:	f7ff ff8a 	bl	8004892 <UART_WaitOnFlagUntilTimeout>
 800497e:	2320      	movs	r3, #32
 8004980:	b948      	cbnz	r0, 8004996 <HAL_UART_Transmit+0x74>
 8004982:	f8c4 3088 	str.w	r3, [r4, #136]	@ 0x88
 8004986:	e009      	b.n	800499c <HAL_UART_Transmit+0x7a>
 8004988:	2200      	movs	r2, #0
 800498a:	2180      	movs	r1, #128	@ 0x80
 800498c:	4620      	mov	r0, r4
 800498e:	f7ff ff80 	bl	8004892 <UART_WaitOnFlagUntilTimeout>
 8004992:	b130      	cbz	r0, 80049a2 <HAL_UART_Transmit+0x80>
 8004994:	2320      	movs	r3, #32
 8004996:	2003      	movs	r0, #3
 8004998:	f8c4 3088 	str.w	r3, [r4, #136]	@ 0x88
 800499c:	b003      	add	sp, #12
 800499e:	e8bd 83f0 	ldmia.w	sp!, {r4, r5, r6, r7, r8, r9, pc}
 80049a2:	6822      	ldr	r2, [r4, #0]
 80049a4:	b95e      	cbnz	r6, 80049be <HAL_UART_Transmit+0x9c>
 80049a6:	f835 3b02 	ldrh.w	r3, [r5], #2
 80049aa:	f3c3 0308 	ubfx	r3, r3, #0, #9
 80049ae:	6293      	str	r3, [r2, #40]	@ 0x28
 80049b0:	f8b4 2056 	ldrh.w	r2, [r4, #86]	@ 0x56
 80049b4:	3a01      	subs	r2, #1
 80049b6:	b292      	uxth	r2, r2
 80049b8:	f8a4 2056 	strh.w	r2, [r4, #86]	@ 0x56
 80049bc:	e7d4      	b.n	8004968 <HAL_UART_Transmit+0x46>
 80049be:	f816 3b01 	ldrb.w	r3, [r6], #1
 80049c2:	e7f4      	b.n	80049ae <HAL_UART_Transmit+0x8c>
 80049c4:	2002      	movs	r0, #2
 80049c6:	e7e9      	b.n	800499c <HAL_UART_Transmit+0x7a>
 80049c8:	2001      	movs	r0, #1
 80049ca:	e7e7      	b.n	800499c <HAL_UART_Transmit+0x7a>

080049cc <UART_CheckIdleState>:
 80049cc:	b573      	push	{r0, r1, r4, r5, r6, lr}
 80049ce:	2600      	movs	r6, #0
 80049d0:	4604      	mov	r4, r0
 80049d2:	f8c0 6090 	str.w	r6, [r0, #144]	@ 0x90
 80049d6:	f7fd f92d 	bl	8001c34 <HAL_GetTick>
 80049da:	6823      	ldr	r3, [r4, #0]
 80049dc:	4605      	mov	r5, r0
 80049de:	681b      	ldr	r3, [r3, #0]
 80049e0:	071a      	lsls	r2, r3, #28
 80049e2:	d51c      	bpl.n	8004a1e <UART_CheckIdleState+0x52>
 80049e4:	f06f 437e 	mvn.w	r3, #4261412864	@ 0xfe000000
 80049e8:	4632      	mov	r2, r6
 80049ea:	f44f 1100 	mov.w	r1, #2097152	@ 0x200000
 80049ee:	9300      	str	r3, [sp, #0]
 80049f0:	4603      	mov	r3, r0
 80049f2:	4620      	mov	r0, r4
 80049f4:	f7ff ff4d 	bl	8004892 <UART_WaitOnFlagUntilTimeout>
 80049f8:	b188      	cbz	r0, 8004a1e <UART_CheckIdleState+0x52>
 80049fa:	6822      	ldr	r2, [r4, #0]
 80049fc:	e852 3f00 	ldrex	r3, [r2]
 8004a00:	f023 0380 	bic.w	r3, r3, #128	@ 0x80
 8004a04:	e842 3100 	strex	r1, r3, [r2]
 8004a08:	2900      	cmp	r1, #0
 8004a0a:	d1f6      	bne.n	80049fa <UART_CheckIdleState+0x2e>
 8004a0c:	2320      	movs	r3, #32
 8004a0e:	f8c4 3088 	str.w	r3, [r4, #136]	@ 0x88
 8004a12:	2003      	movs	r0, #3
 8004a14:	2300      	movs	r3, #0
 8004a16:	f884 3084 	strb.w	r3, [r4, #132]	@ 0x84
 8004a1a:	b002      	add	sp, #8
 8004a1c:	bd70      	pop	{r4, r5, r6, pc}
 8004a1e:	6823      	ldr	r3, [r4, #0]
 8004a20:	681b      	ldr	r3, [r3, #0]
 8004a22:	075b      	lsls	r3, r3, #29
 8004a24:	d524      	bpl.n	8004a70 <UART_CheckIdleState+0xa4>
 8004a26:	f06f 437e 	mvn.w	r3, #4261412864	@ 0xfe000000
 8004a2a:	2200      	movs	r2, #0
 8004a2c:	f44f 0180 	mov.w	r1, #4194304	@ 0x400000
 8004a30:	4620      	mov	r0, r4
 8004a32:	9300      	str	r3, [sp, #0]
 8004a34:	462b      	mov	r3, r5
 8004a36:	f7ff ff2c 	bl	8004892 <UART_WaitOnFlagUntilTimeout>
 8004a3a:	b1c8      	cbz	r0, 8004a70 <UART_CheckIdleState+0xa4>
 8004a3c:	6822      	ldr	r2, [r4, #0]
 8004a3e:	e852 3f00 	ldrex	r3, [r2]
 8004a42:	f423 7390 	bic.w	r3, r3, #288	@ 0x120
 8004a46:	e842 3100 	strex	r1, r3, [r2]
 8004a4a:	6822      	ldr	r2, [r4, #0]
 8004a4c:	2900      	cmp	r1, #0
 8004a4e:	d1f5      	bne.n	8004a3c <UART_CheckIdleState+0x70>
 8004a50:	f102 0308 	add.w	r3, r2, #8
 8004a54:	e853 3f00 	ldrex	r3, [r3]
 8004a58:	f023 0301 	bic.w	r3, r3, #1
 8004a5c:	f102 0008 	add.w	r0, r2, #8
 8004a60:	e840 3100 	strex	r1, r3, [r0]
 8004a64:	2900      	cmp	r1, #0
 8004a66:	d1f3      	bne.n	8004a50 <UART_CheckIdleState+0x84>
 8004a68:	2320      	movs	r3, #32
 8004a6a:	f8c4 308c 	str.w	r3, [r4, #140]	@ 0x8c
 8004a6e:	e7d0      	b.n	8004a12 <UART_CheckIdleState+0x46>
 8004a70:	2320      	movs	r3, #32
 8004a72:	2000      	movs	r0, #0
 8004a74:	f8c4 3088 	str.w	r3, [r4, #136]	@ 0x88
 8004a78:	f8c4 308c 	str.w	r3, [r4, #140]	@ 0x8c
 8004a7c:	66e0      	str	r0, [r4, #108]	@ 0x6c
 8004a7e:	6720      	str	r0, [r4, #112]	@ 0x70
 8004a80:	e7c8      	b.n	8004a14 <UART_CheckIdleState+0x48>

08004a82 <HAL_UART_Init>:
 8004a82:	b510      	push	{r4, lr}
 8004a84:	4604      	mov	r4, r0
 8004a86:	b350      	cbz	r0, 8004ade <HAL_UART_Init+0x5c>
 8004a88:	f8d0 3088 	ldr.w	r3, [r0, #136]	@ 0x88
 8004a8c:	b91b      	cbnz	r3, 8004a96 <HAL_UART_Init+0x14>
 8004a8e:	f880 3084 	strb.w	r3, [r0, #132]	@ 0x84
 8004a92:	f7fc fff1 	bl	8001a78 <HAL_UART_MspInit>
 8004a96:	2324      	movs	r3, #36	@ 0x24
 8004a98:	6822      	ldr	r2, [r4, #0]
 8004a9a:	f8c4 3088 	str.w	r3, [r4, #136]	@ 0x88
 8004a9e:	6813      	ldr	r3, [r2, #0]
 8004aa0:	f023 0301 	bic.w	r3, r3, #1
 8004aa4:	6013      	str	r3, [r2, #0]
 8004aa6:	6aa3      	ldr	r3, [r4, #40]	@ 0x28
 8004aa8:	b113      	cbz	r3, 8004ab0 <HAL_UART_Init+0x2e>
 8004aaa:	4620      	mov	r0, r4
 8004aac:	f7ff fe9c 	bl	80047e8 <UART_AdvFeatureConfig>
 8004ab0:	4620      	mov	r0, r4
 8004ab2:	f7ff fcf5 	bl	80044a0 <UART_SetConfig>
 8004ab6:	2801      	cmp	r0, #1
 8004ab8:	d011      	beq.n	8004ade <HAL_UART_Init+0x5c>
 8004aba:	6823      	ldr	r3, [r4, #0]
 8004abc:	4620      	mov	r0, r4
 8004abe:	685a      	ldr	r2, [r3, #4]
 8004ac0:	f422 4290 	bic.w	r2, r2, #18432	@ 0x4800
 8004ac4:	605a      	str	r2, [r3, #4]
 8004ac6:	689a      	ldr	r2, [r3, #8]
 8004ac8:	f022 022a 	bic.w	r2, r2, #42	@ 0x2a
 8004acc:	609a      	str	r2, [r3, #8]
 8004ace:	681a      	ldr	r2, [r3, #0]
 8004ad0:	f042 0201 	orr.w	r2, r2, #1
 8004ad4:	e8bd 4010 	ldmia.w	sp!, {r4, lr}
 8004ad8:	601a      	str	r2, [r3, #0]
 8004ada:	f7ff bf77 	b.w	80049cc <UART_CheckIdleState>
 8004ade:	2001      	movs	r0, #1
 8004ae0:	bd10      	pop	{r4, pc}
	...

08004ae4 <UART_Start_Receive_IT>:
 8004ae4:	b530      	push	{r4, r5, lr}
 8004ae6:	6581      	str	r1, [r0, #88]	@ 0x58
 8004ae8:	2300      	movs	r3, #0
 8004aea:	6881      	ldr	r1, [r0, #8]
 8004aec:	f8a0 205c 	strh.w	r2, [r0, #92]	@ 0x5c
 8004af0:	f5b1 5f80 	cmp.w	r1, #4096	@ 0x1000
 8004af4:	f8a0 205e 	strh.w	r2, [r0, #94]	@ 0x5e
 8004af8:	6743      	str	r3, [r0, #116]	@ 0x74
 8004afa:	d135      	bne.n	8004b68 <UART_Start_Receive_IT+0x84>
 8004afc:	6903      	ldr	r3, [r0, #16]
 8004afe:	2b00      	cmp	r3, #0
 8004b00:	f240 13ff 	movw	r3, #511	@ 0x1ff
 8004b04:	bf18      	it	ne
 8004b06:	23ff      	movne	r3, #255	@ 0xff
 8004b08:	f8a0 3060 	strh.w	r3, [r0, #96]	@ 0x60
 8004b0c:	2300      	movs	r3, #0
 8004b0e:	f8c0 3090 	str.w	r3, [r0, #144]	@ 0x90
 8004b12:	2322      	movs	r3, #34	@ 0x22
 8004b14:	f8c0 308c 	str.w	r3, [r0, #140]	@ 0x8c
 8004b18:	6801      	ldr	r1, [r0, #0]
 8004b1a:	f101 0308 	add.w	r3, r1, #8
 8004b1e:	e853 3f00 	ldrex	r3, [r3]
 8004b22:	f043 0301 	orr.w	r3, r3, #1
 8004b26:	3108      	adds	r1, #8
 8004b28:	e841 3400 	strex	r4, r3, [r1]
 8004b2c:	6803      	ldr	r3, [r0, #0]
 8004b2e:	2c00      	cmp	r4, #0
 8004b30:	d1f2      	bne.n	8004b18 <UART_Start_Receive_IT+0x34>
 8004b32:	6e45      	ldr	r5, [r0, #100]	@ 0x64
 8004b34:	6884      	ldr	r4, [r0, #8]
 8004b36:	f1b5 5f00 	cmp.w	r5, #536870912	@ 0x20000000
 8004b3a:	6901      	ldr	r1, [r0, #16]
 8004b3c:	d132      	bne.n	8004ba4 <UART_Start_Receive_IT+0xc0>
 8004b3e:	f8b0 5068 	ldrh.w	r5, [r0, #104]	@ 0x68
 8004b42:	4295      	cmp	r5, r2
 8004b44:	d82e      	bhi.n	8004ba4 <UART_Start_Receive_IT+0xc0>
 8004b46:	f5b4 5f80 	cmp.w	r4, #4096	@ 0x1000
 8004b4a:	4a24      	ldr	r2, [pc, #144]	@ (8004bdc <UART_Start_Receive_IT+0xf8>)
 8004b4c:	d103      	bne.n	8004b56 <UART_Start_Receive_IT+0x72>
 8004b4e:	4c24      	ldr	r4, [pc, #144]	@ (8004be0 <UART_Start_Receive_IT+0xfc>)
 8004b50:	2900      	cmp	r1, #0
 8004b52:	bf08      	it	eq
 8004b54:	4622      	moveq	r2, r4
 8004b56:	6742      	str	r2, [r0, #116]	@ 0x74
 8004b58:	b1b1      	cbz	r1, 8004b88 <UART_Start_Receive_IT+0xa4>
 8004b5a:	e853 2f00 	ldrex	r2, [r3]
 8004b5e:	f442 7280 	orr.w	r2, r2, #256	@ 0x100
 8004b62:	e843 2100 	strex	r1, r2, [r3]
 8004b66:	e7f7      	b.n	8004b58 <UART_Start_Receive_IT+0x74>
 8004b68:	b929      	cbnz	r1, 8004b76 <UART_Start_Receive_IT+0x92>
 8004b6a:	6903      	ldr	r3, [r0, #16]
 8004b6c:	2b00      	cmp	r3, #0
 8004b6e:	bf14      	ite	ne
 8004b70:	237f      	movne	r3, #127	@ 0x7f
 8004b72:	23ff      	moveq	r3, #255	@ 0xff
 8004b74:	e7c8      	b.n	8004b08 <UART_Start_Receive_IT+0x24>
 8004b76:	f1b1 5f80 	cmp.w	r1, #268435456	@ 0x10000000
 8004b7a:	d1c5      	bne.n	8004b08 <UART_Start_Receive_IT+0x24>
 8004b7c:	6903      	ldr	r3, [r0, #16]
 8004b7e:	2b00      	cmp	r3, #0
 8004b80:	bf14      	ite	ne
 8004b82:	233f      	movne	r3, #63	@ 0x3f
 8004b84:	237f      	moveq	r3, #127	@ 0x7f
 8004b86:	e7bf      	b.n	8004b08 <UART_Start_Receive_IT+0x24>
 8004b88:	f103 0208 	add.w	r2, r3, #8
 8004b8c:	e852 2f00 	ldrex	r2, [r2]
 8004b90:	f042 5280 	orr.w	r2, r2, #268435456	@ 0x10000000
 8004b94:	f103 0008 	add.w	r0, r3, #8
 8004b98:	e840 2100 	strex	r1, r2, [r0]
 8004b9c:	2900      	cmp	r1, #0
 8004b9e:	d1f3      	bne.n	8004b88 <UART_Start_Receive_IT+0xa4>
 8004ba0:	2000      	movs	r0, #0
 8004ba2:	bd30      	pop	{r4, r5, pc}
 8004ba4:	f5b4 5f80 	cmp.w	r4, #4096	@ 0x1000
 8004ba8:	4a0e      	ldr	r2, [pc, #56]	@ (8004be4 <UART_Start_Receive_IT+0x100>)
 8004baa:	d103      	bne.n	8004bb4 <UART_Start_Receive_IT+0xd0>
 8004bac:	4c0e      	ldr	r4, [pc, #56]	@ (8004be8 <UART_Start_Receive_IT+0x104>)
 8004bae:	2900      	cmp	r1, #0
 8004bb0:	bf08      	it	eq
 8004bb2:	4622      	moveq	r2, r4
 8004bb4:	6742      	str	r2, [r0, #116]	@ 0x74
 8004bb6:	b141      	cbz	r1, 8004bca <UART_Start_Receive_IT+0xe6>
 8004bb8:	e853 2f00 	ldrex	r2, [r3]
 8004bbc:	f442 7290 	orr.w	r2, r2, #288	@ 0x120
 8004bc0:	e843 2100 	strex	r1, r2, [r3]
 8004bc4:	2900      	cmp	r1, #0
 8004bc6:	d1f7      	bne.n	8004bb8 <UART_Start_Receive_IT+0xd4>
 8004bc8:	e7ea      	b.n	8004ba0 <UART_Start_Receive_IT+0xbc>
 8004bca:	e853 2f00 	ldrex	r2, [r3]
 8004bce:	f042 0220 	orr.w	r2, r2, #32
 8004bd2:	e843 2100 	strex	r1, r2, [r3]
 8004bd6:	2900      	cmp	r1, #0
 8004bd8:	d1f7      	bne.n	8004bca <UART_Start_Receive_IT+0xe6>
 8004bda:	e7e1      	b.n	8004ba0 <UART_Start_Receive_IT+0xbc>
 8004bdc:	08004169 	.word	0x08004169
 8004be0:	08004309 	.word	0x08004309
 8004be4:	08003fd9 	.word	0x08003fd9
 8004be8:	080040a5 	.word	0x080040a5

08004bec <HAL_UART_Receive_IT>:
 8004bec:	f8d0 308c 	ldr.w	r3, [r0, #140]	@ 0x8c
 8004bf0:	2b20      	cmp	r3, #32
 8004bf2:	b430      	push	{r4, r5}
 8004bf4:	d115      	bne.n	8004c22 <HAL_UART_Receive_IT+0x36>
 8004bf6:	b1b9      	cbz	r1, 8004c28 <HAL_UART_Receive_IT+0x3c>
 8004bf8:	b1b2      	cbz	r2, 8004c28 <HAL_UART_Receive_IT+0x3c>
 8004bfa:	2300      	movs	r3, #0
 8004bfc:	6804      	ldr	r4, [r0, #0]
 8004bfe:	66c3      	str	r3, [r0, #108]	@ 0x6c
 8004c00:	4b0a      	ldr	r3, [pc, #40]	@ (8004c2c <HAL_UART_Receive_IT+0x40>)
 8004c02:	429c      	cmp	r4, r3
 8004c04:	d00a      	beq.n	8004c1c <HAL_UART_Receive_IT+0x30>
 8004c06:	6863      	ldr	r3, [r4, #4]
 8004c08:	021b      	lsls	r3, r3, #8
 8004c0a:	d507      	bpl.n	8004c1c <HAL_UART_Receive_IT+0x30>
 8004c0c:	e854 3f00 	ldrex	r3, [r4]
 8004c10:	f043 6380 	orr.w	r3, r3, #67108864	@ 0x4000000
 8004c14:	e844 3500 	strex	r5, r3, [r4]
 8004c18:	2d00      	cmp	r5, #0
 8004c1a:	d1f7      	bne.n	8004c0c <HAL_UART_Receive_IT+0x20>
 8004c1c:	bc30      	pop	{r4, r5}
 8004c1e:	f7ff bf61 	b.w	8004ae4 <UART_Start_Receive_IT>
 8004c22:	2002      	movs	r0, #2
 8004c24:	bc30      	pop	{r4, r5}
 8004c26:	4770      	bx	lr
 8004c28:	2001      	movs	r0, #1
 8004c2a:	e7fb      	b.n	8004c24 <HAL_UART_Receive_IT+0x38>
 8004c2c:	58000c00 	.word	0x58000c00

08004c30 <UARTEx_SetNbDataToProcess>:
 8004c30:	6e43      	ldr	r3, [r0, #100]	@ 0x64
 8004c32:	b530      	push	{r4, r5, lr}
 8004c34:	b92b      	cbnz	r3, 8004c42 <UARTEx_SetNbDataToProcess+0x12>
 8004c36:	2301      	movs	r3, #1
 8004c38:	f8a0 306a 	strh.w	r3, [r0, #106]	@ 0x6a
 8004c3c:	f8a0 3068 	strh.w	r3, [r0, #104]	@ 0x68
 8004c40:	bd30      	pop	{r4, r5, pc}
 8004c42:	6803      	ldr	r3, [r0, #0]
 8004c44:	4d09      	ldr	r5, [pc, #36]	@ (8004c6c <UARTEx_SetNbDataToProcess+0x3c>)
 8004c46:	689a      	ldr	r2, [r3, #8]
 8004c48:	6899      	ldr	r1, [r3, #8]
 8004c4a:	4c09      	ldr	r4, [pc, #36]	@ (8004c70 <UARTEx_SetNbDataToProcess+0x40>)
 8004c4c:	f3c2 6242 	ubfx	r2, r2, #25, #3
 8004c50:	0f49      	lsrs	r1, r1, #29
 8004c52:	5c6b      	ldrb	r3, [r5, r1]
 8004c54:	5c61      	ldrb	r1, [r4, r1]
 8004c56:	011b      	lsls	r3, r3, #4
 8004c58:	fbb3 f3f1 	udiv	r3, r3, r1
 8004c5c:	f8a0 306a 	strh.w	r3, [r0, #106]	@ 0x6a
 8004c60:	5cab      	ldrb	r3, [r5, r2]
 8004c62:	5ca2      	ldrb	r2, [r4, r2]
 8004c64:	011b      	lsls	r3, r3, #4
 8004c66:	fbb3 f3f2 	udiv	r3, r3, r2
 8004c6a:	e7e7      	b.n	8004c3c <UARTEx_SetNbDataToProcess+0xc>
 8004c6c:	08005e94 	.word	0x08005e94
 8004c70:	08005e8c 	.word	0x08005e8c

08004c74 <HAL_UARTEx_WakeupCallback>:
 8004c74:	4770      	bx	lr

08004c76 <HAL_UARTEx_RxFifoFullCallback>:
 8004c76:	4770      	bx	lr

08004c78 <HAL_UARTEx_TxFifoEmptyCallback>:
 8004c78:	4770      	bx	lr

08004c7a <HAL_UARTEx_DisableFifoMode>:
 8004c7a:	f890 3084 	ldrb.w	r3, [r0, #132]	@ 0x84
 8004c7e:	2b01      	cmp	r3, #1
 8004c80:	d014      	beq.n	8004cac <HAL_UARTEx_DisableFifoMode+0x32>
 8004c82:	6802      	ldr	r2, [r0, #0]
 8004c84:	2324      	movs	r3, #36	@ 0x24
 8004c86:	f8c0 3088 	str.w	r3, [r0, #136]	@ 0x88
 8004c8a:	6811      	ldr	r1, [r2, #0]
 8004c8c:	6813      	ldr	r3, [r2, #0]
 8004c8e:	f021 5100 	bic.w	r1, r1, #536870912	@ 0x20000000
 8004c92:	f023 0301 	bic.w	r3, r3, #1
 8004c96:	6013      	str	r3, [r2, #0]
 8004c98:	2300      	movs	r3, #0
 8004c9a:	6643      	str	r3, [r0, #100]	@ 0x64
 8004c9c:	6011      	str	r1, [r2, #0]
 8004c9e:	2220      	movs	r2, #32
 8004ca0:	f880 3084 	strb.w	r3, [r0, #132]	@ 0x84
 8004ca4:	f8c0 2088 	str.w	r2, [r0, #136]	@ 0x88
 8004ca8:	4618      	mov	r0, r3
 8004caa:	4770      	bx	lr
 8004cac:	2002      	movs	r0, #2
 8004cae:	4770      	bx	lr

08004cb0 <HAL_UARTEx_SetTxFifoThreshold>:
 8004cb0:	b570      	push	{r4, r5, r6, lr}
 8004cb2:	f890 3084 	ldrb.w	r3, [r0, #132]	@ 0x84
 8004cb6:	4604      	mov	r4, r0
 8004cb8:	2b01      	cmp	r3, #1
 8004cba:	d017      	beq.n	8004cec <HAL_UARTEx_SetTxFifoThreshold+0x3c>
 8004cbc:	6805      	ldr	r5, [r0, #0]
 8004cbe:	2324      	movs	r3, #36	@ 0x24
 8004cc0:	f8c0 3088 	str.w	r3, [r0, #136]	@ 0x88
 8004cc4:	682e      	ldr	r6, [r5, #0]
 8004cc6:	682b      	ldr	r3, [r5, #0]
 8004cc8:	f023 0301 	bic.w	r3, r3, #1
 8004ccc:	602b      	str	r3, [r5, #0]
 8004cce:	68ab      	ldr	r3, [r5, #8]
 8004cd0:	f023 4360 	bic.w	r3, r3, #3758096384	@ 0xe0000000
 8004cd4:	4319      	orrs	r1, r3
 8004cd6:	60a9      	str	r1, [r5, #8]
 8004cd8:	f7ff ffaa 	bl	8004c30 <UARTEx_SetNbDataToProcess>
 8004cdc:	2320      	movs	r3, #32
 8004cde:	602e      	str	r6, [r5, #0]
 8004ce0:	f8c0 3088 	str.w	r3, [r0, #136]	@ 0x88
 8004ce4:	2000      	movs	r0, #0
 8004ce6:	f884 0084 	strb.w	r0, [r4, #132]	@ 0x84
 8004cea:	bd70      	pop	{r4, r5, r6, pc}
 8004cec:	2002      	movs	r0, #2
 8004cee:	e7fc      	b.n	8004cea <HAL_UARTEx_SetTxFifoThreshold+0x3a>

08004cf0 <HAL_UARTEx_SetRxFifoThreshold>:
 8004cf0:	b570      	push	{r4, r5, r6, lr}
 8004cf2:	f890 3084 	ldrb.w	r3, [r0, #132]	@ 0x84
 8004cf6:	4604      	mov	r4, r0
 8004cf8:	2b01      	cmp	r3, #1
 8004cfa:	d017      	beq.n	8004d2c <HAL_UARTEx_SetRxFifoThreshold+0x3c>
 8004cfc:	6805      	ldr	r5, [r0, #0]
 8004cfe:	2324      	movs	r3, #36	@ 0x24
 8004d00:	f8c0 3088 	str.w	r3, [r0, #136]	@ 0x88
 8004d04:	682e      	ldr	r6, [r5, #0]
 8004d06:	682b      	ldr	r3, [r5, #0]
 8004d08:	f023 0301 	bic.w	r3, r3, #1
 8004d0c:	602b      	str	r3, [r5, #0]
 8004d0e:	68ab      	ldr	r3, [r5, #8]
 8004d10:	f023 6360 	bic.w	r3, r3, #234881024	@ 0xe000000
 8004d14:	4319      	orrs	r1, r3
 8004d16:	60a9      	str	r1, [r5, #8]
 8004d18:	f7ff ff8a 	bl	8004c30 <UARTEx_SetNbDataToProcess>
 8004d1c:	2320      	movs	r3, #32
 8004d1e:	602e      	str	r6, [r5, #0]
 8004d20:	f8c0 3088 	str.w	r3, [r0, #136]	@ 0x88
 8004d24:	2000      	movs	r0, #0
 8004d26:	f884 0084 	strb.w	r0, [r4, #132]	@ 0x84
 8004d2a:	bd70      	pop	{r4, r5, r6, pc}
 8004d2c:	2002      	movs	r0, #2
 8004d2e:	e7fc      	b.n	8004d2a <HAL_UARTEx_SetRxFifoThreshold+0x3a>

08004d30 <std>:
 8004d30:	2300      	movs	r3, #0
 8004d32:	b510      	push	{r4, lr}
 8004d34:	4604      	mov	r4, r0
 8004d36:	e9c0 3300 	strd	r3, r3, [r0]
 8004d3a:	e9c0 3304 	strd	r3, r3, [r0, #16]
 8004d3e:	6083      	str	r3, [r0, #8]
 8004d40:	8181      	strh	r1, [r0, #12]
 8004d42:	6643      	str	r3, [r0, #100]	@ 0x64
 8004d44:	81c2      	strh	r2, [r0, #14]
 8004d46:	6183      	str	r3, [r0, #24]
 8004d48:	4619      	mov	r1, r3
 8004d4a:	2208      	movs	r2, #8
 8004d4c:	305c      	adds	r0, #92	@ 0x5c
 8004d4e:	f000 f9f9 	bl	8005144 <memset>
 8004d52:	4b0d      	ldr	r3, [pc, #52]	@ (8004d88 <std+0x58>)
 8004d54:	6263      	str	r3, [r4, #36]	@ 0x24
 8004d56:	4b0d      	ldr	r3, [pc, #52]	@ (8004d8c <std+0x5c>)
 8004d58:	62a3      	str	r3, [r4, #40]	@ 0x28
 8004d5a:	4b0d      	ldr	r3, [pc, #52]	@ (8004d90 <std+0x60>)
 8004d5c:	62e3      	str	r3, [r4, #44]	@ 0x2c
 8004d5e:	4b0d      	ldr	r3, [pc, #52]	@ (8004d94 <std+0x64>)
 8004d60:	6323      	str	r3, [r4, #48]	@ 0x30
 8004d62:	4b0d      	ldr	r3, [pc, #52]	@ (8004d98 <std+0x68>)
 8004d64:	6224      	str	r4, [r4, #32]
 8004d66:	429c      	cmp	r4, r3
 8004d68:	d006      	beq.n	8004d78 <std+0x48>
 8004d6a:	f103 0268 	add.w	r2, r3, #104	@ 0x68
 8004d6e:	4294      	cmp	r4, r2
 8004d70:	d002      	beq.n	8004d78 <std+0x48>
 8004d72:	33d0      	adds	r3, #208	@ 0xd0
 8004d74:	429c      	cmp	r4, r3
 8004d76:	d105      	bne.n	8004d84 <std+0x54>
 8004d78:	f104 0058 	add.w	r0, r4, #88	@ 0x58
 8004d7c:	e8bd 4010 	ldmia.w	sp!, {r4, lr}
 8004d80:	f000 ba58 	b.w	8005234 <__retarget_lock_init_recursive>
 8004d84:	bd10      	pop	{r4, pc}
 8004d86:	bf00      	nop
 8004d88:	08004f95 	.word	0x08004f95
 8004d8c:	08004fb7 	.word	0x08004fb7
 8004d90:	08004fef 	.word	0x08004fef
 8004d94:	08005013 	.word	0x08005013
 8004d98:	24000540 	.word	0x24000540

08004d9c <stdio_exit_handler>:
 8004d9c:	4a02      	ldr	r2, [pc, #8]	@ (8004da8 <stdio_exit_handler+0xc>)
 8004d9e:	4903      	ldr	r1, [pc, #12]	@ (8004dac <stdio_exit_handler+0x10>)
 8004da0:	4803      	ldr	r0, [pc, #12]	@ (8004db0 <stdio_exit_handler+0x14>)
 8004da2:	f000 b869 	b.w	8004e78 <_fwalk_sglue>
 8004da6:	bf00      	nop
 8004da8:	24000010 	.word	0x24000010
 8004dac:	08005af1 	.word	0x08005af1
 8004db0:	24000020 	.word	0x24000020

08004db4 <cleanup_stdio>:
 8004db4:	6841      	ldr	r1, [r0, #4]
 8004db6:	4b0c      	ldr	r3, [pc, #48]	@ (8004de8 <cleanup_stdio+0x34>)
 8004db8:	4299      	cmp	r1, r3
 8004dba:	b510      	push	{r4, lr}
 8004dbc:	4604      	mov	r4, r0
 8004dbe:	d001      	beq.n	8004dc4 <cleanup_stdio+0x10>
 8004dc0:	f000 fe96 	bl	8005af0 <_fflush_r>
 8004dc4:	68a1      	ldr	r1, [r4, #8]
 8004dc6:	4b09      	ldr	r3, [pc, #36]	@ (8004dec <cleanup_stdio+0x38>)
 8004dc8:	4299      	cmp	r1, r3
 8004dca:	d002      	beq.n	8004dd2 <cleanup_stdio+0x1e>
 8004dcc:	4620      	mov	r0, r4
 8004dce:	f000 fe8f 	bl	8005af0 <_fflush_r>
 8004dd2:	68e1      	ldr	r1, [r4, #12]
 8004dd4:	4b06      	ldr	r3, [pc, #24]	@ (8004df0 <cleanup_stdio+0x3c>)
 8004dd6:	4299      	cmp	r1, r3
 8004dd8:	d004      	beq.n	8004de4 <cleanup_stdio+0x30>
 8004dda:	4620      	mov	r0, r4
 8004ddc:	e8bd 4010 	ldmia.w	sp!, {r4, lr}
 8004de0:	f000 be86 	b.w	8005af0 <_fflush_r>
 8004de4:	bd10      	pop	{r4, pc}
 8004de6:	bf00      	nop
 8004de8:	24000540 	.word	0x24000540
 8004dec:	240005a8 	.word	0x240005a8
 8004df0:	24000610 	.word	0x24000610

08004df4 <global_stdio_init.part.0>:
 8004df4:	b510      	push	{r4, lr}
 8004df6:	4b0b      	ldr	r3, [pc, #44]	@ (8004e24 <global_stdio_init.part.0+0x30>)
 8004df8:	4c0b      	ldr	r4, [pc, #44]	@ (8004e28 <global_stdio_init.part.0+0x34>)
 8004dfa:	4a0c      	ldr	r2, [pc, #48]	@ (8004e2c <global_stdio_init.part.0+0x38>)
 8004dfc:	601a      	str	r2, [r3, #0]
 8004dfe:	4620      	mov	r0, r4
 8004e00:	2200      	movs	r2, #0
 8004e02:	2104      	movs	r1, #4
 8004e04:	f7ff ff94 	bl	8004d30 <std>
 8004e08:	f104 0068 	add.w	r0, r4, #104	@ 0x68
 8004e0c:	2201      	movs	r2, #1
 8004e0e:	2109      	movs	r1, #9
 8004e10:	f7ff ff8e 	bl	8004d30 <std>
 8004e14:	f104 00d0 	add.w	r0, r4, #208	@ 0xd0
 8004e18:	2202      	movs	r2, #2
 8004e1a:	e8bd 4010 	ldmia.w	sp!, {r4, lr}
 8004e1e:	2112      	movs	r1, #18
 8004e20:	f7ff bf86 	b.w	8004d30 <std>
 8004e24:	24000678 	.word	0x24000678
 8004e28:	24000540 	.word	0x24000540
 8004e2c:	08004d9d 	.word	0x08004d9d

08004e30 <__sfp_lock_acquire>:
 8004e30:	4801      	ldr	r0, [pc, #4]	@ (8004e38 <__sfp_lock_acquire+0x8>)
 8004e32:	f000 ba00 	b.w	8005236 <__retarget_lock_acquire_recursive>
 8004e36:	bf00      	nop
 8004e38:	24000681 	.word	0x24000681

08004e3c <__sfp_lock_release>:
 8004e3c:	4801      	ldr	r0, [pc, #4]	@ (8004e44 <__sfp_lock_release+0x8>)
 8004e3e:	f000 b9fb 	b.w	8005238 <__retarget_lock_release_recursive>
 8004e42:	bf00      	nop
 8004e44:	24000681 	.word	0x24000681

08004e48 <__sinit>:
 8004e48:	b510      	push	{r4, lr}
 8004e4a:	4604      	mov	r4, r0
 8004e4c:	f7ff fff0 	bl	8004e30 <__sfp_lock_acquire>
 8004e50:	6a23      	ldr	r3, [r4, #32]
 8004e52:	b11b      	cbz	r3, 8004e5c <__sinit+0x14>
 8004e54:	e8bd 4010 	ldmia.w	sp!, {r4, lr}
 8004e58:	f7ff bff0 	b.w	8004e3c <__sfp_lock_release>
 8004e5c:	4b04      	ldr	r3, [pc, #16]	@ (8004e70 <__sinit+0x28>)
 8004e5e:	6223      	str	r3, [r4, #32]
 8004e60:	4b04      	ldr	r3, [pc, #16]	@ (8004e74 <__sinit+0x2c>)
 8004e62:	681b      	ldr	r3, [r3, #0]
 8004e64:	2b00      	cmp	r3, #0
 8004e66:	d1f5      	bne.n	8004e54 <__sinit+0xc>
 8004e68:	f7ff ffc4 	bl	8004df4 <global_stdio_init.part.0>
 8004e6c:	e7f2      	b.n	8004e54 <__sinit+0xc>
 8004e6e:	bf00      	nop
 8004e70:	08004db5 	.word	0x08004db5
 8004e74:	24000678 	.word	0x24000678

08004e78 <_fwalk_sglue>:
 8004e78:	e92d 43f8 	stmdb	sp!, {r3, r4, r5, r6, r7, r8, r9, lr}
 8004e7c:	4607      	mov	r7, r0
 8004e7e:	4688      	mov	r8, r1
 8004e80:	4614      	mov	r4, r2
 8004e82:	2600      	movs	r6, #0
 8004e84:	e9d4 9501 	ldrd	r9, r5, [r4, #4]
 8004e88:	f1b9 0901 	subs.w	r9, r9, #1
 8004e8c:	d505      	bpl.n	8004e9a <_fwalk_sglue+0x22>
 8004e8e:	6824      	ldr	r4, [r4, #0]
 8004e90:	2c00      	cmp	r4, #0
 8004e92:	d1f7      	bne.n	8004e84 <_fwalk_sglue+0xc>
 8004e94:	4630      	mov	r0, r6
 8004e96:	e8bd 83f8 	ldmia.w	sp!, {r3, r4, r5, r6, r7, r8, r9, pc}
 8004e9a:	89ab      	ldrh	r3, [r5, #12]
 8004e9c:	2b01      	cmp	r3, #1
 8004e9e:	d907      	bls.n	8004eb0 <_fwalk_sglue+0x38>
 8004ea0:	f9b5 300e 	ldrsh.w	r3, [r5, #14]
 8004ea4:	3301      	adds	r3, #1
 8004ea6:	d003      	beq.n	8004eb0 <_fwalk_sglue+0x38>
 8004ea8:	4629      	mov	r1, r5
 8004eaa:	4638      	mov	r0, r7
 8004eac:	47c0      	blx	r8
 8004eae:	4306      	orrs	r6, r0
 8004eb0:	3568      	adds	r5, #104	@ 0x68
 8004eb2:	e7e9      	b.n	8004e88 <_fwalk_sglue+0x10>

08004eb4 <iprintf>:
 8004eb4:	b40f      	push	{r0, r1, r2, r3}
 8004eb6:	b507      	push	{r0, r1, r2, lr}
 8004eb8:	4906      	ldr	r1, [pc, #24]	@ (8004ed4 <iprintf+0x20>)
 8004eba:	ab04      	add	r3, sp, #16
 8004ebc:	6808      	ldr	r0, [r1, #0]
 8004ebe:	f853 2b04 	ldr.w	r2, [r3], #4
 8004ec2:	6881      	ldr	r1, [r0, #8]
 8004ec4:	9301      	str	r3, [sp, #4]
 8004ec6:	f000 fae9 	bl	800549c <_vfiprintf_r>
 8004eca:	b003      	add	sp, #12
 8004ecc:	f85d eb04 	ldr.w	lr, [sp], #4
 8004ed0:	b004      	add	sp, #16
 8004ed2:	4770      	bx	lr
 8004ed4:	2400001c 	.word	0x2400001c

08004ed8 <_puts_r>:
 8004ed8:	6a03      	ldr	r3, [r0, #32]
 8004eda:	b570      	push	{r4, r5, r6, lr}
 8004edc:	6884      	ldr	r4, [r0, #8]
 8004ede:	4605      	mov	r5, r0
 8004ee0:	460e      	mov	r6, r1
 8004ee2:	b90b      	cbnz	r3, 8004ee8 <_puts_r+0x10>
 8004ee4:	f7ff ffb0 	bl	8004e48 <__sinit>
 8004ee8:	6e63      	ldr	r3, [r4, #100]	@ 0x64
 8004eea:	07db      	lsls	r3, r3, #31
 8004eec:	d405      	bmi.n	8004efa <_puts_r+0x22>
 8004eee:	89a3      	ldrh	r3, [r4, #12]
 8004ef0:	0598      	lsls	r0, r3, #22
 8004ef2:	d402      	bmi.n	8004efa <_puts_r+0x22>
 8004ef4:	6da0      	ldr	r0, [r4, #88]	@ 0x58
 8004ef6:	f000 f99e 	bl	8005236 <__retarget_lock_acquire_recursive>
 8004efa:	89a3      	ldrh	r3, [r4, #12]
 8004efc:	0719      	lsls	r1, r3, #28
 8004efe:	d502      	bpl.n	8004f06 <_puts_r+0x2e>
 8004f00:	6923      	ldr	r3, [r4, #16]
 8004f02:	2b00      	cmp	r3, #0
 8004f04:	d135      	bne.n	8004f72 <_puts_r+0x9a>
 8004f06:	4621      	mov	r1, r4
 8004f08:	4628      	mov	r0, r5
 8004f0a:	f000 f8c5 	bl	8005098 <__swsetup_r>
 8004f0e:	b380      	cbz	r0, 8004f72 <_puts_r+0x9a>
 8004f10:	f04f 35ff 	mov.w	r5, #4294967295
 8004f14:	6e63      	ldr	r3, [r4, #100]	@ 0x64
 8004f16:	07da      	lsls	r2, r3, #31
 8004f18:	d405      	bmi.n	8004f26 <_puts_r+0x4e>
 8004f1a:	89a3      	ldrh	r3, [r4, #12]
 8004f1c:	059b      	lsls	r3, r3, #22
 8004f1e:	d402      	bmi.n	8004f26 <_puts_r+0x4e>
 8004f20:	6da0      	ldr	r0, [r4, #88]	@ 0x58
 8004f22:	f000 f989 	bl	8005238 <__retarget_lock_release_recursive>
 8004f26:	4628      	mov	r0, r5
 8004f28:	bd70      	pop	{r4, r5, r6, pc}
 8004f2a:	2b00      	cmp	r3, #0
 8004f2c:	da04      	bge.n	8004f38 <_puts_r+0x60>
 8004f2e:	69a2      	ldr	r2, [r4, #24]
 8004f30:	429a      	cmp	r2, r3
 8004f32:	dc17      	bgt.n	8004f64 <_puts_r+0x8c>
 8004f34:	290a      	cmp	r1, #10
 8004f36:	d015      	beq.n	8004f64 <_puts_r+0x8c>
 8004f38:	6823      	ldr	r3, [r4, #0]
 8004f3a:	1c5a      	adds	r2, r3, #1
 8004f3c:	6022      	str	r2, [r4, #0]
 8004f3e:	7019      	strb	r1, [r3, #0]
 8004f40:	68a3      	ldr	r3, [r4, #8]
 8004f42:	f816 1f01 	ldrb.w	r1, [r6, #1]!
 8004f46:	3b01      	subs	r3, #1
 8004f48:	60a3      	str	r3, [r4, #8]
 8004f4a:	2900      	cmp	r1, #0
 8004f4c:	d1ed      	bne.n	8004f2a <_puts_r+0x52>
 8004f4e:	2b00      	cmp	r3, #0
 8004f50:	da11      	bge.n	8004f76 <_puts_r+0x9e>
 8004f52:	4622      	mov	r2, r4
 8004f54:	210a      	movs	r1, #10
 8004f56:	4628      	mov	r0, r5
 8004f58:	f000 f85f 	bl	800501a <__swbuf_r>
 8004f5c:	3001      	adds	r0, #1
 8004f5e:	d0d7      	beq.n	8004f10 <_puts_r+0x38>
 8004f60:	250a      	movs	r5, #10
 8004f62:	e7d7      	b.n	8004f14 <_puts_r+0x3c>
 8004f64:	4622      	mov	r2, r4
 8004f66:	4628      	mov	r0, r5
 8004f68:	f000 f857 	bl	800501a <__swbuf_r>
 8004f6c:	3001      	adds	r0, #1
 8004f6e:	d1e7      	bne.n	8004f40 <_puts_r+0x68>
 8004f70:	e7ce      	b.n	8004f10 <_puts_r+0x38>
 8004f72:	3e01      	subs	r6, #1
 8004f74:	e7e4      	b.n	8004f40 <_puts_r+0x68>
 8004f76:	6823      	ldr	r3, [r4, #0]
 8004f78:	1c5a      	adds	r2, r3, #1
 8004f7a:	6022      	str	r2, [r4, #0]
 8004f7c:	220a      	movs	r2, #10
 8004f7e:	701a      	strb	r2, [r3, #0]
 8004f80:	e7ee      	b.n	8004f60 <_puts_r+0x88>
	...

08004f84 <puts>:
 8004f84:	4b02      	ldr	r3, [pc, #8]	@ (8004f90 <puts+0xc>)
 8004f86:	4601      	mov	r1, r0
 8004f88:	6818      	ldr	r0, [r3, #0]
 8004f8a:	f7ff bfa5 	b.w	8004ed8 <_puts_r>
 8004f8e:	bf00      	nop
 8004f90:	2400001c 	.word	0x2400001c

08004f94 <__sread>:
 8004f94:	b510      	push	{r4, lr}
 8004f96:	460c      	mov	r4, r1
 8004f98:	f9b1 100e 	ldrsh.w	r1, [r1, #14]
 8004f9c:	f000 f8fc 	bl	8005198 <_read_r>
 8004fa0:	2800      	cmp	r0, #0
 8004fa2:	bfab      	itete	ge
 8004fa4:	6d63      	ldrge	r3, [r4, #84]	@ 0x54
 8004fa6:	89a3      	ldrhlt	r3, [r4, #12]
 8004fa8:	181b      	addge	r3, r3, r0
 8004faa:	f423 5380 	biclt.w	r3, r3, #4096	@ 0x1000
 8004fae:	bfac      	ite	ge
 8004fb0:	6563      	strge	r3, [r4, #84]	@ 0x54
 8004fb2:	81a3      	strhlt	r3, [r4, #12]
 8004fb4:	bd10      	pop	{r4, pc}

08004fb6 <__swrite>:
 8004fb6:	e92d 41f0 	stmdb	sp!, {r4, r5, r6, r7, r8, lr}
 8004fba:	461f      	mov	r7, r3
 8004fbc:	898b      	ldrh	r3, [r1, #12]
 8004fbe:	05db      	lsls	r3, r3, #23
 8004fc0:	4605      	mov	r5, r0
 8004fc2:	460c      	mov	r4, r1
 8004fc4:	4616      	mov	r6, r2
 8004fc6:	d505      	bpl.n	8004fd4 <__swrite+0x1e>
 8004fc8:	f9b1 100e 	ldrsh.w	r1, [r1, #14]
 8004fcc:	2302      	movs	r3, #2
 8004fce:	2200      	movs	r2, #0
 8004fd0:	f000 f8d0 	bl	8005174 <_lseek_r>
 8004fd4:	89a3      	ldrh	r3, [r4, #12]
 8004fd6:	f9b4 100e 	ldrsh.w	r1, [r4, #14]
 8004fda:	f423 5380 	bic.w	r3, r3, #4096	@ 0x1000
 8004fde:	81a3      	strh	r3, [r4, #12]
 8004fe0:	4632      	mov	r2, r6
 8004fe2:	463b      	mov	r3, r7
 8004fe4:	4628      	mov	r0, r5
 8004fe6:	e8bd 41f0 	ldmia.w	sp!, {r4, r5, r6, r7, r8, lr}
 8004fea:	f000 b8e7 	b.w	80051bc <_write_r>

08004fee <__sseek>:
 8004fee:	b510      	push	{r4, lr}
 8004ff0:	460c      	mov	r4, r1
 8004ff2:	f9b1 100e 	ldrsh.w	r1, [r1, #14]
 8004ff6:	f000 f8bd 	bl	8005174 <_lseek_r>
 8004ffa:	1c43      	adds	r3, r0, #1
 8004ffc:	89a3      	ldrh	r3, [r4, #12]
 8004ffe:	bf15      	itete	ne
 8005000:	6560      	strne	r0, [r4, #84]	@ 0x54
 8005002:	f423 5380 	biceq.w	r3, r3, #4096	@ 0x1000
 8005006:	f443 5380 	orrne.w	r3, r3, #4096	@ 0x1000
 800500a:	81a3      	strheq	r3, [r4, #12]
 800500c:	bf18      	it	ne
 800500e:	81a3      	strhne	r3, [r4, #12]
 8005010:	bd10      	pop	{r4, pc}

08005012 <__sclose>:
 8005012:	f9b1 100e 	ldrsh.w	r1, [r1, #14]
 8005016:	f000 b89d 	b.w	8005154 <_close_r>

0800501a <__swbuf_r>:
 800501a:	b5f8      	push	{r3, r4, r5, r6, r7, lr}
 800501c:	460e      	mov	r6, r1
 800501e:	4614      	mov	r4, r2
 8005020:	4605      	mov	r5, r0
 8005022:	b118      	cbz	r0, 800502c <__swbuf_r+0x12>
 8005024:	6a03      	ldr	r3, [r0, #32]
 8005026:	b90b      	cbnz	r3, 800502c <__swbuf_r+0x12>
 8005028:	f7ff ff0e 	bl	8004e48 <__sinit>
 800502c:	69a3      	ldr	r3, [r4, #24]
 800502e:	60a3      	str	r3, [r4, #8]
 8005030:	89a3      	ldrh	r3, [r4, #12]
 8005032:	071a      	lsls	r2, r3, #28
 8005034:	d501      	bpl.n	800503a <__swbuf_r+0x20>
 8005036:	6923      	ldr	r3, [r4, #16]
 8005038:	b943      	cbnz	r3, 800504c <__swbuf_r+0x32>
 800503a:	4621      	mov	r1, r4
 800503c:	4628      	mov	r0, r5
 800503e:	f000 f82b 	bl	8005098 <__swsetup_r>
 8005042:	b118      	cbz	r0, 800504c <__swbuf_r+0x32>
 8005044:	f04f 37ff 	mov.w	r7, #4294967295
 8005048:	4638      	mov	r0, r7
 800504a:	bdf8      	pop	{r3, r4, r5, r6, r7, pc}
 800504c:	6823      	ldr	r3, [r4, #0]
 800504e:	6922      	ldr	r2, [r4, #16]
 8005050:	1a98      	subs	r0, r3, r2
 8005052:	6963      	ldr	r3, [r4, #20]
 8005054:	b2f6      	uxtb	r6, r6
 8005056:	4283      	cmp	r3, r0
 8005058:	4637      	mov	r7, r6
 800505a:	dc05      	bgt.n	8005068 <__swbuf_r+0x4e>
 800505c:	4621      	mov	r1, r4
 800505e:	4628      	mov	r0, r5
 8005060:	f000 fd46 	bl	8005af0 <_fflush_r>
 8005064:	2800      	cmp	r0, #0
 8005066:	d1ed      	bne.n	8005044 <__swbuf_r+0x2a>
 8005068:	68a3      	ldr	r3, [r4, #8]
 800506a:	3b01      	subs	r3, #1
 800506c:	60a3      	str	r3, [r4, #8]
 800506e:	6823      	ldr	r3, [r4, #0]
 8005070:	1c5a      	adds	r2, r3, #1
 8005072:	6022      	str	r2, [r4, #0]
 8005074:	701e      	strb	r6, [r3, #0]
 8005076:	6962      	ldr	r2, [r4, #20]
 8005078:	1c43      	adds	r3, r0, #1
 800507a:	429a      	cmp	r2, r3
 800507c:	d004      	beq.n	8005088 <__swbuf_r+0x6e>
 800507e:	89a3      	ldrh	r3, [r4, #12]
 8005080:	07db      	lsls	r3, r3, #31
 8005082:	d5e1      	bpl.n	8005048 <__swbuf_r+0x2e>
 8005084:	2e0a      	cmp	r6, #10
 8005086:	d1df      	bne.n	8005048 <__swbuf_r+0x2e>
 8005088:	4621      	mov	r1, r4
 800508a:	4628      	mov	r0, r5
 800508c:	f000 fd30 	bl	8005af0 <_fflush_r>
 8005090:	2800      	cmp	r0, #0
 8005092:	d0d9      	beq.n	8005048 <__swbuf_r+0x2e>
 8005094:	e7d6      	b.n	8005044 <__swbuf_r+0x2a>
	...

08005098 <__swsetup_r>:
 8005098:	b538      	push	{r3, r4, r5, lr}
 800509a:	4b29      	ldr	r3, [pc, #164]	@ (8005140 <__swsetup_r+0xa8>)
 800509c:	4605      	mov	r5, r0
 800509e:	6818      	ldr	r0, [r3, #0]
 80050a0:	460c      	mov	r4, r1
 80050a2:	b118      	cbz	r0, 80050ac <__swsetup_r+0x14>
 80050a4:	6a03      	ldr	r3, [r0, #32]
 80050a6:	b90b      	cbnz	r3, 80050ac <__swsetup_r+0x14>
 80050a8:	f7ff fece 	bl	8004e48 <__sinit>
 80050ac:	f9b4 300c 	ldrsh.w	r3, [r4, #12]
 80050b0:	0719      	lsls	r1, r3, #28
 80050b2:	d422      	bmi.n	80050fa <__swsetup_r+0x62>
 80050b4:	06da      	lsls	r2, r3, #27
 80050b6:	d407      	bmi.n	80050c8 <__swsetup_r+0x30>
 80050b8:	2209      	movs	r2, #9
 80050ba:	602a      	str	r2, [r5, #0]
 80050bc:	f043 0340 	orr.w	r3, r3, #64	@ 0x40
 80050c0:	81a3      	strh	r3, [r4, #12]
 80050c2:	f04f 30ff 	mov.w	r0, #4294967295
 80050c6:	e033      	b.n	8005130 <__swsetup_r+0x98>
 80050c8:	0758      	lsls	r0, r3, #29
 80050ca:	d512      	bpl.n	80050f2 <__swsetup_r+0x5a>
 80050cc:	6b61      	ldr	r1, [r4, #52]	@ 0x34
 80050ce:	b141      	cbz	r1, 80050e2 <__swsetup_r+0x4a>
 80050d0:	f104 0344 	add.w	r3, r4, #68	@ 0x44
 80050d4:	4299      	cmp	r1, r3
 80050d6:	d002      	beq.n	80050de <__swsetup_r+0x46>
 80050d8:	4628      	mov	r0, r5
 80050da:	f000 f8bd 	bl	8005258 <_free_r>
 80050de:	2300      	movs	r3, #0
 80050e0:	6363      	str	r3, [r4, #52]	@ 0x34
 80050e2:	89a3      	ldrh	r3, [r4, #12]
 80050e4:	f023 0324 	bic.w	r3, r3, #36	@ 0x24
 80050e8:	81a3      	strh	r3, [r4, #12]
 80050ea:	2300      	movs	r3, #0
 80050ec:	6063      	str	r3, [r4, #4]
 80050ee:	6923      	ldr	r3, [r4, #16]
 80050f0:	6023      	str	r3, [r4, #0]
 80050f2:	89a3      	ldrh	r3, [r4, #12]
 80050f4:	f043 0308 	orr.w	r3, r3, #8
 80050f8:	81a3      	strh	r3, [r4, #12]
 80050fa:	6923      	ldr	r3, [r4, #16]
 80050fc:	b94b      	cbnz	r3, 8005112 <__swsetup_r+0x7a>
 80050fe:	89a3      	ldrh	r3, [r4, #12]
 8005100:	f403 7320 	and.w	r3, r3, #640	@ 0x280
 8005104:	f5b3 7f00 	cmp.w	r3, #512	@ 0x200
 8005108:	d003      	beq.n	8005112 <__swsetup_r+0x7a>
 800510a:	4621      	mov	r1, r4
 800510c:	4628      	mov	r0, r5
 800510e:	f000 fd3d 	bl	8005b8c <__smakebuf_r>
 8005112:	f9b4 300c 	ldrsh.w	r3, [r4, #12]
 8005116:	f013 0201 	ands.w	r2, r3, #1
 800511a:	d00a      	beq.n	8005132 <__swsetup_r+0x9a>
 800511c:	2200      	movs	r2, #0
 800511e:	60a2      	str	r2, [r4, #8]
 8005120:	6962      	ldr	r2, [r4, #20]
 8005122:	4252      	negs	r2, r2
 8005124:	61a2      	str	r2, [r4, #24]
 8005126:	6922      	ldr	r2, [r4, #16]
 8005128:	b942      	cbnz	r2, 800513c <__swsetup_r+0xa4>
 800512a:	f013 0080 	ands.w	r0, r3, #128	@ 0x80
 800512e:	d1c5      	bne.n	80050bc <__swsetup_r+0x24>
 8005130:	bd38      	pop	{r3, r4, r5, pc}
 8005132:	0799      	lsls	r1, r3, #30
 8005134:	bf58      	it	pl
 8005136:	6962      	ldrpl	r2, [r4, #20]
 8005138:	60a2      	str	r2, [r4, #8]
 800513a:	e7f4      	b.n	8005126 <__swsetup_r+0x8e>
 800513c:	2000      	movs	r0, #0
 800513e:	e7f7      	b.n	8005130 <__swsetup_r+0x98>
 8005140:	2400001c 	.word	0x2400001c

08005144 <memset>:
 8005144:	4402      	add	r2, r0
 8005146:	4603      	mov	r3, r0
 8005148:	4293      	cmp	r3, r2
 800514a:	d100      	bne.n	800514e <memset+0xa>
 800514c:	4770      	bx	lr
 800514e:	f803 1b01 	strb.w	r1, [r3], #1
 8005152:	e7f9      	b.n	8005148 <memset+0x4>

08005154 <_close_r>:
 8005154:	b538      	push	{r3, r4, r5, lr}
 8005156:	4d06      	ldr	r5, [pc, #24]	@ (8005170 <_close_r+0x1c>)
 8005158:	2300      	movs	r3, #0
 800515a:	4604      	mov	r4, r0
 800515c:	4608      	mov	r0, r1
 800515e:	602b      	str	r3, [r5, #0]
 8005160:	f7fc fbbe 	bl	80018e0 <_close>
 8005164:	1c43      	adds	r3, r0, #1
 8005166:	d102      	bne.n	800516e <_close_r+0x1a>
 8005168:	682b      	ldr	r3, [r5, #0]
 800516a:	b103      	cbz	r3, 800516e <_close_r+0x1a>
 800516c:	6023      	str	r3, [r4, #0]
 800516e:	bd38      	pop	{r3, r4, r5, pc}
 8005170:	2400067c 	.word	0x2400067c

08005174 <_lseek_r>:
 8005174:	b538      	push	{r3, r4, r5, lr}
 8005176:	4d07      	ldr	r5, [pc, #28]	@ (8005194 <_lseek_r+0x20>)
 8005178:	4604      	mov	r4, r0
 800517a:	4608      	mov	r0, r1
 800517c:	4611      	mov	r1, r2
 800517e:	2200      	movs	r2, #0
 8005180:	602a      	str	r2, [r5, #0]
 8005182:	461a      	mov	r2, r3
 8005184:	f7fc fbb6 	bl	80018f4 <_lseek>
 8005188:	1c43      	adds	r3, r0, #1
 800518a:	d102      	bne.n	8005192 <_lseek_r+0x1e>
 800518c:	682b      	ldr	r3, [r5, #0]
 800518e:	b103      	cbz	r3, 8005192 <_lseek_r+0x1e>
 8005190:	6023      	str	r3, [r4, #0]
 8005192:	bd38      	pop	{r3, r4, r5, pc}
 8005194:	2400067c 	.word	0x2400067c

08005198 <_read_r>:
 8005198:	b538      	push	{r3, r4, r5, lr}
 800519a:	4d07      	ldr	r5, [pc, #28]	@ (80051b8 <_read_r+0x20>)
 800519c:	4604      	mov	r4, r0
 800519e:	4608      	mov	r0, r1
 80051a0:	4611      	mov	r1, r2
 80051a2:	2200      	movs	r2, #0
 80051a4:	602a      	str	r2, [r5, #0]
 80051a6:	461a      	mov	r2, r3
 80051a8:	f7fc fb7e 	bl	80018a8 <_read>
 80051ac:	1c43      	adds	r3, r0, #1
 80051ae:	d102      	bne.n	80051b6 <_read_r+0x1e>
 80051b0:	682b      	ldr	r3, [r5, #0]
 80051b2:	b103      	cbz	r3, 80051b6 <_read_r+0x1e>
 80051b4:	6023      	str	r3, [r4, #0]
 80051b6:	bd38      	pop	{r3, r4, r5, pc}
 80051b8:	2400067c 	.word	0x2400067c

080051bc <_write_r>:
 80051bc:	b538      	push	{r3, r4, r5, lr}
 80051be:	4d07      	ldr	r5, [pc, #28]	@ (80051dc <_write_r+0x20>)
 80051c0:	4604      	mov	r4, r0
 80051c2:	4608      	mov	r0, r1
 80051c4:	4611      	mov	r1, r2
 80051c6:	2200      	movs	r2, #0
 80051c8:	602a      	str	r2, [r5, #0]
 80051ca:	461a      	mov	r2, r3
 80051cc:	f7fc fb7a 	bl	80018c4 <_write>
 80051d0:	1c43      	adds	r3, r0, #1
 80051d2:	d102      	bne.n	80051da <_write_r+0x1e>
 80051d4:	682b      	ldr	r3, [r5, #0]
 80051d6:	b103      	cbz	r3, 80051da <_write_r+0x1e>
 80051d8:	6023      	str	r3, [r4, #0]
 80051da:	bd38      	pop	{r3, r4, r5, pc}
 80051dc:	2400067c 	.word	0x2400067c

080051e0 <__errno>:
 80051e0:	4b01      	ldr	r3, [pc, #4]	@ (80051e8 <__errno+0x8>)
 80051e2:	6818      	ldr	r0, [r3, #0]
 80051e4:	4770      	bx	lr
 80051e6:	bf00      	nop
 80051e8:	2400001c 	.word	0x2400001c

080051ec <__libc_init_array>:
 80051ec:	b570      	push	{r4, r5, r6, lr}
 80051ee:	4d0d      	ldr	r5, [pc, #52]	@ (8005224 <__libc_init_array+0x38>)
 80051f0:	4c0d      	ldr	r4, [pc, #52]	@ (8005228 <__libc_init_array+0x3c>)
 80051f2:	1b64      	subs	r4, r4, r5
 80051f4:	10a4      	asrs	r4, r4, #2
 80051f6:	2600      	movs	r6, #0
 80051f8:	42a6      	cmp	r6, r4
 80051fa:	d109      	bne.n	8005210 <__libc_init_array+0x24>
 80051fc:	4d0b      	ldr	r5, [pc, #44]	@ (800522c <__libc_init_array+0x40>)
 80051fe:	4c0c      	ldr	r4, [pc, #48]	@ (8005230 <__libc_init_array+0x44>)
 8005200:	f000 fd32 	bl	8005c68 <_init>
 8005204:	1b64      	subs	r4, r4, r5
 8005206:	10a4      	asrs	r4, r4, #2
 8005208:	2600      	movs	r6, #0
 800520a:	42a6      	cmp	r6, r4
 800520c:	d105      	bne.n	800521a <__libc_init_array+0x2e>
 800520e:	bd70      	pop	{r4, r5, r6, pc}
 8005210:	f855 3b04 	ldr.w	r3, [r5], #4
 8005214:	4798      	blx	r3
 8005216:	3601      	adds	r6, #1
 8005218:	e7ee      	b.n	80051f8 <__libc_init_array+0xc>
 800521a:	f855 3b04 	ldr.w	r3, [r5], #4
 800521e:	4798      	blx	r3
 8005220:	3601      	adds	r6, #1
 8005222:	e7f2      	b.n	800520a <__libc_init_array+0x1e>
 8005224:	08005ed8 	.word	0x08005ed8
 8005228:	08005ed8 	.word	0x08005ed8
 800522c:	08005ed8 	.word	0x08005ed8
 8005230:	08005edc 	.word	0x08005edc

08005234 <__retarget_lock_init_recursive>:
 8005234:	4770      	bx	lr

08005236 <__retarget_lock_acquire_recursive>:
 8005236:	4770      	bx	lr

08005238 <__retarget_lock_release_recursive>:
 8005238:	4770      	bx	lr

0800523a <memcpy>:
 800523a:	440a      	add	r2, r1
 800523c:	4291      	cmp	r1, r2
 800523e:	f100 33ff 	add.w	r3, r0, #4294967295
 8005242:	d100      	bne.n	8005246 <memcpy+0xc>
 8005244:	4770      	bx	lr
 8005246:	b510      	push	{r4, lr}
 8005248:	f811 4b01 	ldrb.w	r4, [r1], #1
 800524c:	f803 4f01 	strb.w	r4, [r3, #1]!
 8005250:	4291      	cmp	r1, r2
 8005252:	d1f9      	bne.n	8005248 <memcpy+0xe>
 8005254:	bd10      	pop	{r4, pc}
	...

08005258 <_free_r>:
 8005258:	b538      	push	{r3, r4, r5, lr}
 800525a:	4605      	mov	r5, r0
 800525c:	2900      	cmp	r1, #0
 800525e:	d041      	beq.n	80052e4 <_free_r+0x8c>
 8005260:	f851 3c04 	ldr.w	r3, [r1, #-4]
 8005264:	1f0c      	subs	r4, r1, #4
 8005266:	2b00      	cmp	r3, #0
 8005268:	bfb8      	it	lt
 800526a:	18e4      	addlt	r4, r4, r3
 800526c:	f000 f8e0 	bl	8005430 <__malloc_lock>
 8005270:	4a1d      	ldr	r2, [pc, #116]	@ (80052e8 <_free_r+0x90>)
 8005272:	6813      	ldr	r3, [r2, #0]
 8005274:	b933      	cbnz	r3, 8005284 <_free_r+0x2c>
 8005276:	6063      	str	r3, [r4, #4]
 8005278:	6014      	str	r4, [r2, #0]
 800527a:	4628      	mov	r0, r5
 800527c:	e8bd 4038 	ldmia.w	sp!, {r3, r4, r5, lr}
 8005280:	f000 b8dc 	b.w	800543c <__malloc_unlock>
 8005284:	42a3      	cmp	r3, r4
 8005286:	d908      	bls.n	800529a <_free_r+0x42>
 8005288:	6820      	ldr	r0, [r4, #0]
 800528a:	1821      	adds	r1, r4, r0
 800528c:	428b      	cmp	r3, r1
 800528e:	bf01      	itttt	eq
 8005290:	6819      	ldreq	r1, [r3, #0]
 8005292:	685b      	ldreq	r3, [r3, #4]
 8005294:	1809      	addeq	r1, r1, r0
 8005296:	6021      	streq	r1, [r4, #0]
 8005298:	e7ed      	b.n	8005276 <_free_r+0x1e>
 800529a:	461a      	mov	r2, r3
 800529c:	685b      	ldr	r3, [r3, #4]
 800529e:	b10b      	cbz	r3, 80052a4 <_free_r+0x4c>
 80052a0:	42a3      	cmp	r3, r4
 80052a2:	d9fa      	bls.n	800529a <_free_r+0x42>
 80052a4:	6811      	ldr	r1, [r2, #0]
 80052a6:	1850      	adds	r0, r2, r1
 80052a8:	42a0      	cmp	r0, r4
 80052aa:	d10b      	bne.n	80052c4 <_free_r+0x6c>
 80052ac:	6820      	ldr	r0, [r4, #0]
 80052ae:	4401      	add	r1, r0
 80052b0:	1850      	adds	r0, r2, r1
 80052b2:	4283      	cmp	r3, r0
 80052b4:	6011      	str	r1, [r2, #0]
 80052b6:	d1e0      	bne.n	800527a <_free_r+0x22>
 80052b8:	6818      	ldr	r0, [r3, #0]
 80052ba:	685b      	ldr	r3, [r3, #4]
 80052bc:	6053      	str	r3, [r2, #4]
 80052be:	4408      	add	r0, r1
 80052c0:	6010      	str	r0, [r2, #0]
 80052c2:	e7da      	b.n	800527a <_free_r+0x22>
 80052c4:	d902      	bls.n	80052cc <_free_r+0x74>
 80052c6:	230c      	movs	r3, #12
 80052c8:	602b      	str	r3, [r5, #0]
 80052ca:	e7d6      	b.n	800527a <_free_r+0x22>
 80052cc:	6820      	ldr	r0, [r4, #0]
 80052ce:	1821      	adds	r1, r4, r0
 80052d0:	428b      	cmp	r3, r1
 80052d2:	bf04      	itt	eq
 80052d4:	6819      	ldreq	r1, [r3, #0]
 80052d6:	685b      	ldreq	r3, [r3, #4]
 80052d8:	6063      	str	r3, [r4, #4]
 80052da:	bf04      	itt	eq
 80052dc:	1809      	addeq	r1, r1, r0
 80052de:	6021      	streq	r1, [r4, #0]
 80052e0:	6054      	str	r4, [r2, #4]
 80052e2:	e7ca      	b.n	800527a <_free_r+0x22>
 80052e4:	bd38      	pop	{r3, r4, r5, pc}
 80052e6:	bf00      	nop
 80052e8:	24000688 	.word	0x24000688

080052ec <sbrk_aligned>:
 80052ec:	b570      	push	{r4, r5, r6, lr}
 80052ee:	4e0f      	ldr	r6, [pc, #60]	@ (800532c <sbrk_aligned+0x40>)
 80052f0:	460c      	mov	r4, r1
 80052f2:	6831      	ldr	r1, [r6, #0]
 80052f4:	4605      	mov	r5, r0
 80052f6:	b911      	cbnz	r1, 80052fe <sbrk_aligned+0x12>
 80052f8:	f000 fca6 	bl	8005c48 <_sbrk_r>
 80052fc:	6030      	str	r0, [r6, #0]
 80052fe:	4621      	mov	r1, r4
 8005300:	4628      	mov	r0, r5
 8005302:	f000 fca1 	bl	8005c48 <_sbrk_r>
 8005306:	1c43      	adds	r3, r0, #1
 8005308:	d103      	bne.n	8005312 <sbrk_aligned+0x26>
 800530a:	f04f 34ff 	mov.w	r4, #4294967295
 800530e:	4620      	mov	r0, r4
 8005310:	bd70      	pop	{r4, r5, r6, pc}
 8005312:	1cc4      	adds	r4, r0, #3
 8005314:	f024 0403 	bic.w	r4, r4, #3
 8005318:	42a0      	cmp	r0, r4
 800531a:	d0f8      	beq.n	800530e <sbrk_aligned+0x22>
 800531c:	1a21      	subs	r1, r4, r0
 800531e:	4628      	mov	r0, r5
 8005320:	f000 fc92 	bl	8005c48 <_sbrk_r>
 8005324:	3001      	adds	r0, #1
 8005326:	d1f2      	bne.n	800530e <sbrk_aligned+0x22>
 8005328:	e7ef      	b.n	800530a <sbrk_aligned+0x1e>
 800532a:	bf00      	nop
 800532c:	24000684 	.word	0x24000684

08005330 <_malloc_r>:
 8005330:	e92d 43f8 	stmdb	sp!, {r3, r4, r5, r6, r7, r8, r9, lr}
 8005334:	1ccd      	adds	r5, r1, #3
 8005336:	f025 0503 	bic.w	r5, r5, #3
 800533a:	3508      	adds	r5, #8
 800533c:	2d0c      	cmp	r5, #12
 800533e:	bf38      	it	cc
 8005340:	250c      	movcc	r5, #12
 8005342:	2d00      	cmp	r5, #0
 8005344:	4606      	mov	r6, r0
 8005346:	db01      	blt.n	800534c <_malloc_r+0x1c>
 8005348:	42a9      	cmp	r1, r5
 800534a:	d904      	bls.n	8005356 <_malloc_r+0x26>
 800534c:	230c      	movs	r3, #12
 800534e:	6033      	str	r3, [r6, #0]
 8005350:	2000      	movs	r0, #0
 8005352:	e8bd 83f8 	ldmia.w	sp!, {r3, r4, r5, r6, r7, r8, r9, pc}
 8005356:	f8df 80d4 	ldr.w	r8, [pc, #212]	@ 800542c <_malloc_r+0xfc>
 800535a:	f000 f869 	bl	8005430 <__malloc_lock>
 800535e:	f8d8 3000 	ldr.w	r3, [r8]
 8005362:	461c      	mov	r4, r3
 8005364:	bb44      	cbnz	r4, 80053b8 <_malloc_r+0x88>
 8005366:	4629      	mov	r1, r5
 8005368:	4630      	mov	r0, r6
 800536a:	f7ff ffbf 	bl	80052ec <sbrk_aligned>
 800536e:	1c43      	adds	r3, r0, #1
 8005370:	4604      	mov	r4, r0
 8005372:	d158      	bne.n	8005426 <_malloc_r+0xf6>
 8005374:	f8d8 4000 	ldr.w	r4, [r8]
 8005378:	4627      	mov	r7, r4
 800537a:	2f00      	cmp	r7, #0
 800537c:	d143      	bne.n	8005406 <_malloc_r+0xd6>
 800537e:	2c00      	cmp	r4, #0
 8005380:	d04b      	beq.n	800541a <_malloc_r+0xea>
 8005382:	6823      	ldr	r3, [r4, #0]
 8005384:	4639      	mov	r1, r7
 8005386:	4630      	mov	r0, r6
 8005388:	eb04 0903 	add.w	r9, r4, r3
 800538c:	f000 fc5c 	bl	8005c48 <_sbrk_r>
 8005390:	4581      	cmp	r9, r0
 8005392:	d142      	bne.n	800541a <_malloc_r+0xea>
 8005394:	6821      	ldr	r1, [r4, #0]
 8005396:	1a6d      	subs	r5, r5, r1
 8005398:	4629      	mov	r1, r5
 800539a:	4630      	mov	r0, r6
 800539c:	f7ff ffa6 	bl	80052ec <sbrk_aligned>
 80053a0:	3001      	adds	r0, #1
 80053a2:	d03a      	beq.n	800541a <_malloc_r+0xea>
 80053a4:	6823      	ldr	r3, [r4, #0]
 80053a6:	442b      	add	r3, r5
 80053a8:	6023      	str	r3, [r4, #0]
 80053aa:	f8d8 3000 	ldr.w	r3, [r8]
 80053ae:	685a      	ldr	r2, [r3, #4]
 80053b0:	bb62      	cbnz	r2, 800540c <_malloc_r+0xdc>
 80053b2:	f8c8 7000 	str.w	r7, [r8]
 80053b6:	e00f      	b.n	80053d8 <_malloc_r+0xa8>
 80053b8:	6822      	ldr	r2, [r4, #0]
 80053ba:	1b52      	subs	r2, r2, r5
 80053bc:	d420      	bmi.n	8005400 <_malloc_r+0xd0>
 80053be:	2a0b      	cmp	r2, #11
 80053c0:	d917      	bls.n	80053f2 <_malloc_r+0xc2>
 80053c2:	1961      	adds	r1, r4, r5
 80053c4:	42a3      	cmp	r3, r4
 80053c6:	6025      	str	r5, [r4, #0]
 80053c8:	bf18      	it	ne
 80053ca:	6059      	strne	r1, [r3, #4]
 80053cc:	6863      	ldr	r3, [r4, #4]
 80053ce:	bf08      	it	eq
 80053d0:	f8c8 1000 	streq.w	r1, [r8]
 80053d4:	5162      	str	r2, [r4, r5]
 80053d6:	604b      	str	r3, [r1, #4]
 80053d8:	4630      	mov	r0, r6
 80053da:	f000 f82f 	bl	800543c <__malloc_unlock>
 80053de:	f104 000b 	add.w	r0, r4, #11
 80053e2:	1d23      	adds	r3, r4, #4
 80053e4:	f020 0007 	bic.w	r0, r0, #7
 80053e8:	1ac2      	subs	r2, r0, r3
 80053ea:	bf1c      	itt	ne
 80053ec:	1a1b      	subne	r3, r3, r0
 80053ee:	50a3      	strne	r3, [r4, r2]
 80053f0:	e7af      	b.n	8005352 <_malloc_r+0x22>
 80053f2:	6862      	ldr	r2, [r4, #4]
 80053f4:	42a3      	cmp	r3, r4
 80053f6:	bf0c      	ite	eq
 80053f8:	f8c8 2000 	streq.w	r2, [r8]
 80053fc:	605a      	strne	r2, [r3, #4]
 80053fe:	e7eb      	b.n	80053d8 <_malloc_r+0xa8>
 8005400:	4623      	mov	r3, r4
 8005402:	6864      	ldr	r4, [r4, #4]
 8005404:	e7ae      	b.n	8005364 <_malloc_r+0x34>
 8005406:	463c      	mov	r4, r7
 8005408:	687f      	ldr	r7, [r7, #4]
 800540a:	e7b6      	b.n	800537a <_malloc_r+0x4a>
 800540c:	461a      	mov	r2, r3
 800540e:	685b      	ldr	r3, [r3, #4]
 8005410:	42a3      	cmp	r3, r4
 8005412:	d1fb      	bne.n	800540c <_malloc_r+0xdc>
 8005414:	2300      	movs	r3, #0
 8005416:	6053      	str	r3, [r2, #4]
 8005418:	e7de      	b.n	80053d8 <_malloc_r+0xa8>
 800541a:	230c      	movs	r3, #12
 800541c:	6033      	str	r3, [r6, #0]
 800541e:	4630      	mov	r0, r6
 8005420:	f000 f80c 	bl	800543c <__malloc_unlock>
 8005424:	e794      	b.n	8005350 <_malloc_r+0x20>
 8005426:	6005      	str	r5, [r0, #0]
 8005428:	e7d6      	b.n	80053d8 <_malloc_r+0xa8>
 800542a:	bf00      	nop
 800542c:	24000688 	.word	0x24000688

08005430 <__malloc_lock>:
 8005430:	4801      	ldr	r0, [pc, #4]	@ (8005438 <__malloc_lock+0x8>)
 8005432:	f7ff bf00 	b.w	8005236 <__retarget_lock_acquire_recursive>
 8005436:	bf00      	nop
 8005438:	24000680 	.word	0x24000680

0800543c <__malloc_unlock>:
 800543c:	4801      	ldr	r0, [pc, #4]	@ (8005444 <__malloc_unlock+0x8>)
 800543e:	f7ff befb 	b.w	8005238 <__retarget_lock_release_recursive>
 8005442:	bf00      	nop
 8005444:	24000680 	.word	0x24000680

08005448 <__sfputc_r>:
 8005448:	6893      	ldr	r3, [r2, #8]
 800544a:	3b01      	subs	r3, #1
 800544c:	2b00      	cmp	r3, #0
 800544e:	b410      	push	{r4}
 8005450:	6093      	str	r3, [r2, #8]
 8005452:	da08      	bge.n	8005466 <__sfputc_r+0x1e>
 8005454:	6994      	ldr	r4, [r2, #24]
 8005456:	42a3      	cmp	r3, r4
 8005458:	db01      	blt.n	800545e <__sfputc_r+0x16>
 800545a:	290a      	cmp	r1, #10
 800545c:	d103      	bne.n	8005466 <__sfputc_r+0x1e>
 800545e:	f85d 4b04 	ldr.w	r4, [sp], #4
 8005462:	f7ff bdda 	b.w	800501a <__swbuf_r>
 8005466:	6813      	ldr	r3, [r2, #0]
 8005468:	1c58      	adds	r0, r3, #1
 800546a:	6010      	str	r0, [r2, #0]
 800546c:	7019      	strb	r1, [r3, #0]
 800546e:	4608      	mov	r0, r1
 8005470:	f85d 4b04 	ldr.w	r4, [sp], #4
 8005474:	4770      	bx	lr

08005476 <__sfputs_r>:
 8005476:	b5f8      	push	{r3, r4, r5, r6, r7, lr}
 8005478:	4606      	mov	r6, r0
 800547a:	460f      	mov	r7, r1
 800547c:	4614      	mov	r4, r2
 800547e:	18d5      	adds	r5, r2, r3
 8005480:	42ac      	cmp	r4, r5
 8005482:	d101      	bne.n	8005488 <__sfputs_r+0x12>
 8005484:	2000      	movs	r0, #0
 8005486:	e007      	b.n	8005498 <__sfputs_r+0x22>
 8005488:	f814 1b01 	ldrb.w	r1, [r4], #1
 800548c:	463a      	mov	r2, r7
 800548e:	4630      	mov	r0, r6
 8005490:	f7ff ffda 	bl	8005448 <__sfputc_r>
 8005494:	1c43      	adds	r3, r0, #1
 8005496:	d1f3      	bne.n	8005480 <__sfputs_r+0xa>
 8005498:	bdf8      	pop	{r3, r4, r5, r6, r7, pc}
	...

0800549c <_vfiprintf_r>:
 800549c:	e92d 4ff0 	stmdb	sp!, {r4, r5, r6, r7, r8, r9, sl, fp, lr}
 80054a0:	460d      	mov	r5, r1
 80054a2:	b09d      	sub	sp, #116	@ 0x74
 80054a4:	4614      	mov	r4, r2
 80054a6:	4698      	mov	r8, r3
 80054a8:	4606      	mov	r6, r0
 80054aa:	b118      	cbz	r0, 80054b4 <_vfiprintf_r+0x18>
 80054ac:	6a03      	ldr	r3, [r0, #32]
 80054ae:	b90b      	cbnz	r3, 80054b4 <_vfiprintf_r+0x18>
 80054b0:	f7ff fcca 	bl	8004e48 <__sinit>
 80054b4:	6e6b      	ldr	r3, [r5, #100]	@ 0x64
 80054b6:	07d9      	lsls	r1, r3, #31
 80054b8:	d405      	bmi.n	80054c6 <_vfiprintf_r+0x2a>
 80054ba:	89ab      	ldrh	r3, [r5, #12]
 80054bc:	059a      	lsls	r2, r3, #22
 80054be:	d402      	bmi.n	80054c6 <_vfiprintf_r+0x2a>
 80054c0:	6da8      	ldr	r0, [r5, #88]	@ 0x58
 80054c2:	f7ff feb8 	bl	8005236 <__retarget_lock_acquire_recursive>
 80054c6:	89ab      	ldrh	r3, [r5, #12]
 80054c8:	071b      	lsls	r3, r3, #28
 80054ca:	d501      	bpl.n	80054d0 <_vfiprintf_r+0x34>
 80054cc:	692b      	ldr	r3, [r5, #16]
 80054ce:	b99b      	cbnz	r3, 80054f8 <_vfiprintf_r+0x5c>
 80054d0:	4629      	mov	r1, r5
 80054d2:	4630      	mov	r0, r6
 80054d4:	f7ff fde0 	bl	8005098 <__swsetup_r>
 80054d8:	b170      	cbz	r0, 80054f8 <_vfiprintf_r+0x5c>
 80054da:	6e6b      	ldr	r3, [r5, #100]	@ 0x64
 80054dc:	07dc      	lsls	r4, r3, #31
 80054de:	d504      	bpl.n	80054ea <_vfiprintf_r+0x4e>
 80054e0:	f04f 30ff 	mov.w	r0, #4294967295
 80054e4:	b01d      	add	sp, #116	@ 0x74
 80054e6:	e8bd 8ff0 	ldmia.w	sp!, {r4, r5, r6, r7, r8, r9, sl, fp, pc}
 80054ea:	89ab      	ldrh	r3, [r5, #12]
 80054ec:	0598      	lsls	r0, r3, #22
 80054ee:	d4f7      	bmi.n	80054e0 <_vfiprintf_r+0x44>
 80054f0:	6da8      	ldr	r0, [r5, #88]	@ 0x58
 80054f2:	f7ff fea1 	bl	8005238 <__retarget_lock_release_recursive>
 80054f6:	e7f3      	b.n	80054e0 <_vfiprintf_r+0x44>
 80054f8:	2300      	movs	r3, #0
 80054fa:	9309      	str	r3, [sp, #36]	@ 0x24
 80054fc:	2320      	movs	r3, #32
 80054fe:	f88d 3029 	strb.w	r3, [sp, #41]	@ 0x29
 8005502:	f8cd 800c 	str.w	r8, [sp, #12]
 8005506:	2330      	movs	r3, #48	@ 0x30
 8005508:	f8df 81ac 	ldr.w	r8, [pc, #428]	@ 80056b8 <_vfiprintf_r+0x21c>
 800550c:	f88d 302a 	strb.w	r3, [sp, #42]	@ 0x2a
 8005510:	f04f 0901 	mov.w	r9, #1
 8005514:	4623      	mov	r3, r4
 8005516:	469a      	mov	sl, r3
 8005518:	f813 2b01 	ldrb.w	r2, [r3], #1
 800551c:	b10a      	cbz	r2, 8005522 <_vfiprintf_r+0x86>
 800551e:	2a25      	cmp	r2, #37	@ 0x25
 8005520:	d1f9      	bne.n	8005516 <_vfiprintf_r+0x7a>
 8005522:	ebba 0b04 	subs.w	fp, sl, r4
 8005526:	d00b      	beq.n	8005540 <_vfiprintf_r+0xa4>
 8005528:	465b      	mov	r3, fp
 800552a:	4622      	mov	r2, r4
 800552c:	4629      	mov	r1, r5
 800552e:	4630      	mov	r0, r6
 8005530:	f7ff ffa1 	bl	8005476 <__sfputs_r>
 8005534:	3001      	adds	r0, #1
 8005536:	f000 80a7 	beq.w	8005688 <_vfiprintf_r+0x1ec>
 800553a:	9a09      	ldr	r2, [sp, #36]	@ 0x24
 800553c:	445a      	add	r2, fp
 800553e:	9209      	str	r2, [sp, #36]	@ 0x24
 8005540:	f89a 3000 	ldrb.w	r3, [sl]
 8005544:	2b00      	cmp	r3, #0
 8005546:	f000 809f 	beq.w	8005688 <_vfiprintf_r+0x1ec>
 800554a:	2300      	movs	r3, #0
 800554c:	f04f 32ff 	mov.w	r2, #4294967295
 8005550:	e9cd 2305 	strd	r2, r3, [sp, #20]
 8005554:	f10a 0a01 	add.w	sl, sl, #1
 8005558:	9304      	str	r3, [sp, #16]
 800555a:	9307      	str	r3, [sp, #28]
 800555c:	f88d 3053 	strb.w	r3, [sp, #83]	@ 0x53
 8005560:	931a      	str	r3, [sp, #104]	@ 0x68
 8005562:	4654      	mov	r4, sl
 8005564:	2205      	movs	r2, #5
 8005566:	f814 1b01 	ldrb.w	r1, [r4], #1
 800556a:	4853      	ldr	r0, [pc, #332]	@ (80056b8 <_vfiprintf_r+0x21c>)
 800556c:	f7fa fec0 	bl	80002f0 <memchr>
 8005570:	9a04      	ldr	r2, [sp, #16]
 8005572:	b9d8      	cbnz	r0, 80055ac <_vfiprintf_r+0x110>
 8005574:	06d1      	lsls	r1, r2, #27
 8005576:	bf44      	itt	mi
 8005578:	2320      	movmi	r3, #32
 800557a:	f88d 3053 	strbmi.w	r3, [sp, #83]	@ 0x53
 800557e:	0713      	lsls	r3, r2, #28
 8005580:	bf44      	itt	mi
 8005582:	232b      	movmi	r3, #43	@ 0x2b
 8005584:	f88d 3053 	strbmi.w	r3, [sp, #83]	@ 0x53
 8005588:	f89a 3000 	ldrb.w	r3, [sl]
 800558c:	2b2a      	cmp	r3, #42	@ 0x2a
 800558e:	d015      	beq.n	80055bc <_vfiprintf_r+0x120>
 8005590:	9a07      	ldr	r2, [sp, #28]
 8005592:	4654      	mov	r4, sl
 8005594:	2000      	movs	r0, #0
 8005596:	f04f 0c0a 	mov.w	ip, #10
 800559a:	4621      	mov	r1, r4
 800559c:	f811 3b01 	ldrb.w	r3, [r1], #1
 80055a0:	3b30      	subs	r3, #48	@ 0x30
 80055a2:	2b09      	cmp	r3, #9
 80055a4:	d94b      	bls.n	800563e <_vfiprintf_r+0x1a2>
 80055a6:	b1b0      	cbz	r0, 80055d6 <_vfiprintf_r+0x13a>
 80055a8:	9207      	str	r2, [sp, #28]
 80055aa:	e014      	b.n	80055d6 <_vfiprintf_r+0x13a>
 80055ac:	eba0 0308 	sub.w	r3, r0, r8
 80055b0:	fa09 f303 	lsl.w	r3, r9, r3
 80055b4:	4313      	orrs	r3, r2
 80055b6:	9304      	str	r3, [sp, #16]
 80055b8:	46a2      	mov	sl, r4
 80055ba:	e7d2      	b.n	8005562 <_vfiprintf_r+0xc6>
 80055bc:	9b03      	ldr	r3, [sp, #12]
 80055be:	1d19      	adds	r1, r3, #4
 80055c0:	681b      	ldr	r3, [r3, #0]
 80055c2:	9103      	str	r1, [sp, #12]
 80055c4:	2b00      	cmp	r3, #0
 80055c6:	bfbb      	ittet	lt
 80055c8:	425b      	neglt	r3, r3
 80055ca:	f042 0202 	orrlt.w	r2, r2, #2
 80055ce:	9307      	strge	r3, [sp, #28]
 80055d0:	9307      	strlt	r3, [sp, #28]
 80055d2:	bfb8      	it	lt
 80055d4:	9204      	strlt	r2, [sp, #16]
 80055d6:	7823      	ldrb	r3, [r4, #0]
 80055d8:	2b2e      	cmp	r3, #46	@ 0x2e
 80055da:	d10a      	bne.n	80055f2 <_vfiprintf_r+0x156>
 80055dc:	7863      	ldrb	r3, [r4, #1]
 80055de:	2b2a      	cmp	r3, #42	@ 0x2a
 80055e0:	d132      	bne.n	8005648 <_vfiprintf_r+0x1ac>
 80055e2:	9b03      	ldr	r3, [sp, #12]
 80055e4:	1d1a      	adds	r2, r3, #4
 80055e6:	681b      	ldr	r3, [r3, #0]
 80055e8:	9203      	str	r2, [sp, #12]
 80055ea:	ea43 73e3 	orr.w	r3, r3, r3, asr #31
 80055ee:	3402      	adds	r4, #2
 80055f0:	9305      	str	r3, [sp, #20]
 80055f2:	f8df a0d4 	ldr.w	sl, [pc, #212]	@ 80056c8 <_vfiprintf_r+0x22c>
 80055f6:	7821      	ldrb	r1, [r4, #0]
 80055f8:	2203      	movs	r2, #3
 80055fa:	4650      	mov	r0, sl
 80055fc:	f7fa fe78 	bl	80002f0 <memchr>
 8005600:	b138      	cbz	r0, 8005612 <_vfiprintf_r+0x176>
 8005602:	9b04      	ldr	r3, [sp, #16]
 8005604:	eba0 000a 	sub.w	r0, r0, sl
 8005608:	2240      	movs	r2, #64	@ 0x40
 800560a:	4082      	lsls	r2, r0
 800560c:	4313      	orrs	r3, r2
 800560e:	3401      	adds	r4, #1
 8005610:	9304      	str	r3, [sp, #16]
 8005612:	f814 1b01 	ldrb.w	r1, [r4], #1
 8005616:	4829      	ldr	r0, [pc, #164]	@ (80056bc <_vfiprintf_r+0x220>)
 8005618:	f88d 1028 	strb.w	r1, [sp, #40]	@ 0x28
 800561c:	2206      	movs	r2, #6
 800561e:	f7fa fe67 	bl	80002f0 <memchr>
 8005622:	2800      	cmp	r0, #0
 8005624:	d03f      	beq.n	80056a6 <_vfiprintf_r+0x20a>
 8005626:	4b26      	ldr	r3, [pc, #152]	@ (80056c0 <_vfiprintf_r+0x224>)
 8005628:	bb1b      	cbnz	r3, 8005672 <_vfiprintf_r+0x1d6>
 800562a:	9b03      	ldr	r3, [sp, #12]
 800562c:	3307      	adds	r3, #7
 800562e:	f023 0307 	bic.w	r3, r3, #7
 8005632:	3308      	adds	r3, #8
 8005634:	9303      	str	r3, [sp, #12]
 8005636:	9b09      	ldr	r3, [sp, #36]	@ 0x24
 8005638:	443b      	add	r3, r7
 800563a:	9309      	str	r3, [sp, #36]	@ 0x24
 800563c:	e76a      	b.n	8005514 <_vfiprintf_r+0x78>
 800563e:	fb0c 3202 	mla	r2, ip, r2, r3
 8005642:	460c      	mov	r4, r1
 8005644:	2001      	movs	r0, #1
 8005646:	e7a8      	b.n	800559a <_vfiprintf_r+0xfe>
 8005648:	2300      	movs	r3, #0
 800564a:	3401      	adds	r4, #1
 800564c:	9305      	str	r3, [sp, #20]
 800564e:	4619      	mov	r1, r3
 8005650:	f04f 0c0a 	mov.w	ip, #10
 8005654:	4620      	mov	r0, r4
 8005656:	f810 2b01 	ldrb.w	r2, [r0], #1
 800565a:	3a30      	subs	r2, #48	@ 0x30
 800565c:	2a09      	cmp	r2, #9
 800565e:	d903      	bls.n	8005668 <_vfiprintf_r+0x1cc>
 8005660:	2b00      	cmp	r3, #0
 8005662:	d0c6      	beq.n	80055f2 <_vfiprintf_r+0x156>
 8005664:	9105      	str	r1, [sp, #20]
 8005666:	e7c4      	b.n	80055f2 <_vfiprintf_r+0x156>
 8005668:	fb0c 2101 	mla	r1, ip, r1, r2
 800566c:	4604      	mov	r4, r0
 800566e:	2301      	movs	r3, #1
 8005670:	e7f0      	b.n	8005654 <_vfiprintf_r+0x1b8>
 8005672:	ab03      	add	r3, sp, #12
 8005674:	9300      	str	r3, [sp, #0]
 8005676:	462a      	mov	r2, r5
 8005678:	4b12      	ldr	r3, [pc, #72]	@ (80056c4 <_vfiprintf_r+0x228>)
 800567a:	a904      	add	r1, sp, #16
 800567c:	4630      	mov	r0, r6
 800567e:	f3af 8000 	nop.w
 8005682:	4607      	mov	r7, r0
 8005684:	1c78      	adds	r0, r7, #1
 8005686:	d1d6      	bne.n	8005636 <_vfiprintf_r+0x19a>
 8005688:	6e6b      	ldr	r3, [r5, #100]	@ 0x64
 800568a:	07d9      	lsls	r1, r3, #31
 800568c:	d405      	bmi.n	800569a <_vfiprintf_r+0x1fe>
 800568e:	89ab      	ldrh	r3, [r5, #12]
 8005690:	059a      	lsls	r2, r3, #22
 8005692:	d402      	bmi.n	800569a <_vfiprintf_r+0x1fe>
 8005694:	6da8      	ldr	r0, [r5, #88]	@ 0x58
 8005696:	f7ff fdcf 	bl	8005238 <__retarget_lock_release_recursive>
 800569a:	89ab      	ldrh	r3, [r5, #12]
 800569c:	065b      	lsls	r3, r3, #25
 800569e:	f53f af1f 	bmi.w	80054e0 <_vfiprintf_r+0x44>
 80056a2:	9809      	ldr	r0, [sp, #36]	@ 0x24
 80056a4:	e71e      	b.n	80054e4 <_vfiprintf_r+0x48>
 80056a6:	ab03      	add	r3, sp, #12
 80056a8:	9300      	str	r3, [sp, #0]
 80056aa:	462a      	mov	r2, r5
 80056ac:	4b05      	ldr	r3, [pc, #20]	@ (80056c4 <_vfiprintf_r+0x228>)
 80056ae:	a904      	add	r1, sp, #16
 80056b0:	4630      	mov	r0, r6
 80056b2:	f000 f879 	bl	80057a8 <_printf_i>
 80056b6:	e7e4      	b.n	8005682 <_vfiprintf_r+0x1e6>
 80056b8:	08005e9c 	.word	0x08005e9c
 80056bc:	08005ea6 	.word	0x08005ea6
 80056c0:	00000000 	.word	0x00000000
 80056c4:	08005477 	.word	0x08005477
 80056c8:	08005ea2 	.word	0x08005ea2

080056cc <_printf_common>:
 80056cc:	e92d 47f0 	stmdb	sp!, {r4, r5, r6, r7, r8, r9, sl, lr}
 80056d0:	4616      	mov	r6, r2
 80056d2:	4698      	mov	r8, r3
 80056d4:	688a      	ldr	r2, [r1, #8]
 80056d6:	690b      	ldr	r3, [r1, #16]
 80056d8:	f8dd 9020 	ldr.w	r9, [sp, #32]
 80056dc:	4293      	cmp	r3, r2
 80056de:	bfb8      	it	lt
 80056e0:	4613      	movlt	r3, r2
 80056e2:	6033      	str	r3, [r6, #0]
 80056e4:	f891 2043 	ldrb.w	r2, [r1, #67]	@ 0x43
 80056e8:	4607      	mov	r7, r0
 80056ea:	460c      	mov	r4, r1
 80056ec:	b10a      	cbz	r2, 80056f2 <_printf_common+0x26>
 80056ee:	3301      	adds	r3, #1
 80056f0:	6033      	str	r3, [r6, #0]
 80056f2:	6823      	ldr	r3, [r4, #0]
 80056f4:	0699      	lsls	r1, r3, #26
 80056f6:	bf42      	ittt	mi
 80056f8:	6833      	ldrmi	r3, [r6, #0]
 80056fa:	3302      	addmi	r3, #2
 80056fc:	6033      	strmi	r3, [r6, #0]
 80056fe:	6825      	ldr	r5, [r4, #0]
 8005700:	f015 0506 	ands.w	r5, r5, #6
 8005704:	d106      	bne.n	8005714 <_printf_common+0x48>
 8005706:	f104 0a19 	add.w	sl, r4, #25
 800570a:	68e3      	ldr	r3, [r4, #12]
 800570c:	6832      	ldr	r2, [r6, #0]
 800570e:	1a9b      	subs	r3, r3, r2
 8005710:	42ab      	cmp	r3, r5
 8005712:	dc26      	bgt.n	8005762 <_printf_common+0x96>
 8005714:	f894 3043 	ldrb.w	r3, [r4, #67]	@ 0x43
 8005718:	6822      	ldr	r2, [r4, #0]
 800571a:	3b00      	subs	r3, #0
 800571c:	bf18      	it	ne
 800571e:	2301      	movne	r3, #1
 8005720:	0692      	lsls	r2, r2, #26
 8005722:	d42b      	bmi.n	800577c <_printf_common+0xb0>
 8005724:	f104 0243 	add.w	r2, r4, #67	@ 0x43
 8005728:	4641      	mov	r1, r8
 800572a:	4638      	mov	r0, r7
 800572c:	47c8      	blx	r9
 800572e:	3001      	adds	r0, #1
 8005730:	d01e      	beq.n	8005770 <_printf_common+0xa4>
 8005732:	6823      	ldr	r3, [r4, #0]
 8005734:	6922      	ldr	r2, [r4, #16]
 8005736:	f003 0306 	and.w	r3, r3, #6
 800573a:	2b04      	cmp	r3, #4
 800573c:	bf02      	ittt	eq
 800573e:	68e5      	ldreq	r5, [r4, #12]
 8005740:	6833      	ldreq	r3, [r6, #0]
 8005742:	1aed      	subeq	r5, r5, r3
 8005744:	68a3      	ldr	r3, [r4, #8]
 8005746:	bf0c      	ite	eq
 8005748:	ea25 75e5 	biceq.w	r5, r5, r5, asr #31
 800574c:	2500      	movne	r5, #0
 800574e:	4293      	cmp	r3, r2
 8005750:	bfc4      	itt	gt
 8005752:	1a9b      	subgt	r3, r3, r2
 8005754:	18ed      	addgt	r5, r5, r3
 8005756:	2600      	movs	r6, #0
 8005758:	341a      	adds	r4, #26
 800575a:	42b5      	cmp	r5, r6
 800575c:	d11a      	bne.n	8005794 <_printf_common+0xc8>
 800575e:	2000      	movs	r0, #0
 8005760:	e008      	b.n	8005774 <_printf_common+0xa8>
 8005762:	2301      	movs	r3, #1
 8005764:	4652      	mov	r2, sl
 8005766:	4641      	mov	r1, r8
 8005768:	4638      	mov	r0, r7
 800576a:	47c8      	blx	r9
 800576c:	3001      	adds	r0, #1
 800576e:	d103      	bne.n	8005778 <_printf_common+0xac>
 8005770:	f04f 30ff 	mov.w	r0, #4294967295
 8005774:	e8bd 87f0 	ldmia.w	sp!, {r4, r5, r6, r7, r8, r9, sl, pc}
 8005778:	3501      	adds	r5, #1
 800577a:	e7c6      	b.n	800570a <_printf_common+0x3e>
 800577c:	18e1      	adds	r1, r4, r3
 800577e:	1c5a      	adds	r2, r3, #1
 8005780:	2030      	movs	r0, #48	@ 0x30
 8005782:	f881 0043 	strb.w	r0, [r1, #67]	@ 0x43
 8005786:	4422      	add	r2, r4
 8005788:	f894 1045 	ldrb.w	r1, [r4, #69]	@ 0x45
 800578c:	f882 1043 	strb.w	r1, [r2, #67]	@ 0x43
 8005790:	3302      	adds	r3, #2
 8005792:	e7c7      	b.n	8005724 <_printf_common+0x58>
 8005794:	2301      	movs	r3, #1
 8005796:	4622      	mov	r2, r4
 8005798:	4641      	mov	r1, r8
 800579a:	4638      	mov	r0, r7
 800579c:	47c8      	blx	r9
 800579e:	3001      	adds	r0, #1
 80057a0:	d0e6      	beq.n	8005770 <_printf_common+0xa4>
 80057a2:	3601      	adds	r6, #1
 80057a4:	e7d9      	b.n	800575a <_printf_common+0x8e>
	...

080057a8 <_printf_i>:
 80057a8:	e92d 47ff 	stmdb	sp!, {r0, r1, r2, r3, r4, r5, r6, r7, r8, r9, sl, lr}
 80057ac:	7e0f      	ldrb	r7, [r1, #24]
 80057ae:	9e0c      	ldr	r6, [sp, #48]	@ 0x30
 80057b0:	2f78      	cmp	r7, #120	@ 0x78
 80057b2:	4691      	mov	r9, r2
 80057b4:	4680      	mov	r8, r0
 80057b6:	460c      	mov	r4, r1
 80057b8:	469a      	mov	sl, r3
 80057ba:	f101 0243 	add.w	r2, r1, #67	@ 0x43
 80057be:	d807      	bhi.n	80057d0 <_printf_i+0x28>
 80057c0:	2f62      	cmp	r7, #98	@ 0x62
 80057c2:	d80a      	bhi.n	80057da <_printf_i+0x32>
 80057c4:	2f00      	cmp	r7, #0
 80057c6:	f000 80d2 	beq.w	800596e <_printf_i+0x1c6>
 80057ca:	2f58      	cmp	r7, #88	@ 0x58
 80057cc:	f000 80b9 	beq.w	8005942 <_printf_i+0x19a>
 80057d0:	f104 0642 	add.w	r6, r4, #66	@ 0x42
 80057d4:	f884 7042 	strb.w	r7, [r4, #66]	@ 0x42
 80057d8:	e03a      	b.n	8005850 <_printf_i+0xa8>
 80057da:	f1a7 0363 	sub.w	r3, r7, #99	@ 0x63
 80057de:	2b15      	cmp	r3, #21
 80057e0:	d8f6      	bhi.n	80057d0 <_printf_i+0x28>
 80057e2:	a101      	add	r1, pc, #4	@ (adr r1, 80057e8 <_printf_i+0x40>)
 80057e4:	f851 f023 	ldr.w	pc, [r1, r3, lsl #2]
 80057e8:	08005841 	.word	0x08005841
 80057ec:	08005855 	.word	0x08005855
 80057f0:	080057d1 	.word	0x080057d1
 80057f4:	080057d1 	.word	0x080057d1
 80057f8:	080057d1 	.word	0x080057d1
 80057fc:	080057d1 	.word	0x080057d1
 8005800:	08005855 	.word	0x08005855
 8005804:	080057d1 	.word	0x080057d1
 8005808:	080057d1 	.word	0x080057d1
 800580c:	080057d1 	.word	0x080057d1
 8005810:	080057d1 	.word	0x080057d1
 8005814:	08005955 	.word	0x08005955
 8005818:	0800587f 	.word	0x0800587f
 800581c:	0800590f 	.word	0x0800590f
 8005820:	080057d1 	.word	0x080057d1
 8005824:	080057d1 	.word	0x080057d1
 8005828:	08005977 	.word	0x08005977
 800582c:	080057d1 	.word	0x080057d1
 8005830:	0800587f 	.word	0x0800587f
 8005834:	080057d1 	.word	0x080057d1
 8005838:	080057d1 	.word	0x080057d1
 800583c:	08005917 	.word	0x08005917
 8005840:	6833      	ldr	r3, [r6, #0]
 8005842:	1d1a      	adds	r2, r3, #4
 8005844:	681b      	ldr	r3, [r3, #0]
 8005846:	6032      	str	r2, [r6, #0]
 8005848:	f104 0642 	add.w	r6, r4, #66	@ 0x42
 800584c:	f884 3042 	strb.w	r3, [r4, #66]	@ 0x42
 8005850:	2301      	movs	r3, #1
 8005852:	e09d      	b.n	8005990 <_printf_i+0x1e8>
 8005854:	6833      	ldr	r3, [r6, #0]
 8005856:	6820      	ldr	r0, [r4, #0]
 8005858:	1d19      	adds	r1, r3, #4
 800585a:	6031      	str	r1, [r6, #0]
 800585c:	0606      	lsls	r6, r0, #24
 800585e:	d501      	bpl.n	8005864 <_printf_i+0xbc>
 8005860:	681d      	ldr	r5, [r3, #0]
 8005862:	e003      	b.n	800586c <_printf_i+0xc4>
 8005864:	0645      	lsls	r5, r0, #25
 8005866:	d5fb      	bpl.n	8005860 <_printf_i+0xb8>
 8005868:	f9b3 5000 	ldrsh.w	r5, [r3]
 800586c:	2d00      	cmp	r5, #0
 800586e:	da03      	bge.n	8005878 <_printf_i+0xd0>
 8005870:	232d      	movs	r3, #45	@ 0x2d
 8005872:	426d      	negs	r5, r5
 8005874:	f884 3043 	strb.w	r3, [r4, #67]	@ 0x43
 8005878:	4859      	ldr	r0, [pc, #356]	@ (80059e0 <_printf_i+0x238>)
 800587a:	230a      	movs	r3, #10
 800587c:	e011      	b.n	80058a2 <_printf_i+0xfa>
 800587e:	6821      	ldr	r1, [r4, #0]
 8005880:	6833      	ldr	r3, [r6, #0]
 8005882:	0608      	lsls	r0, r1, #24
 8005884:	f853 5b04 	ldr.w	r5, [r3], #4
 8005888:	d402      	bmi.n	8005890 <_printf_i+0xe8>
 800588a:	0649      	lsls	r1, r1, #25
 800588c:	bf48      	it	mi
 800588e:	b2ad      	uxthmi	r5, r5
 8005890:	2f6f      	cmp	r7, #111	@ 0x6f
 8005892:	4853      	ldr	r0, [pc, #332]	@ (80059e0 <_printf_i+0x238>)
 8005894:	6033      	str	r3, [r6, #0]
 8005896:	bf14      	ite	ne
 8005898:	230a      	movne	r3, #10
 800589a:	2308      	moveq	r3, #8
 800589c:	2100      	movs	r1, #0
 800589e:	f884 1043 	strb.w	r1, [r4, #67]	@ 0x43
 80058a2:	6866      	ldr	r6, [r4, #4]
 80058a4:	60a6      	str	r6, [r4, #8]
 80058a6:	2e00      	cmp	r6, #0
 80058a8:	bfa2      	ittt	ge
 80058aa:	6821      	ldrge	r1, [r4, #0]
 80058ac:	f021 0104 	bicge.w	r1, r1, #4
 80058b0:	6021      	strge	r1, [r4, #0]
 80058b2:	b90d      	cbnz	r5, 80058b8 <_printf_i+0x110>
 80058b4:	2e00      	cmp	r6, #0
 80058b6:	d04b      	beq.n	8005950 <_printf_i+0x1a8>
 80058b8:	4616      	mov	r6, r2
 80058ba:	fbb5 f1f3 	udiv	r1, r5, r3
 80058be:	fb03 5711 	mls	r7, r3, r1, r5
 80058c2:	5dc7      	ldrb	r7, [r0, r7]
 80058c4:	f806 7d01 	strb.w	r7, [r6, #-1]!
 80058c8:	462f      	mov	r7, r5
 80058ca:	42bb      	cmp	r3, r7
 80058cc:	460d      	mov	r5, r1
 80058ce:	d9f4      	bls.n	80058ba <_printf_i+0x112>
 80058d0:	2b08      	cmp	r3, #8
 80058d2:	d10b      	bne.n	80058ec <_printf_i+0x144>
 80058d4:	6823      	ldr	r3, [r4, #0]
 80058d6:	07df      	lsls	r7, r3, #31
 80058d8:	d508      	bpl.n	80058ec <_printf_i+0x144>
 80058da:	6923      	ldr	r3, [r4, #16]
 80058dc:	6861      	ldr	r1, [r4, #4]
 80058de:	4299      	cmp	r1, r3
 80058e0:	bfde      	ittt	le
 80058e2:	2330      	movle	r3, #48	@ 0x30
 80058e4:	f806 3c01 	strble.w	r3, [r6, #-1]
 80058e8:	f106 36ff 	addle.w	r6, r6, #4294967295
 80058ec:	1b92      	subs	r2, r2, r6
 80058ee:	6122      	str	r2, [r4, #16]
 80058f0:	f8cd a000 	str.w	sl, [sp]
 80058f4:	464b      	mov	r3, r9
 80058f6:	aa03      	add	r2, sp, #12
 80058f8:	4621      	mov	r1, r4
 80058fa:	4640      	mov	r0, r8
 80058fc:	f7ff fee6 	bl	80056cc <_printf_common>
 8005900:	3001      	adds	r0, #1
 8005902:	d14a      	bne.n	800599a <_printf_i+0x1f2>
 8005904:	f04f 30ff 	mov.w	r0, #4294967295
 8005908:	b004      	add	sp, #16
 800590a:	e8bd 87f0 	ldmia.w	sp!, {r4, r5, r6, r7, r8, r9, sl, pc}
 800590e:	6823      	ldr	r3, [r4, #0]
 8005910:	f043 0320 	orr.w	r3, r3, #32
 8005914:	6023      	str	r3, [r4, #0]
 8005916:	4833      	ldr	r0, [pc, #204]	@ (80059e4 <_printf_i+0x23c>)
 8005918:	2778      	movs	r7, #120	@ 0x78
 800591a:	f884 7045 	strb.w	r7, [r4, #69]	@ 0x45
 800591e:	6823      	ldr	r3, [r4, #0]
 8005920:	6831      	ldr	r1, [r6, #0]
 8005922:	061f      	lsls	r7, r3, #24
 8005924:	f851 5b04 	ldr.w	r5, [r1], #4
 8005928:	d402      	bmi.n	8005930 <_printf_i+0x188>
 800592a:	065f      	lsls	r7, r3, #25
 800592c:	bf48      	it	mi
 800592e:	b2ad      	uxthmi	r5, r5
 8005930:	6031      	str	r1, [r6, #0]
 8005932:	07d9      	lsls	r1, r3, #31
 8005934:	bf44      	itt	mi
 8005936:	f043 0320 	orrmi.w	r3, r3, #32
 800593a:	6023      	strmi	r3, [r4, #0]
 800593c:	b11d      	cbz	r5, 8005946 <_printf_i+0x19e>
 800593e:	2310      	movs	r3, #16
 8005940:	e7ac      	b.n	800589c <_printf_i+0xf4>
 8005942:	4827      	ldr	r0, [pc, #156]	@ (80059e0 <_printf_i+0x238>)
 8005944:	e7e9      	b.n	800591a <_printf_i+0x172>
 8005946:	6823      	ldr	r3, [r4, #0]
 8005948:	f023 0320 	bic.w	r3, r3, #32
 800594c:	6023      	str	r3, [r4, #0]
 800594e:	e7f6      	b.n	800593e <_printf_i+0x196>
 8005950:	4616      	mov	r6, r2
 8005952:	e7bd      	b.n	80058d0 <_printf_i+0x128>
 8005954:	6833      	ldr	r3, [r6, #0]
 8005956:	6825      	ldr	r5, [r4, #0]
 8005958:	6961      	ldr	r1, [r4, #20]
 800595a:	1d18      	adds	r0, r3, #4
 800595c:	6030      	str	r0, [r6, #0]
 800595e:	062e      	lsls	r6, r5, #24
 8005960:	681b      	ldr	r3, [r3, #0]
 8005962:	d501      	bpl.n	8005968 <_printf_i+0x1c0>
 8005964:	6019      	str	r1, [r3, #0]
 8005966:	e002      	b.n	800596e <_printf_i+0x1c6>
 8005968:	0668      	lsls	r0, r5, #25
 800596a:	d5fb      	bpl.n	8005964 <_printf_i+0x1bc>
 800596c:	8019      	strh	r1, [r3, #0]
 800596e:	2300      	movs	r3, #0
 8005970:	6123      	str	r3, [r4, #16]
 8005972:	4616      	mov	r6, r2
 8005974:	e7bc      	b.n	80058f0 <_printf_i+0x148>
 8005976:	6833      	ldr	r3, [r6, #0]
 8005978:	1d1a      	adds	r2, r3, #4
 800597a:	6032      	str	r2, [r6, #0]
 800597c:	681e      	ldr	r6, [r3, #0]
 800597e:	6862      	ldr	r2, [r4, #4]
 8005980:	2100      	movs	r1, #0
 8005982:	4630      	mov	r0, r6
 8005984:	f7fa fcb4 	bl	80002f0 <memchr>
 8005988:	b108      	cbz	r0, 800598e <_printf_i+0x1e6>
 800598a:	1b80      	subs	r0, r0, r6
 800598c:	6060      	str	r0, [r4, #4]
 800598e:	6863      	ldr	r3, [r4, #4]
 8005990:	6123      	str	r3, [r4, #16]
 8005992:	2300      	movs	r3, #0
 8005994:	f884 3043 	strb.w	r3, [r4, #67]	@ 0x43
 8005998:	e7aa      	b.n	80058f0 <_printf_i+0x148>
 800599a:	6923      	ldr	r3, [r4, #16]
 800599c:	4632      	mov	r2, r6
 800599e:	4649      	mov	r1, r9
 80059a0:	4640      	mov	r0, r8
 80059a2:	47d0      	blx	sl
 80059a4:	3001      	adds	r0, #1
 80059a6:	d0ad      	beq.n	8005904 <_printf_i+0x15c>
 80059a8:	6823      	ldr	r3, [r4, #0]
 80059aa:	079b      	lsls	r3, r3, #30
 80059ac:	d413      	bmi.n	80059d6 <_printf_i+0x22e>
 80059ae:	68e0      	ldr	r0, [r4, #12]
 80059b0:	9b03      	ldr	r3, [sp, #12]
 80059b2:	4298      	cmp	r0, r3
 80059b4:	bfb8      	it	lt
 80059b6:	4618      	movlt	r0, r3
 80059b8:	e7a6      	b.n	8005908 <_printf_i+0x160>
 80059ba:	2301      	movs	r3, #1
 80059bc:	4632      	mov	r2, r6
 80059be:	4649      	mov	r1, r9
 80059c0:	4640      	mov	r0, r8
 80059c2:	47d0      	blx	sl
 80059c4:	3001      	adds	r0, #1
 80059c6:	d09d      	beq.n	8005904 <_printf_i+0x15c>
 80059c8:	3501      	adds	r5, #1
 80059ca:	68e3      	ldr	r3, [r4, #12]
 80059cc:	9903      	ldr	r1, [sp, #12]
 80059ce:	1a5b      	subs	r3, r3, r1
 80059d0:	42ab      	cmp	r3, r5
 80059d2:	dcf2      	bgt.n	80059ba <_printf_i+0x212>
 80059d4:	e7eb      	b.n	80059ae <_printf_i+0x206>
 80059d6:	2500      	movs	r5, #0
 80059d8:	f104 0619 	add.w	r6, r4, #25
 80059dc:	e7f5      	b.n	80059ca <_printf_i+0x222>
 80059de:	bf00      	nop
 80059e0:	08005ead 	.word	0x08005ead
 80059e4:	08005ebe 	.word	0x08005ebe

080059e8 <__sflush_r>:
 80059e8:	f9b1 200c 	ldrsh.w	r2, [r1, #12]
 80059ec:	e92d 41f0 	stmdb	sp!, {r4, r5, r6, r7, r8, lr}
 80059f0:	0716      	lsls	r6, r2, #28
 80059f2:	4605      	mov	r5, r0
 80059f4:	460c      	mov	r4, r1
 80059f6:	d454      	bmi.n	8005aa2 <__sflush_r+0xba>
 80059f8:	684b      	ldr	r3, [r1, #4]
 80059fa:	2b00      	cmp	r3, #0
 80059fc:	dc02      	bgt.n	8005a04 <__sflush_r+0x1c>
 80059fe:	6c0b      	ldr	r3, [r1, #64]	@ 0x40
 8005a00:	2b00      	cmp	r3, #0
 8005a02:	dd48      	ble.n	8005a96 <__sflush_r+0xae>
 8005a04:	6ae6      	ldr	r6, [r4, #44]	@ 0x2c
 8005a06:	2e00      	cmp	r6, #0
 8005a08:	d045      	beq.n	8005a96 <__sflush_r+0xae>
 8005a0a:	2300      	movs	r3, #0
 8005a0c:	f412 5280 	ands.w	r2, r2, #4096	@ 0x1000
 8005a10:	682f      	ldr	r7, [r5, #0]
 8005a12:	6a21      	ldr	r1, [r4, #32]
 8005a14:	602b      	str	r3, [r5, #0]
 8005a16:	d030      	beq.n	8005a7a <__sflush_r+0x92>
 8005a18:	6d62      	ldr	r2, [r4, #84]	@ 0x54
 8005a1a:	89a3      	ldrh	r3, [r4, #12]
 8005a1c:	0759      	lsls	r1, r3, #29
 8005a1e:	d505      	bpl.n	8005a2c <__sflush_r+0x44>
 8005a20:	6863      	ldr	r3, [r4, #4]
 8005a22:	1ad2      	subs	r2, r2, r3
 8005a24:	6b63      	ldr	r3, [r4, #52]	@ 0x34
 8005a26:	b10b      	cbz	r3, 8005a2c <__sflush_r+0x44>
 8005a28:	6c23      	ldr	r3, [r4, #64]	@ 0x40
 8005a2a:	1ad2      	subs	r2, r2, r3
 8005a2c:	2300      	movs	r3, #0
 8005a2e:	6ae6      	ldr	r6, [r4, #44]	@ 0x2c
 8005a30:	6a21      	ldr	r1, [r4, #32]
 8005a32:	4628      	mov	r0, r5
 8005a34:	47b0      	blx	r6
 8005a36:	1c43      	adds	r3, r0, #1
 8005a38:	89a3      	ldrh	r3, [r4, #12]
 8005a3a:	d106      	bne.n	8005a4a <__sflush_r+0x62>
 8005a3c:	6829      	ldr	r1, [r5, #0]
 8005a3e:	291d      	cmp	r1, #29
 8005a40:	d82b      	bhi.n	8005a9a <__sflush_r+0xb2>
 8005a42:	4a2a      	ldr	r2, [pc, #168]	@ (8005aec <__sflush_r+0x104>)
 8005a44:	410a      	asrs	r2, r1
 8005a46:	07d6      	lsls	r6, r2, #31
 8005a48:	d427      	bmi.n	8005a9a <__sflush_r+0xb2>
 8005a4a:	2200      	movs	r2, #0
 8005a4c:	6062      	str	r2, [r4, #4]
 8005a4e:	04d9      	lsls	r1, r3, #19
 8005a50:	6922      	ldr	r2, [r4, #16]
 8005a52:	6022      	str	r2, [r4, #0]
 8005a54:	d504      	bpl.n	8005a60 <__sflush_r+0x78>
 8005a56:	1c42      	adds	r2, r0, #1
 8005a58:	d101      	bne.n	8005a5e <__sflush_r+0x76>
 8005a5a:	682b      	ldr	r3, [r5, #0]
 8005a5c:	b903      	cbnz	r3, 8005a60 <__sflush_r+0x78>
 8005a5e:	6560      	str	r0, [r4, #84]	@ 0x54
 8005a60:	6b61      	ldr	r1, [r4, #52]	@ 0x34
 8005a62:	602f      	str	r7, [r5, #0]
 8005a64:	b1b9      	cbz	r1, 8005a96 <__sflush_r+0xae>
 8005a66:	f104 0344 	add.w	r3, r4, #68	@ 0x44
 8005a6a:	4299      	cmp	r1, r3
 8005a6c:	d002      	beq.n	8005a74 <__sflush_r+0x8c>
 8005a6e:	4628      	mov	r0, r5
 8005a70:	f7ff fbf2 	bl	8005258 <_free_r>
 8005a74:	2300      	movs	r3, #0
 8005a76:	6363      	str	r3, [r4, #52]	@ 0x34
 8005a78:	e00d      	b.n	8005a96 <__sflush_r+0xae>
 8005a7a:	2301      	movs	r3, #1
 8005a7c:	4628      	mov	r0, r5
 8005a7e:	47b0      	blx	r6
 8005a80:	4602      	mov	r2, r0
 8005a82:	1c50      	adds	r0, r2, #1
 8005a84:	d1c9      	bne.n	8005a1a <__sflush_r+0x32>
 8005a86:	682b      	ldr	r3, [r5, #0]
 8005a88:	2b00      	cmp	r3, #0
 8005a8a:	d0c6      	beq.n	8005a1a <__sflush_r+0x32>
 8005a8c:	2b1d      	cmp	r3, #29
 8005a8e:	d001      	beq.n	8005a94 <__sflush_r+0xac>
 8005a90:	2b16      	cmp	r3, #22
 8005a92:	d11e      	bne.n	8005ad2 <__sflush_r+0xea>
 8005a94:	602f      	str	r7, [r5, #0]
 8005a96:	2000      	movs	r0, #0
 8005a98:	e022      	b.n	8005ae0 <__sflush_r+0xf8>
 8005a9a:	f043 0340 	orr.w	r3, r3, #64	@ 0x40
 8005a9e:	b21b      	sxth	r3, r3
 8005aa0:	e01b      	b.n	8005ada <__sflush_r+0xf2>
 8005aa2:	690f      	ldr	r7, [r1, #16]
 8005aa4:	2f00      	cmp	r7, #0
 8005aa6:	d0f6      	beq.n	8005a96 <__sflush_r+0xae>
 8005aa8:	0793      	lsls	r3, r2, #30
 8005aaa:	680e      	ldr	r6, [r1, #0]
 8005aac:	bf08      	it	eq
 8005aae:	694b      	ldreq	r3, [r1, #20]
 8005ab0:	600f      	str	r7, [r1, #0]
 8005ab2:	bf18      	it	ne
 8005ab4:	2300      	movne	r3, #0
 8005ab6:	eba6 0807 	sub.w	r8, r6, r7
 8005aba:	608b      	str	r3, [r1, #8]
 8005abc:	f1b8 0f00 	cmp.w	r8, #0
 8005ac0:	dde9      	ble.n	8005a96 <__sflush_r+0xae>
 8005ac2:	6a21      	ldr	r1, [r4, #32]
 8005ac4:	6aa6      	ldr	r6, [r4, #40]	@ 0x28
 8005ac6:	4643      	mov	r3, r8
 8005ac8:	463a      	mov	r2, r7
 8005aca:	4628      	mov	r0, r5
 8005acc:	47b0      	blx	r6
 8005ace:	2800      	cmp	r0, #0
 8005ad0:	dc08      	bgt.n	8005ae4 <__sflush_r+0xfc>
 8005ad2:	f9b4 300c 	ldrsh.w	r3, [r4, #12]
 8005ad6:	f043 0340 	orr.w	r3, r3, #64	@ 0x40
 8005ada:	81a3      	strh	r3, [r4, #12]
 8005adc:	f04f 30ff 	mov.w	r0, #4294967295
 8005ae0:	e8bd 81f0 	ldmia.w	sp!, {r4, r5, r6, r7, r8, pc}
 8005ae4:	4407      	add	r7, r0
 8005ae6:	eba8 0800 	sub.w	r8, r8, r0
 8005aea:	e7e7      	b.n	8005abc <__sflush_r+0xd4>
 8005aec:	dfbffffe 	.word	0xdfbffffe

08005af0 <_fflush_r>:
 8005af0:	b538      	push	{r3, r4, r5, lr}
 8005af2:	690b      	ldr	r3, [r1, #16]
 8005af4:	4605      	mov	r5, r0
 8005af6:	460c      	mov	r4, r1
 8005af8:	b913      	cbnz	r3, 8005b00 <_fflush_r+0x10>
 8005afa:	2500      	movs	r5, #0
 8005afc:	4628      	mov	r0, r5
 8005afe:	bd38      	pop	{r3, r4, r5, pc}
 8005b00:	b118      	cbz	r0, 8005b0a <_fflush_r+0x1a>
 8005b02:	6a03      	ldr	r3, [r0, #32]
 8005b04:	b90b      	cbnz	r3, 8005b0a <_fflush_r+0x1a>
 8005b06:	f7ff f99f 	bl	8004e48 <__sinit>
 8005b0a:	f9b4 300c 	ldrsh.w	r3, [r4, #12]
 8005b0e:	2b00      	cmp	r3, #0
 8005b10:	d0f3      	beq.n	8005afa <_fflush_r+0xa>
 8005b12:	6e62      	ldr	r2, [r4, #100]	@ 0x64
 8005b14:	07d0      	lsls	r0, r2, #31
 8005b16:	d404      	bmi.n	8005b22 <_fflush_r+0x32>
 8005b18:	0599      	lsls	r1, r3, #22
 8005b1a:	d402      	bmi.n	8005b22 <_fflush_r+0x32>
 8005b1c:	6da0      	ldr	r0, [r4, #88]	@ 0x58
 8005b1e:	f7ff fb8a 	bl	8005236 <__retarget_lock_acquire_recursive>
 8005b22:	4628      	mov	r0, r5
 8005b24:	4621      	mov	r1, r4
 8005b26:	f7ff ff5f 	bl	80059e8 <__sflush_r>
 8005b2a:	6e63      	ldr	r3, [r4, #100]	@ 0x64
 8005b2c:	07da      	lsls	r2, r3, #31
 8005b2e:	4605      	mov	r5, r0
 8005b30:	d4e4      	bmi.n	8005afc <_fflush_r+0xc>
 8005b32:	89a3      	ldrh	r3, [r4, #12]
 8005b34:	059b      	lsls	r3, r3, #22
 8005b36:	d4e1      	bmi.n	8005afc <_fflush_r+0xc>
 8005b38:	6da0      	ldr	r0, [r4, #88]	@ 0x58
 8005b3a:	f7ff fb7d 	bl	8005238 <__retarget_lock_release_recursive>
 8005b3e:	e7dd      	b.n	8005afc <_fflush_r+0xc>

08005b40 <__swhatbuf_r>:
 8005b40:	b570      	push	{r4, r5, r6, lr}
 8005b42:	460c      	mov	r4, r1
 8005b44:	f9b1 100e 	ldrsh.w	r1, [r1, #14]
 8005b48:	2900      	cmp	r1, #0
 8005b4a:	b096      	sub	sp, #88	@ 0x58
 8005b4c:	4615      	mov	r5, r2
 8005b4e:	461e      	mov	r6, r3
 8005b50:	da0d      	bge.n	8005b6e <__swhatbuf_r+0x2e>
 8005b52:	89a3      	ldrh	r3, [r4, #12]
 8005b54:	f013 0f80 	tst.w	r3, #128	@ 0x80
 8005b58:	f04f 0100 	mov.w	r1, #0
 8005b5c:	bf14      	ite	ne
 8005b5e:	2340      	movne	r3, #64	@ 0x40
 8005b60:	f44f 6380 	moveq.w	r3, #1024	@ 0x400
 8005b64:	2000      	movs	r0, #0
 8005b66:	6031      	str	r1, [r6, #0]
 8005b68:	602b      	str	r3, [r5, #0]
 8005b6a:	b016      	add	sp, #88	@ 0x58
 8005b6c:	bd70      	pop	{r4, r5, r6, pc}
 8005b6e:	466a      	mov	r2, sp
 8005b70:	f000 f848 	bl	8005c04 <_fstat_r>
 8005b74:	2800      	cmp	r0, #0
 8005b76:	dbec      	blt.n	8005b52 <__swhatbuf_r+0x12>
 8005b78:	9901      	ldr	r1, [sp, #4]
 8005b7a:	f401 4170 	and.w	r1, r1, #61440	@ 0xf000
 8005b7e:	f5a1 5300 	sub.w	r3, r1, #8192	@ 0x2000
 8005b82:	4259      	negs	r1, r3
 8005b84:	4159      	adcs	r1, r3
 8005b86:	f44f 6380 	mov.w	r3, #1024	@ 0x400
 8005b8a:	e7eb      	b.n	8005b64 <__swhatbuf_r+0x24>

08005b8c <__smakebuf_r>:
 8005b8c:	898b      	ldrh	r3, [r1, #12]
 8005b8e:	b5f7      	push	{r0, r1, r2, r4, r5, r6, r7, lr}
 8005b90:	079d      	lsls	r5, r3, #30
 8005b92:	4606      	mov	r6, r0
 8005b94:	460c      	mov	r4, r1
 8005b96:	d507      	bpl.n	8005ba8 <__smakebuf_r+0x1c>
 8005b98:	f104 0347 	add.w	r3, r4, #71	@ 0x47
 8005b9c:	6023      	str	r3, [r4, #0]
 8005b9e:	6123      	str	r3, [r4, #16]
 8005ba0:	2301      	movs	r3, #1
 8005ba2:	6163      	str	r3, [r4, #20]
 8005ba4:	b003      	add	sp, #12
 8005ba6:	bdf0      	pop	{r4, r5, r6, r7, pc}
 8005ba8:	ab01      	add	r3, sp, #4
 8005baa:	466a      	mov	r2, sp
 8005bac:	f7ff ffc8 	bl	8005b40 <__swhatbuf_r>
 8005bb0:	9f00      	ldr	r7, [sp, #0]
 8005bb2:	4605      	mov	r5, r0
 8005bb4:	4639      	mov	r1, r7
 8005bb6:	4630      	mov	r0, r6
 8005bb8:	f7ff fbba 	bl	8005330 <_malloc_r>
 8005bbc:	b948      	cbnz	r0, 8005bd2 <__smakebuf_r+0x46>
 8005bbe:	f9b4 300c 	ldrsh.w	r3, [r4, #12]
 8005bc2:	059a      	lsls	r2, r3, #22
 8005bc4:	d4ee      	bmi.n	8005ba4 <__smakebuf_r+0x18>
 8005bc6:	f023 0303 	bic.w	r3, r3, #3
 8005bca:	f043 0302 	orr.w	r3, r3, #2
 8005bce:	81a3      	strh	r3, [r4, #12]
 8005bd0:	e7e2      	b.n	8005b98 <__smakebuf_r+0xc>
 8005bd2:	89a3      	ldrh	r3, [r4, #12]
 8005bd4:	6020      	str	r0, [r4, #0]
 8005bd6:	f043 0380 	orr.w	r3, r3, #128	@ 0x80
 8005bda:	81a3      	strh	r3, [r4, #12]
 8005bdc:	9b01      	ldr	r3, [sp, #4]
 8005bde:	e9c4 0704 	strd	r0, r7, [r4, #16]
 8005be2:	b15b      	cbz	r3, 8005bfc <__smakebuf_r+0x70>
 8005be4:	f9b4 100e 	ldrsh.w	r1, [r4, #14]
 8005be8:	4630      	mov	r0, r6
 8005bea:	f000 f81d 	bl	8005c28 <_isatty_r>
 8005bee:	b128      	cbz	r0, 8005bfc <__smakebuf_r+0x70>
 8005bf0:	89a3      	ldrh	r3, [r4, #12]
 8005bf2:	f023 0303 	bic.w	r3, r3, #3
 8005bf6:	f043 0301 	orr.w	r3, r3, #1
 8005bfa:	81a3      	strh	r3, [r4, #12]
 8005bfc:	89a3      	ldrh	r3, [r4, #12]
 8005bfe:	431d      	orrs	r5, r3
 8005c00:	81a5      	strh	r5, [r4, #12]
 8005c02:	e7cf      	b.n	8005ba4 <__smakebuf_r+0x18>

08005c04 <_fstat_r>:
 8005c04:	b538      	push	{r3, r4, r5, lr}
 8005c06:	4d07      	ldr	r5, [pc, #28]	@ (8005c24 <_fstat_r+0x20>)
 8005c08:	2300      	movs	r3, #0
 8005c0a:	4604      	mov	r4, r0
 8005c0c:	4608      	mov	r0, r1
 8005c0e:	4611      	mov	r1, r2
 8005c10:	602b      	str	r3, [r5, #0]
 8005c12:	f7fb fe68 	bl	80018e6 <_fstat>
 8005c16:	1c43      	adds	r3, r0, #1
 8005c18:	d102      	bne.n	8005c20 <_fstat_r+0x1c>
 8005c1a:	682b      	ldr	r3, [r5, #0]
 8005c1c:	b103      	cbz	r3, 8005c20 <_fstat_r+0x1c>
 8005c1e:	6023      	str	r3, [r4, #0]
 8005c20:	bd38      	pop	{r3, r4, r5, pc}
 8005c22:	bf00      	nop
 8005c24:	2400067c 	.word	0x2400067c

08005c28 <_isatty_r>:
 8005c28:	b538      	push	{r3, r4, r5, lr}
 8005c2a:	4d06      	ldr	r5, [pc, #24]	@ (8005c44 <_isatty_r+0x1c>)
 8005c2c:	2300      	movs	r3, #0
 8005c2e:	4604      	mov	r4, r0
 8005c30:	4608      	mov	r0, r1
 8005c32:	602b      	str	r3, [r5, #0]
 8005c34:	f7fb fe5c 	bl	80018f0 <_isatty>
 8005c38:	1c43      	adds	r3, r0, #1
 8005c3a:	d102      	bne.n	8005c42 <_isatty_r+0x1a>
 8005c3c:	682b      	ldr	r3, [r5, #0]
 8005c3e:	b103      	cbz	r3, 8005c42 <_isatty_r+0x1a>
 8005c40:	6023      	str	r3, [r4, #0]
 8005c42:	bd38      	pop	{r3, r4, r5, pc}
 8005c44:	2400067c 	.word	0x2400067c

08005c48 <_sbrk_r>:
 8005c48:	b538      	push	{r3, r4, r5, lr}
 8005c4a:	4d06      	ldr	r5, [pc, #24]	@ (8005c64 <_sbrk_r+0x1c>)
 8005c4c:	2300      	movs	r3, #0
 8005c4e:	4604      	mov	r4, r0
 8005c50:	4608      	mov	r0, r1
 8005c52:	602b      	str	r3, [r5, #0]
 8005c54:	f7fb fe50 	bl	80018f8 <_sbrk>
 8005c58:	1c43      	adds	r3, r0, #1
 8005c5a:	d102      	bne.n	8005c62 <_sbrk_r+0x1a>
 8005c5c:	682b      	ldr	r3, [r5, #0]
 8005c5e:	b103      	cbz	r3, 8005c62 <_sbrk_r+0x1a>
 8005c60:	6023      	str	r3, [r4, #0]
 8005c62:	bd38      	pop	{r3, r4, r5, pc}
 8005c64:	2400067c 	.word	0x2400067c

08005c68 <_init>:
 8005c68:	b5f8      	push	{r3, r4, r5, r6, r7, lr}
 8005c6a:	bf00      	nop
 8005c6c:	bcf8      	pop	{r3, r4, r5, r6, r7}
 8005c6e:	bc08      	pop	{r3}
 8005c70:	469e      	mov	lr, r3
 8005c72:	4770      	bx	lr

08005c74 <_fini>:
 8005c74:	b5f8      	push	{r3, r4, r5, r6, r7, lr}
 8005c76:	bf00      	nop
 8005c78:	bcf8      	pop	{r3, r4, r5, r6, r7}
 8005c7a:	bc08      	pop	{r3}
 8005c7c:	469e      	mov	lr, r3
 8005c7e:	4770      	bx	lr
